
exe:     file format elf32-littleriscv


Disassembly of section .text:

00000000 <entry>:
   0:	00010117          	auipc	sp,0x10
   4:	00010113          	mv	sp,sp
   8:	008000ef          	jal	ra,10 <textinit>

0000000c <end>:
   c:	0000006f          	j	c <end>

00000010 <textinit>:
  10:	ff010113          	addi	sp,sp,-16 # fff0 <vector+0xfb8c>
  14:	00112623          	sw	ra,12(sp)
  18:	00812423          	sw	s0,8(sp)
  1c:	01010413          	addi	s0,sp,16
  20:	3b4000ef          	jal	ra,3d4 <main>
  24:	00000013          	nop
  28:	00c12083          	lw	ra,12(sp)
  2c:	00812403          	lw	s0,8(sp)
  30:	01010113          	addi	sp,sp,16
  34:	00008067          	ret

00000038 <_Z11write_charii>:
  38:	000107b7          	lui	a5,0x10
  3c:	00a7a223          	sw	a0,4(a5) # 10004 <__console_addr>
  40:	0047a783          	lw	a5,4(a5)
  44:	40a78533          	sub	a0,a5,a0
  48:	00153513          	seqz	a0,a0
  4c:	00008067          	ret

00000050 <_Z10write_charc>:
  50:	000107b7          	lui	a5,0x10
  54:	00a7a223          	sw	a0,4(a5) # 10004 <__console_addr>
  58:	0047a783          	lw	a5,4(a5)
  5c:	40f50533          	sub	a0,a0,a5
  60:	00153513          	seqz	a0,a0
  64:	00008067          	ret

00000068 <_Z4itoaijjjPcj>:
  68:	fd010113          	addi	sp,sp,-48
  6c:	01712623          	sw	s7,12(sp)
  70:	02112623          	sw	ra,44(sp)
  74:	00058b93          	mv	s7,a1
  78:	02812423          	sw	s0,40(sp)
  7c:	02912223          	sw	s1,36(sp)
  80:	03212023          	sw	s2,32(sp)
  84:	01312e23          	sw	s3,28(sp)
  88:	01412c23          	sw	s4,24(sp)
  8c:	01512a23          	sw	s5,20(sp)
  90:	01612823          	sw	s6,16(sp)
  94:	01000593          	li	a1,16
  98:	2175e263          	bltu	a1,s7,29c <_Z4itoaijjjPcj+0x234>
  9c:	00050413          	mv	s0,a0
  a0:	00070493          	mv	s1,a4
  a4:	00078a13          	mv	s4,a5
  a8:	00000a93          	li	s5,0
  ac:	1c054c63          	bltz	a0,284 <_Z4itoaijjjPcj+0x21c>
  b0:	06100913          	li	s2,97
  b4:	1a061c63          	bnez	a2,26c <_Z4itoaijjjPcj+0x204>
  b8:	00048b13          	mv	s6,s1
  bc:	00900993          	li	s3,9
  c0:	ff690913          	addi	s2,s2,-10
  c4:	000b8593          	mv	a1,s7
  c8:	00040513          	mv	a0,s0
  cc:	2a4000ef          	jal	ra,370 <__umodsi3>
  d0:	00050713          	mv	a4,a0
  d4:	0ff77693          	andi	a3,a4,255
  d8:	03068793          	addi	a5,a3,48
  dc:	000b8593          	mv	a1,s7
  e0:	00040513          	mv	a0,s0
  e4:	012686b3          	add	a3,a3,s2
  e8:	16e9e663          	bltu	s3,a4,254 <_Z4itoaijjjPcj+0x1ec>
  ec:	00fb0023          	sb	a5,0(s6)
  f0:	238000ef          	jal	ra,328 <__udivsi3>
  f4:	00050413          	mv	s0,a0
  f8:	001b0b13          	addi	s6,s6,1
  fc:	fca044e3          	bgtz	a0,c4 <_Z4itoaijjjPcj+0x5c>
 100:	409b0733          	sub	a4,s6,s1
 104:	0f477263          	bgeu	a4,s4,1e8 <_Z4itoaijjjPcj+0x180>
 108:	fffa0693          	addi	a3,s4,-1
 10c:	416007b3          	neg	a5,s6
 110:	40e686b3          	sub	a3,a3,a4
 114:	00500613          	li	a2,5
 118:	40ea0533          	sub	a0,s4,a4
 11c:	0037f793          	andi	a5,a5,3
 120:	18d67863          	bgeu	a2,a3,2b0 <_Z4itoaijjjPcj+0x248>
 124:	18078063          	beqz	a5,2a4 <_Z4itoaijjjPcj+0x23c>
 128:	03000693          	li	a3,48
 12c:	00db0023          	sb	a3,0(s6)
 130:	00100613          	li	a2,1
 134:	001b0593          	addi	a1,s6,1
 138:	00170893          	addi	a7,a4,1
 13c:	02c78263          	beq	a5,a2,160 <_Z4itoaijjjPcj+0xf8>
 140:	00db00a3          	sb	a3,1(s6)
 144:	00200613          	li	a2,2
 148:	002b0593          	addi	a1,s6,2
 14c:	00270893          	addi	a7,a4,2
 150:	00c78863          	beq	a5,a2,160 <_Z4itoaijjjPcj+0xf8>
 154:	003b0593          	addi	a1,s6,3
 158:	00db0123          	sb	a3,2(s6)
 15c:	00370893          	addi	a7,a4,3
 160:	40f50833          	sub	a6,a0,a5
 164:	ffc80693          	addi	a3,a6,-4
 168:	0026d693          	srli	a3,a3,0x2
 16c:	30303637          	lui	a2,0x30303
 170:	00168693          	addi	a3,a3,1
 174:	00fb07b3          	add	a5,s6,a5
 178:	00000713          	li	a4,0
 17c:	03060613          	addi	a2,a2,48 # 30303030 <__console_addr+0x302f302c>
 180:	00c7a023          	sw	a2,0(a5)
 184:	00170713          	addi	a4,a4,1
 188:	00478793          	addi	a5,a5,4
 18c:	fed76ae3          	bltu	a4,a3,180 <_Z4itoaijjjPcj+0x118>
 190:	00269693          	slli	a3,a3,0x2
 194:	00d587b3          	add	a5,a1,a3
 198:	00d88733          	add	a4,a7,a3
 19c:	04d80463          	beq	a6,a3,1e4 <_Z4itoaijjjPcj+0x17c>
 1a0:	03000693          	li	a3,48
 1a4:	00d78023          	sb	a3,0(a5)
 1a8:	00170613          	addi	a2,a4,1
 1ac:	03467c63          	bgeu	a2,s4,1e4 <_Z4itoaijjjPcj+0x17c>
 1b0:	00d780a3          	sb	a3,1(a5)
 1b4:	00270613          	addi	a2,a4,2
 1b8:	03467663          	bgeu	a2,s4,1e4 <_Z4itoaijjjPcj+0x17c>
 1bc:	00d78123          	sb	a3,2(a5)
 1c0:	00370613          	addi	a2,a4,3
 1c4:	03467063          	bgeu	a2,s4,1e4 <_Z4itoaijjjPcj+0x17c>
 1c8:	00d781a3          	sb	a3,3(a5)
 1cc:	00470613          	addi	a2,a4,4
 1d0:	01467a63          	bgeu	a2,s4,1e4 <_Z4itoaijjjPcj+0x17c>
 1d4:	00d78223          	sb	a3,4(a5)
 1d8:	00570713          	addi	a4,a4,5
 1dc:	01477463          	bgeu	a4,s4,1e4 <_Z4itoaijjjPcj+0x17c>
 1e0:	00d782a3          	sb	a3,5(a5)
 1e4:	00ab0b33          	add	s6,s6,a0
 1e8:	080a9663          	bnez	s5,274 <_Z4itoaijjjPcj+0x20c>
 1ec:	409b0533          	sub	a0,s6,s1
 1f0:	000b0023          	sb	zero,0(s6)
 1f4:	00155593          	srli	a1,a0,0x1
 1f8:	02058863          	beqz	a1,228 <_Z4itoaijjjPcj+0x1c0>
 1fc:	fff50793          	addi	a5,a0,-1
 200:	00048713          	mv	a4,s1
 204:	00f487b3          	add	a5,s1,a5
 208:	00b485b3          	add	a1,s1,a1
 20c:	0007c603          	lbu	a2,0(a5)
 210:	00074683          	lbu	a3,0(a4)
 214:	00170713          	addi	a4,a4,1
 218:	fff78793          	addi	a5,a5,-1
 21c:	fec70fa3          	sb	a2,-1(a4)
 220:	00d780a3          	sb	a3,1(a5)
 224:	feb714e3          	bne	a4,a1,20c <_Z4itoaijjjPcj+0x1a4>
 228:	02c12083          	lw	ra,44(sp)
 22c:	02812403          	lw	s0,40(sp)
 230:	02412483          	lw	s1,36(sp)
 234:	02012903          	lw	s2,32(sp)
 238:	01c12983          	lw	s3,28(sp)
 23c:	01812a03          	lw	s4,24(sp)
 240:	01412a83          	lw	s5,20(sp)
 244:	01012b03          	lw	s6,16(sp)
 248:	00c12b83          	lw	s7,12(sp)
 24c:	03010113          	addi	sp,sp,48
 250:	00008067          	ret
 254:	00db0023          	sb	a3,0(s6)
 258:	0d0000ef          	jal	ra,328 <__udivsi3>
 25c:	00050413          	mv	s0,a0
 260:	001b0b13          	addi	s6,s6,1
 264:	e6a040e3          	bgtz	a0,c4 <_Z4itoaijjjPcj+0x5c>
 268:	e99ff06f          	j	100 <_Z4itoaijjjPcj+0x98>
 26c:	04100913          	li	s2,65
 270:	e49ff06f          	j	b8 <_Z4itoaijjjPcj+0x50>
 274:	02d00793          	li	a5,45
 278:	00fb0023          	sb	a5,0(s6)
 27c:	001b0b13          	addi	s6,s6,1
 280:	f6dff06f          	j	1ec <_Z4itoaijjjPcj+0x184>
 284:	e20696e3          	bnez	a3,b0 <_Z4itoaijjjPcj+0x48>
 288:	40a00433          	neg	s0,a0
 28c:	00100a93          	li	s5,1
 290:	06100913          	li	s2,97
 294:	e20602e3          	beqz	a2,b8 <_Z4itoaijjjPcj+0x50>
 298:	fd5ff06f          	j	26c <_Z4itoaijjjPcj+0x204>
 29c:	00000513          	li	a0,0
 2a0:	f89ff06f          	j	228 <_Z4itoaijjjPcj+0x1c0>
 2a4:	00070893          	mv	a7,a4
 2a8:	000b0593          	mv	a1,s6
 2ac:	eb5ff06f          	j	160 <_Z4itoaijjjPcj+0xf8>
 2b0:	000b0793          	mv	a5,s6
 2b4:	eedff06f          	j	1a0 <_Z4itoaijjjPcj+0x138>

000002b8 <_Z12write_stringPc>:
 2b8:	00054703          	lbu	a4,0(a0)
 2bc:	04070463          	beqz	a4,304 <_Z12write_stringPc+0x4c>
 2c0:	00150693          	addi	a3,a0,1
 2c4:	00100613          	li	a2,1
 2c8:	000105b7          	lui	a1,0x10
 2cc:	00e5a223          	sw	a4,4(a1) # 10004 <__console_addr>
 2d0:	0045a783          	lw	a5,4(a1)
 2d4:	00168693          	addi	a3,a3,1
 2d8:	40f707b3          	sub	a5,a4,a5
 2dc:	fff6c703          	lbu	a4,-1(a3)
 2e0:	0017b793          	seqz	a5,a5
 2e4:	00c7f633          	and	a2,a5,a2
 2e8:	00060793          	mv	a5,a2
 2ec:	fe0710e3          	bnez	a4,2cc <_Z12write_stringPc+0x14>
 2f0:	0005a223          	sw	zero,4(a1)
 2f4:	0045a503          	lw	a0,4(a1)
 2f8:	00153513          	seqz	a0,a0
 2fc:	00f57533          	and	a0,a0,a5
 300:	00008067          	ret
 304:	000105b7          	lui	a1,0x10
 308:	0005a223          	sw	zero,4(a1) # 10004 <__console_addr>
 30c:	0045a503          	lw	a0,4(a1)
 310:	00100793          	li	a5,1
 314:	00153513          	seqz	a0,a0
 318:	00f57533          	and	a0,a0,a5
 31c:	00008067          	ret

00000320 <__divsi3>:
 320:	06054063          	bltz	a0,380 <__umodsi3+0x10>
 324:	0605c663          	bltz	a1,390 <__umodsi3+0x20>

00000328 <__udivsi3>:
 328:	00058613          	mv	a2,a1
 32c:	00050593          	mv	a1,a0
 330:	fff00513          	li	a0,-1
 334:	02060c63          	beqz	a2,36c <__udivsi3+0x44>
 338:	00100693          	li	a3,1
 33c:	00b67a63          	bgeu	a2,a1,350 <__udivsi3+0x28>
 340:	00c05863          	blez	a2,350 <__udivsi3+0x28>
 344:	00161613          	slli	a2,a2,0x1
 348:	00169693          	slli	a3,a3,0x1
 34c:	feb66ae3          	bltu	a2,a1,340 <__udivsi3+0x18>
 350:	00000513          	li	a0,0
 354:	00c5e663          	bltu	a1,a2,360 <__udivsi3+0x38>
 358:	40c585b3          	sub	a1,a1,a2
 35c:	00d56533          	or	a0,a0,a3
 360:	0016d693          	srli	a3,a3,0x1
 364:	00165613          	srli	a2,a2,0x1
 368:	fe0696e3          	bnez	a3,354 <__udivsi3+0x2c>
 36c:	00008067          	ret

00000370 <__umodsi3>:
 370:	00008293          	mv	t0,ra
 374:	fb5ff0ef          	jal	ra,328 <__udivsi3>
 378:	00058513          	mv	a0,a1
 37c:	00028067          	jr	t0
 380:	40a00533          	neg	a0,a0
 384:	00b04863          	bgtz	a1,394 <__umodsi3+0x24>
 388:	40b005b3          	neg	a1,a1
 38c:	f9dff06f          	j	328 <__udivsi3>
 390:	40b005b3          	neg	a1,a1
 394:	00008293          	mv	t0,ra
 398:	f91ff0ef          	jal	ra,328 <__udivsi3>
 39c:	40a00533          	neg	a0,a0
 3a0:	00028067          	jr	t0

000003a4 <__modsi3>:
 3a4:	00008293          	mv	t0,ra
 3a8:	0005ca63          	bltz	a1,3bc <__modsi3+0x18>
 3ac:	00054c63          	bltz	a0,3c4 <__modsi3+0x20>
 3b0:	f79ff0ef          	jal	ra,328 <__udivsi3>
 3b4:	00058513          	mv	a0,a1
 3b8:	00028067          	jr	t0
 3bc:	40b005b3          	neg	a1,a1
 3c0:	fe0558e3          	bgez	a0,3b0 <__modsi3+0xc>
 3c4:	40a00533          	neg	a0,a0
 3c8:	f61ff0ef          	jal	ra,328 <__udivsi3>
 3cc:	40b00533          	neg	a0,a1
 3d0:	00028067          	jr	t0

Disassembly of section .text.startup:

000003d4 <main>:
 3d4:	46c00793          	li	a5,1132
 3d8:	0087a683          	lw	a3,8(a5)
 3dc:	00c7a703          	lw	a4,12(a5)
 3e0:	0007a583          	lw	a1,0(a5)
 3e4:	0047a603          	lw	a2,4(a5)
 3e8:	0107c783          	lbu	a5,16(a5)
 3ec:	fe010113          	addi	sp,sp,-32
 3f0:	00d12423          	sw	a3,8(sp)
 3f4:	00e12623          	sw	a4,12(sp)
 3f8:	00f10823          	sb	a5,16(sp)
 3fc:	00b12023          	sw	a1,0(sp)
 400:	00c12223          	sw	a2,4(sp)
 404:	000108a3          	sb	zero,17(sp)
 408:	00010923          	sb	zero,18(sp)
 40c:	000109a3          	sb	zero,19(sp)
 410:	00010a23          	sb	zero,20(sp)
 414:	00010aa3          	sb	zero,21(sp)
 418:	00010b23          	sb	zero,22(sp)
 41c:	00010ba3          	sb	zero,23(sp)
 420:	00010c23          	sb	zero,24(sp)
 424:	00010ca3          	sb	zero,25(sp)
 428:	00010d23          	sb	zero,26(sp)
 42c:	00010da3          	sb	zero,27(sp)
 430:	00010e23          	sb	zero,28(sp)
 434:	00010ea3          	sb	zero,29(sp)
 438:	00110713          	addi	a4,sp,1
 43c:	04800793          	li	a5,72
 440:	000106b7          	lui	a3,0x10
 444:	00f6a223          	sw	a5,4(a3) # 10004 <__console_addr>
 448:	00074783          	lbu	a5,0(a4)
 44c:	0046a603          	lw	a2,4(a3)
 450:	00170713          	addi	a4,a4,1
 454:	fe0798e3          	bnez	a5,444 <main+0x70>
 458:	00000513          	li	a0,0
 45c:	02010113          	addi	sp,sp,32
 460:	00008067          	ret

Disassembly of section .vector:

00000464 <vector>:
 464:	0000                	unimp
 466:	0001                	nop
 468:	0010                	0x10
	...
