
disassembly.o:     file format elf64-littleriscv


Disassembly of section .text:

0000000000000000 <.text>:
   0:	00010117          	auipc	sp,0x10
   4:	ffc10113          	addi	sp,sp,-4 # 0xfffc
   8:	008000ef          	jal	ra,0x10
   c:	0000006f          	j	0xc
  10:	ff010113          	addi	sp,sp,-16
  14:	00112623          	sw	ra,12(sp)
  18:	00812423          	sw	s0,8(sp)
  1c:	01010413          	addi	s0,sp,16
  20:	39c000ef          	jal	ra,0x3bc
  24:	00000013          	nop
  28:	00c12083          	lw	ra,12(sp)
  2c:	00812403          	lw	s0,8(sp)
  30:	01010113          	addi	sp,sp,16
  34:	00008067          	ret
  38:	000107b7          	lui	a5,0x10
  3c:	00a7a223          	sw	a0,4(a5) # 0x10004
  40:	0047a783          	lw	a5,4(a5)
  44:	40f50533          	sub	a0,a0,a5
  48:	00153513          	seqz	a0,a0
  4c:	00008067          	ret
  50:	fd010113          	addi	sp,sp,-48
  54:	01712623          	sw	s7,12(sp)
  58:	02112623          	sw	ra,44(sp)
  5c:	00058b93          	mv	s7,a1
  60:	02812423          	sw	s0,40(sp)
  64:	02912223          	sw	s1,36(sp)
  68:	03212023          	sw	s2,32(sp)
  6c:	01312e23          	sw	s3,28(sp)
  70:	01412c23          	sw	s4,24(sp)
  74:	01512a23          	sw	s5,20(sp)
  78:	01612823          	sw	s6,16(sp)
  7c:	01000593          	li	a1,16
  80:	2175e263          	bltu	a1,s7,0x284
  84:	00050413          	mv	s0,a0
  88:	00070493          	mv	s1,a4
  8c:	00078a13          	mv	s4,a5
  90:	00000a93          	li	s5,0
  94:	1c054c63          	bltz	a0,0x26c
  98:	06100913          	li	s2,97
  9c:	1a061c63          	bnez	a2,0x254
  a0:	00048b13          	mv	s6,s1
  a4:	00900993          	li	s3,9
  a8:	ff690913          	addi	s2,s2,-10
  ac:	000b8593          	mv	a1,s7
  b0:	00040513          	mv	a0,s0
  b4:	2a4000ef          	jal	ra,0x358
  b8:	00050713          	mv	a4,a0
  bc:	0ff77693          	andi	a3,a4,255
  c0:	03068793          	addi	a5,a3,48
  c4:	000b8593          	mv	a1,s7
  c8:	00040513          	mv	a0,s0
  cc:	012686b3          	add	a3,a3,s2
  d0:	16e9e663          	bltu	s3,a4,0x23c
  d4:	00fb0023          	sb	a5,0(s6)
  d8:	238000ef          	jal	ra,0x310
  dc:	00050413          	mv	s0,a0
  e0:	001b0b13          	addi	s6,s6,1
  e4:	fca044e3          	bgtz	a0,0xac
  e8:	409b0733          	sub	a4,s6,s1
  ec:	0f477263          	bgeu	a4,s4,0x1d0
  f0:	fffa0693          	addi	a3,s4,-1
  f4:	416007b3          	neg	a5,s6
  f8:	40e686b3          	sub	a3,a3,a4
  fc:	00500613          	li	a2,5
 100:	40ea0533          	sub	a0,s4,a4
 104:	0037f793          	andi	a5,a5,3
 108:	18d67863          	bgeu	a2,a3,0x298
 10c:	18078063          	beqz	a5,0x28c
 110:	03000693          	li	a3,48
 114:	00db0023          	sb	a3,0(s6)
 118:	00100613          	li	a2,1
 11c:	001b0593          	addi	a1,s6,1
 120:	00170893          	addi	a7,a4,1
 124:	02c78263          	beq	a5,a2,0x148
 128:	00db00a3          	sb	a3,1(s6)
 12c:	00200613          	li	a2,2
 130:	002b0593          	addi	a1,s6,2
 134:	00270893          	addi	a7,a4,2
 138:	00c78863          	beq	a5,a2,0x148
 13c:	003b0593          	addi	a1,s6,3
 140:	00db0123          	sb	a3,2(s6)
 144:	00370893          	addi	a7,a4,3
 148:	40f50833          	sub	a6,a0,a5
 14c:	ffc80693          	addi	a3,a6,-4
 150:	0026d693          	srli	a3,a3,0x2
 154:	30303637          	lui	a2,0x30303
 158:	00168693          	addi	a3,a3,1
 15c:	00fb07b3          	add	a5,s6,a5
 160:	00000713          	li	a4,0
 164:	03060613          	addi	a2,a2,48 # 0x30303030
 168:	00c7a023          	sw	a2,0(a5)
 16c:	00170713          	addi	a4,a4,1
 170:	00478793          	addi	a5,a5,4
 174:	fed76ae3          	bltu	a4,a3,0x168
 178:	00269693          	slli	a3,a3,0x2
 17c:	00d587b3          	add	a5,a1,a3
 180:	00d88733          	add	a4,a7,a3
 184:	04d80463          	beq	a6,a3,0x1cc
 188:	03000693          	li	a3,48
 18c:	00d78023          	sb	a3,0(a5)
 190:	00170613          	addi	a2,a4,1
 194:	03467c63          	bgeu	a2,s4,0x1cc
 198:	00d780a3          	sb	a3,1(a5)
 19c:	00270613          	addi	a2,a4,2
 1a0:	03467663          	bgeu	a2,s4,0x1cc
 1a4:	00d78123          	sb	a3,2(a5)
 1a8:	00370613          	addi	a2,a4,3
 1ac:	03467063          	bgeu	a2,s4,0x1cc
 1b0:	00d781a3          	sb	a3,3(a5)
 1b4:	00470613          	addi	a2,a4,4
 1b8:	01467a63          	bgeu	a2,s4,0x1cc
 1bc:	00d78223          	sb	a3,4(a5)
 1c0:	00570713          	addi	a4,a4,5
 1c4:	01477463          	bgeu	a4,s4,0x1cc
 1c8:	00d782a3          	sb	a3,5(a5)
 1cc:	00ab0b33          	add	s6,s6,a0
 1d0:	080a9663          	bnez	s5,0x25c
 1d4:	409b0533          	sub	a0,s6,s1
 1d8:	000b0023          	sb	zero,0(s6)
 1dc:	00155593          	srli	a1,a0,0x1
 1e0:	02058863          	beqz	a1,0x210
 1e4:	fff50793          	addi	a5,a0,-1
 1e8:	00048713          	mv	a4,s1
 1ec:	00f487b3          	add	a5,s1,a5
 1f0:	00b485b3          	add	a1,s1,a1
 1f4:	0007c603          	lbu	a2,0(a5)
 1f8:	00074683          	lbu	a3,0(a4)
 1fc:	00170713          	addi	a4,a4,1
 200:	fff78793          	addi	a5,a5,-1
 204:	fec70fa3          	sb	a2,-1(a4)
 208:	00d780a3          	sb	a3,1(a5)
 20c:	feb714e3          	bne	a4,a1,0x1f4
 210:	02c12083          	lw	ra,44(sp)
 214:	02812403          	lw	s0,40(sp)
 218:	02412483          	lw	s1,36(sp)
 21c:	02012903          	lw	s2,32(sp)
 220:	01c12983          	lw	s3,28(sp)
 224:	01812a03          	lw	s4,24(sp)
 228:	01412a83          	lw	s5,20(sp)
 22c:	01012b03          	lw	s6,16(sp)
 230:	00c12b83          	lw	s7,12(sp)
 234:	03010113          	addi	sp,sp,48
 238:	00008067          	ret
 23c:	00db0023          	sb	a3,0(s6)
 240:	0d0000ef          	jal	ra,0x310
 244:	00050413          	mv	s0,a0
 248:	001b0b13          	addi	s6,s6,1
 24c:	e6a040e3          	bgtz	a0,0xac
 250:	e99ff06f          	j	0xe8
 254:	04100913          	li	s2,65
 258:	e49ff06f          	j	0xa0
 25c:	02d00793          	li	a5,45
 260:	00fb0023          	sb	a5,0(s6)
 264:	001b0b13          	addi	s6,s6,1
 268:	f6dff06f          	j	0x1d4
 26c:	e20696e3          	bnez	a3,0x98
 270:	40a00433          	neg	s0,a0
 274:	00100a93          	li	s5,1
 278:	06100913          	li	s2,97
 27c:	e20602e3          	beqz	a2,0xa0
 280:	fd5ff06f          	j	0x254
 284:	00000513          	li	a0,0
 288:	f89ff06f          	j	0x210
 28c:	00070893          	mv	a7,a4
 290:	000b0593          	mv	a1,s6
 294:	eb5ff06f          	j	0x148
 298:	000b0793          	mv	a5,s6
 29c:	eedff06f          	j	0x188
 2a0:	00054703          	lbu	a4,0(a0)
 2a4:	04070463          	beqz	a4,0x2ec
 2a8:	00150693          	addi	a3,a0,1
 2ac:	00100613          	li	a2,1
 2b0:	000105b7          	lui	a1,0x10
 2b4:	00e5a223          	sw	a4,4(a1) # 0x10004
 2b8:	0045a783          	lw	a5,4(a1)
 2bc:	00168693          	addi	a3,a3,1
 2c0:	40f707b3          	sub	a5,a4,a5
 2c4:	fff6c703          	lbu	a4,-1(a3)
 2c8:	0017b793          	seqz	a5,a5
 2cc:	00c7f633          	and	a2,a5,a2
 2d0:	00060793          	mv	a5,a2
 2d4:	fe0710e3          	bnez	a4,0x2b4
 2d8:	0005a223          	sw	zero,4(a1)
 2dc:	0045a503          	lw	a0,4(a1)
 2e0:	00153513          	seqz	a0,a0
 2e4:	00f57533          	and	a0,a0,a5
 2e8:	00008067          	ret
 2ec:	000105b7          	lui	a1,0x10
 2f0:	0005a223          	sw	zero,4(a1) # 0x10004
 2f4:	0045a503          	lw	a0,4(a1)
 2f8:	00100793          	li	a5,1
 2fc:	00153513          	seqz	a0,a0
 300:	00f57533          	and	a0,a0,a5
 304:	00008067          	ret
 308:	06054063          	bltz	a0,0x368
 30c:	0605c663          	bltz	a1,0x378
 310:	00058613          	mv	a2,a1
 314:	00050593          	mv	a1,a0
 318:	fff00513          	li	a0,-1
 31c:	02060c63          	beqz	a2,0x354
 320:	00100693          	li	a3,1
 324:	00b67a63          	bgeu	a2,a1,0x338
 328:	00c05863          	blez	a2,0x338
 32c:	00161613          	slli	a2,a2,0x1
 330:	00169693          	slli	a3,a3,0x1
 334:	feb66ae3          	bltu	a2,a1,0x328
 338:	00000513          	li	a0,0
 33c:	00c5e663          	bltu	a1,a2,0x348
 340:	40c585b3          	sub	a1,a1,a2
 344:	00d56533          	or	a0,a0,a3
 348:	0016d693          	srli	a3,a3,0x1
 34c:	00165613          	srli	a2,a2,0x1
 350:	fe0696e3          	bnez	a3,0x33c
 354:	00008067          	ret
 358:	00008293          	mv	t0,ra
 35c:	fb5ff0ef          	jal	ra,0x310
 360:	00058513          	mv	a0,a1
 364:	00028067          	jr	t0
 368:	40a00533          	neg	a0,a0
 36c:	00b04863          	bgtz	a1,0x37c
 370:	40b005b3          	neg	a1,a1
 374:	f9dff06f          	j	0x310
 378:	40b005b3          	neg	a1,a1
 37c:	00008293          	mv	t0,ra
 380:	f91ff0ef          	jal	ra,0x310
 384:	40a00533          	neg	a0,a0
 388:	00028067          	jr	t0
 38c:	00008293          	mv	t0,ra
 390:	0005ca63          	bltz	a1,0x3a4
 394:	00054c63          	bltz	a0,0x3ac
 398:	f79ff0ef          	jal	ra,0x310
 39c:	00058513          	mv	a0,a1
 3a0:	00028067          	jr	t0
 3a4:	40b005b3          	neg	a1,a1
 3a8:	fe0558e3          	bgez	a0,0x398
 3ac:	40a00533          	neg	a0,a0
 3b0:	f61ff0ef          	jal	ra,0x310
 3b4:	40b00533          	neg	a0,a1
 3b8:	00028067          	jr	t0
 3bc:	46c00793          	li	a5,1132
 3c0:	0007a583          	lw	a1,0(a5)
 3c4:	0047a603          	lw	a2,4(a5)
 3c8:	0087a683          	lw	a3,8(a5)
 3cc:	00c7a703          	lw	a4,12(a5)
 3d0:	0107c783          	lbu	a5,16(a5)
 3d4:	fc010113          	addi	sp,sp,-64
 3d8:	01010513          	addi	a0,sp,16
 3dc:	02112e23          	sw	ra,60(sp)
 3e0:	00b12823          	sw	a1,16(sp)
 3e4:	00c12a23          	sw	a2,20(sp)
 3e8:	00d12c23          	sw	a3,24(sp)
 3ec:	00e12e23          	sw	a4,28(sp)
 3f0:	02f10023          	sb	a5,32(sp)
 3f4:	020100a3          	sb	zero,33(sp)
 3f8:	02010123          	sb	zero,34(sp)
 3fc:	020101a3          	sb	zero,35(sp)
 400:	02010223          	sb	zero,36(sp)
 404:	020102a3          	sb	zero,37(sp)
 408:	02010323          	sb	zero,38(sp)
 40c:	020103a3          	sb	zero,39(sp)
 410:	02010423          	sb	zero,40(sp)
 414:	020104a3          	sb	zero,41(sp)
 418:	02010523          	sb	zero,42(sp)
 41c:	020105a3          	sb	zero,43(sp)
 420:	02010623          	sb	zero,44(sp)
 424:	020106a3          	sb	zero,45(sp)
 428:	e79ff0ef          	jal	ra,0x2a0
 42c:	00010537          	lui	a0,0x10
 430:	00410713          	addi	a4,sp,4
 434:	00000793          	li	a5,0
 438:	00000693          	li	a3,0
 43c:	00000613          	li	a2,0
 440:	00a00593          	li	a1,10
 444:	ffc50513          	addi	a0,a0,-4 # 0xfffc
 448:	c09ff0ef          	jal	ra,0x50
 44c:	00410513          	addi	a0,sp,4
 450:	e51ff0ef          	jal	ra,0x2a0
 454:	03c12083          	lw	ra,60(sp)
 458:	00000513          	li	a0,0
 45c:	04010113          	addi	sp,sp,64
 460:	00008067          	ret
 464:	fffc                	sd	a5,248(a5)
 466:	0000                	unimp
 468:	0010                	0x10
 46a:	0000                	unimp
 46c:	6548                	ld	a0,136(a0)
 46e:	6c6c                	ld	a1,216(s0)
 470:	6f57206f          	j	0x73364
 474:	6c72                	ld	s8,280(sp)
 476:	2064                	fld	fs1,192(s0)
 478:	0a20293b          	0xa20293b
	...
