
disassembly.o:     file format elf64-littleriscv


Disassembly of section .text:

0000000000000000 <.text>:
   0:	00010117          	auipc	sp,0x10
   4:	fd010113          	addi	sp,sp,-48 # 0xffd0
   8:	008000ef          	jal	ra,0x10
   c:	0000006f          	j	0xc
  10:	ff010113          	addi	sp,sp,-16
  14:	00112623          	sw	ra,12(sp)
  18:	00812423          	sw	s0,8(sp)
  1c:	01010413          	addi	s0,sp,16
  20:	044000ef          	jal	ra,0x64
  24:	018000ef          	jal	ra,0x3c
  28:	00000013          	nop
  2c:	00c12083          	lw	ra,12(sp)
  30:	00812403          	lw	s0,8(sp)
  34:	01010113          	addi	sp,sp,16
  38:	00008067          	ret
  3c:	ff010113          	addi	sp,sp,-16
  40:	00812623          	sw	s0,12(sp)
  44:	01010413          	addi	s0,sp,16
  48:	0000006f          	j	0x48
  4c:	000107b7          	lui	a5,0x10
  50:	fea7ae23          	sw	a0,-4(a5) # 0xfffc
  54:	ffc7a783          	lw	a5,-4(a5)
  58:	40a78533          	sub	a0,a5,a0
  5c:	00153513          	seqz	a0,a0
  60:	00008067          	ret
  64:	fd010113          	addi	sp,sp,-48
  68:	02112623          	sw	ra,44(sp)
  6c:	02812423          	sw	s0,40(sp)
  70:	02912223          	sw	s1,36(sp)
  74:	03212023          	sw	s2,32(sp)
  78:	01312e23          	sw	s3,28(sp)
  7c:	000104b7          	lui	s1,0x10
  80:	ff048493          	addi	s1,s1,-16 # 0xfff0
  84:	00000993          	li	s3,0
  88:	0c04c463          	bltz	s1,0x150
  8c:	00410413          	addi	s0,sp,4
  90:	00040913          	mv	s2,s0
  94:	00140413          	addi	s0,s0,1
  98:	00a00593          	li	a1,10
  9c:	00048513          	mv	a0,s1
  a0:	10c000ef          	jal	ra,0x1ac
  a4:	03050513          	addi	a0,a0,48
  a8:	fea40fa3          	sb	a0,-1(s0)
  ac:	00a00593          	li	a1,10
  b0:	00048513          	mv	a0,s1
  b4:	0b0000ef          	jal	ra,0x164
  b8:	00050493          	mv	s1,a0
  bc:	fca04ae3          	bgtz	a0,0x90
  c0:	00098863          	beqz	s3,0xd0
  c4:	02d00793          	li	a5,45
  c8:	00f40023          	sb	a5,0(s0)
  cc:	00290413          	addi	s0,s2,2
  d0:	00040023          	sb	zero,0(s0)
  d4:	00410693          	addi	a3,sp,4
  d8:	40d406b3          	sub	a3,s0,a3
  dc:	0016d513          	srli	a0,a3,0x1
  e0:	00100613          	li	a2,1
  e4:	00040793          	mv	a5,s0
  e8:	00410713          	addi	a4,sp,4
  ec:	00e685b3          	add	a1,a3,a4
  f0:	02d67263          	bgeu	a2,a3,0x114
  f4:	00074683          	lbu	a3,0(a4)
  f8:	fff7c603          	lbu	a2,-1(a5)
  fc:	00c70023          	sb	a2,0(a4)
 100:	fed78fa3          	sb	a3,-1(a5)
 104:	00170713          	addi	a4,a4,1
 108:	fff78793          	addi	a5,a5,-1
 10c:	40f586b3          	sub	a3,a1,a5
 110:	fea6e2e3          	bltu	a3,a0,0xf4
 114:	00414503          	lbu	a0,4(sp)
 118:	00510413          	addi	s0,sp,5
 11c:	00050a63          	beqz	a0,0x130
 120:	f2dff0ef          	jal	ra,0x4c
 124:	00140413          	addi	s0,s0,1
 128:	fff44503          	lbu	a0,-1(s0)
 12c:	fe051ae3          	bnez	a0,0x120
 130:	00000513          	li	a0,0
 134:	02c12083          	lw	ra,44(sp)
 138:	02812403          	lw	s0,40(sp)
 13c:	02412483          	lw	s1,36(sp)
 140:	02012903          	lw	s2,32(sp)
 144:	01c12983          	lw	s3,28(sp)
 148:	03010113          	addi	sp,sp,48
 14c:	00008067          	ret
 150:	409004b3          	neg	s1,s1
 154:	00100993          	li	s3,1
 158:	f35ff06f          	j	0x8c
 15c:	06054063          	bltz	a0,0x1bc
 160:	0605c663          	bltz	a1,0x1cc
 164:	00058613          	mv	a2,a1
 168:	00050593          	mv	a1,a0
 16c:	fff00513          	li	a0,-1
 170:	02060c63          	beqz	a2,0x1a8
 174:	00100693          	li	a3,1
 178:	00b67a63          	bgeu	a2,a1,0x18c
 17c:	00c05863          	blez	a2,0x18c
 180:	00161613          	slli	a2,a2,0x1
 184:	00169693          	slli	a3,a3,0x1
 188:	feb66ae3          	bltu	a2,a1,0x17c
 18c:	00000513          	li	a0,0
 190:	00c5e663          	bltu	a1,a2,0x19c
 194:	40c585b3          	sub	a1,a1,a2
 198:	00d56533          	or	a0,a0,a3
 19c:	0016d693          	srli	a3,a3,0x1
 1a0:	00165613          	srli	a2,a2,0x1
 1a4:	fe0696e3          	bnez	a3,0x190
 1a8:	00008067          	ret
 1ac:	00008293          	mv	t0,ra
 1b0:	fb5ff0ef          	jal	ra,0x164
 1b4:	00058513          	mv	a0,a1
 1b8:	00028067          	jr	t0
 1bc:	40a00533          	neg	a0,a0
 1c0:	00b04863          	bgtz	a1,0x1d0
 1c4:	40b005b3          	neg	a1,a1
 1c8:	f9dff06f          	j	0x164
 1cc:	40b005b3          	neg	a1,a1
 1d0:	00008293          	mv	t0,ra
 1d4:	f91ff0ef          	jal	ra,0x164
 1d8:	40a00533          	neg	a0,a0
 1dc:	00028067          	jr	t0
 1e0:	00008293          	mv	t0,ra
 1e4:	0005ca63          	bltz	a1,0x1f8
 1e8:	00054c63          	bltz	a0,0x200
 1ec:	f79ff0ef          	jal	ra,0x164
 1f0:	00058513          	mv	a0,a1
 1f4:	00028067          	jr	t0
 1f8:	40b005b3          	neg	a1,a1
 1fc:	fe0558e3          	bgez	a0,0x1ec
 200:	40a00533          	neg	a0,a0
 204:	f61ff0ef          	jal	ra,0x164
 208:	40b00533          	neg	a0,a1
 20c:	00028067          	jr	t0
	...
 2ac:	fff0                	sd	a2,248(a5)
 2ae:	0000                	unimp
 2b0:	0010                	0x10
 2b2:	0000                	unimp
 2b4:	003c                	addi	a5,sp,8
	...
