
exe:     file format elf32-littleriscv


Disassembly of section .text.init:

00000000 <entry>:
   0:	00010117          	auipc	sp,0x10
   4:	fd010113          	addi	sp,sp,-48 # ffd0 <vector+0xfd70>
   8:	008000ef          	jal	ra,10 <textinit>

0000000c <end>:
   c:	0000006f          	j	c <end>

00000010 <textinit>:
  10:	ff010113          	addi	sp,sp,-16
  14:	00112623          	sw	ra,12(sp)
  18:	00812423          	sw	s0,8(sp)
  1c:	01010413          	addi	s0,sp,16
  20:	044000ef          	jal	ra,64 <main>
  24:	018000ef          	jal	ra,3c <_Z6endpgmv>
  28:	00000013          	nop
  2c:	00c12083          	lw	ra,12(sp)
  30:	00812403          	lw	s0,8(sp)
  34:	01010113          	addi	sp,sp,16
  38:	00008067          	ret

0000003c <_Z6endpgmv>:
  3c:	ff010113          	addi	sp,sp,-16
  40:	00812623          	sw	s0,12(sp)
  44:	01010413          	addi	s0,sp,16
  48:	0000006f          	j	48 <_Z6endpgmv+0xc>

Disassembly of section .text:

0000004c <_Z10write_chari>:
  4c:	000107b7          	lui	a5,0x10
  50:	fea7ae23          	sw	a0,-4(a5) # fffc <__sp+0xc>
  54:	ffc7a783          	lw	a5,-4(a5)
  58:	40a78533          	sub	a0,a5,a0
  5c:	00153513          	seqz	a0,a0
  60:	00008067          	ret

00000064 <main>:
  64:	fe010113          	addi	sp,sp,-32
  68:	00112e23          	sw	ra,28(sp)
  6c:	00812c23          	sw	s0,24(sp)
  70:	00912a23          	sw	s1,20(sp)
  74:	01212823          	sw	s2,16(sp)
  78:	00410493          	addi	s1,sp,4
  7c:	06c00413          	li	s0,108
  80:	00710913          	addi	s2,sp,7
  84:	00148493          	addi	s1,s1,1
  88:	00a00593          	li	a1,10
  8c:	00040513          	mv	a0,s0
  90:	0d4000ef          	jal	ra,164 <__umodsi3>
  94:	03050513          	addi	a0,a0,48
  98:	fea48fa3          	sb	a0,-1(s1)
  9c:	00a00593          	li	a1,10
  a0:	00040513          	mv	a0,s0
  a4:	078000ef          	jal	ra,11c <__udivsi3>
  a8:	00050413          	mv	s0,a0
  ac:	fd249ce3          	bne	s1,s2,84 <main+0x20>
  b0:	000103a3          	sb	zero,7(sp)
  b4:	00710793          	addi	a5,sp,7
  b8:	00410713          	addi	a4,sp,4
  bc:	00078593          	mv	a1,a5
  c0:	00074683          	lbu	a3,0(a4)
  c4:	fff7c603          	lbu	a2,-1(a5)
  c8:	00c70023          	sb	a2,0(a4)
  cc:	fed78fa3          	sb	a3,-1(a5)
  d0:	00170713          	addi	a4,a4,1
  d4:	fff78793          	addi	a5,a5,-1
  d8:	feb784e3          	beq	a5,a1,c0 <main+0x5c>
  dc:	00414503          	lbu	a0,4(sp)
  e0:	00510413          	addi	s0,sp,5
  e4:	00050a63          	beqz	a0,f8 <main+0x94>
  e8:	f65ff0ef          	jal	ra,4c <_Z10write_chari>
  ec:	00140413          	addi	s0,s0,1
  f0:	fff44503          	lbu	a0,-1(s0)
  f4:	fe051ae3          	bnez	a0,e8 <main+0x84>
  f8:	00000513          	li	a0,0
  fc:	01c12083          	lw	ra,28(sp)
 100:	01812403          	lw	s0,24(sp)
 104:	01412483          	lw	s1,20(sp)
 108:	01012903          	lw	s2,16(sp)
 10c:	02010113          	addi	sp,sp,32
 110:	00008067          	ret

00000114 <__divsi3>:
 114:	06054063          	bltz	a0,174 <__umodsi3+0x10>
 118:	0605c663          	bltz	a1,184 <__umodsi3+0x20>

0000011c <__udivsi3>:
 11c:	00058613          	mv	a2,a1
 120:	00050593          	mv	a1,a0
 124:	fff00513          	li	a0,-1
 128:	02060c63          	beqz	a2,160 <__udivsi3+0x44>
 12c:	00100693          	li	a3,1
 130:	00b67a63          	bgeu	a2,a1,144 <__udivsi3+0x28>
 134:	00c05863          	blez	a2,144 <__udivsi3+0x28>
 138:	00161613          	slli	a2,a2,0x1
 13c:	00169693          	slli	a3,a3,0x1
 140:	feb66ae3          	bltu	a2,a1,134 <__udivsi3+0x18>
 144:	00000513          	li	a0,0
 148:	00c5e663          	bltu	a1,a2,154 <__udivsi3+0x38>
 14c:	40c585b3          	sub	a1,a1,a2
 150:	00d56533          	or	a0,a0,a3
 154:	0016d693          	srli	a3,a3,0x1
 158:	00165613          	srli	a2,a2,0x1
 15c:	fe0696e3          	bnez	a3,148 <__udivsi3+0x2c>
 160:	00008067          	ret

00000164 <__umodsi3>:
 164:	00008293          	mv	t0,ra
 168:	fb5ff0ef          	jal	ra,11c <__udivsi3>
 16c:	00058513          	mv	a0,a1
 170:	00028067          	jr	t0
 174:	40a00533          	neg	a0,a0
 178:	00b04863          	bgtz	a1,188 <__umodsi3+0x24>
 17c:	40b005b3          	neg	a1,a1
 180:	f9dff06f          	j	11c <__udivsi3>
 184:	40b005b3          	neg	a1,a1
 188:	00008293          	mv	t0,ra
 18c:	f91ff0ef          	jal	ra,11c <__udivsi3>
 190:	40a00533          	neg	a0,a0
 194:	00028067          	jr	t0

00000198 <__modsi3>:
 198:	00008293          	mv	t0,ra
 19c:	0005ca63          	bltz	a1,1b0 <__modsi3+0x18>
 1a0:	00054c63          	bltz	a0,1b8 <__modsi3+0x20>
 1a4:	f79ff0ef          	jal	ra,11c <__udivsi3>
 1a8:	00058513          	mv	a0,a1
 1ac:	00028067          	jr	t0
 1b0:	40b005b3          	neg	a1,a1
 1b4:	fe0558e3          	bgez	a0,1a4 <__modsi3+0xc>
 1b8:	40a00533          	neg	a0,a0
 1bc:	f61ff0ef          	jal	ra,11c <__udivsi3>
 1c0:	40b00533          	neg	a0,a1
 1c4:	00028067          	jr	t0
