
exe:     file format elf32-littleriscv


Disassembly of section .text.init:

00000000 <entry>:
   0:	00010117          	auipc	sp,0x10
   4:	fff10113          	addi	sp,sp,-1 # ffff <__sp>
   8:	008000ef          	jal	10 <textinit>

0000000c <end>:
   c:	0000006f          	j	c <end>

00000010 <textinit>:
  10:	ff010113          	addi	sp,sp,-16
  14:	00112623          	sw	ra,12(sp)
  18:	00812423          	sw	s0,8(sp)
  1c:	01010413          	addi	s0,sp,16
  20:	02c000ef          	jal	4c <main>
  24:	00c12083          	lw	ra,12(sp)
  28:	00812403          	lw	s0,8(sp)
  2c:	01010113          	addi	sp,sp,16
  30:	00008067          	ret

Disassembly of section .text:

00000034 <_Z10write_chari>:
  34:	000107b7          	lui	a5,0x10
  38:	00a7a023          	sw	a0,0(a5) # 10000 <__sp+0x1>
  3c:	0007a783          	lw	a5,0(a5)
  40:	40f50533          	sub	a0,a0,a5
  44:	00153513          	seqz	a0,a0
  48:	00008067          	ret

0000004c <main>:
  4c:	fd010113          	addi	sp,sp,-48
  50:	02112623          	sw	ra,44(sp)
  54:	02812423          	sw	s0,40(sp)
  58:	02912223          	sw	s1,36(sp)
  5c:	03212023          	sw	s2,32(sp)
  60:	01312e23          	sw	s3,28(sp)
  64:	01412c23          	sw	s4,24(sp)
  68:	00010537          	lui	a0,0x10
  6c:	fff50513          	addi	a0,a0,-1 # ffff <__sp>
  70:	00000a13          	li	s4,0
  74:	00055663          	bgez	a0,80 <main+0x34>
  78:	40a00533          	neg	a0,a0
  7c:	00100a13          	li	s4,1
  80:	00410413          	addi	s0,sp,4
  84:	00a00493          	li	s1,10
  88:	00900993          	li	s3,9
  8c:	00050913          	mv	s2,a0
  90:	00048593          	mv	a1,s1
  94:	118000ef          	jal	1ac <__umodsi3>
  98:	00140413          	addi	s0,s0,1
  9c:	00a9c863          	blt	s3,a0,ac <main+0x60>
  a0:	03050793          	addi	a5,a0,48
  a4:	0ff7f793          	andi	a5,a5,255
  a8:	00c0006f          	j	b4 <main+0x68>
  ac:	05750793          	addi	a5,a0,87
  b0:	0ff7f793          	andi	a5,a5,255
  b4:	fef40fa3          	sb	a5,-1(s0)
  b8:	00090513          	mv	a0,s2
  bc:	00048593          	mv	a1,s1
  c0:	0a4000ef          	jal	164 <__udivsi3>
  c4:	fca044e3          	bgtz	a0,8c <main+0x40>
  c8:	00040793          	mv	a5,s0
  cc:	000a0863          	beqz	s4,dc <main+0x90>
  d0:	00140413          	addi	s0,s0,1
  d4:	02d00713          	li	a4,45
  d8:	00e78023          	sb	a4,0(a5)
  dc:	00040023          	sb	zero,0(s0)
  e0:	00410793          	addi	a5,sp,4
  e4:	40f40433          	sub	s0,s0,a5
  e8:	00145593          	srli	a1,s0,0x1
  ec:	02058863          	beqz	a1,11c <main+0xd0>
  f0:	00078713          	mv	a4,a5
  f4:	fff40413          	addi	s0,s0,-1
  f8:	008787b3          	add	a5,a5,s0
  fc:	00b705b3          	add	a1,a4,a1
 100:	00074683          	lbu	a3,0(a4)
 104:	0007c603          	lbu	a2,0(a5)
 108:	00c70023          	sb	a2,0(a4)
 10c:	00d78023          	sb	a3,0(a5)
 110:	00170713          	addi	a4,a4,1
 114:	fff78793          	addi	a5,a5,-1
 118:	feb714e3          	bne	a4,a1,100 <main+0xb4>
 11c:	00414503          	lbu	a0,4(sp)
 120:	00050c63          	beqz	a0,138 <main+0xec>
 124:	00510413          	addi	s0,sp,5
 128:	f0dff0ef          	jal	34 <_Z10write_chari>
 12c:	00140413          	addi	s0,s0,1
 130:	fff44503          	lbu	a0,-1(s0)
 134:	fe051ae3          	bnez	a0,128 <main+0xdc>
 138:	00000513          	li	a0,0
 13c:	02c12083          	lw	ra,44(sp)
 140:	02812403          	lw	s0,40(sp)
 144:	02412483          	lw	s1,36(sp)
 148:	02012903          	lw	s2,32(sp)
 14c:	01c12983          	lw	s3,28(sp)
 150:	01812a03          	lw	s4,24(sp)
 154:	03010113          	addi	sp,sp,48
 158:	00008067          	ret

0000015c <__divsi3>:
 15c:	06054063          	bltz	a0,1bc <__umodsi3+0x10>
 160:	0605c663          	bltz	a1,1cc <__umodsi3+0x20>

00000164 <__udivsi3>:
 164:	00058613          	mv	a2,a1
 168:	00050593          	mv	a1,a0
 16c:	fff00513          	li	a0,-1
 170:	02060c63          	beqz	a2,1a8 <__udivsi3+0x44>
 174:	00100693          	li	a3,1
 178:	00b67a63          	bleu	a1,a2,18c <__udivsi3+0x28>
 17c:	00c05863          	blez	a2,18c <__udivsi3+0x28>
 180:	00161613          	slli	a2,a2,0x1
 184:	00169693          	slli	a3,a3,0x1
 188:	feb66ae3          	bltu	a2,a1,17c <__udivsi3+0x18>
 18c:	00000513          	li	a0,0
 190:	00c5e663          	bltu	a1,a2,19c <__udivsi3+0x38>
 194:	40c585b3          	sub	a1,a1,a2
 198:	00d56533          	or	a0,a0,a3
 19c:	0016d693          	srli	a3,a3,0x1
 1a0:	00165613          	srli	a2,a2,0x1
 1a4:	fe0696e3          	bnez	a3,190 <__udivsi3+0x2c>
 1a8:	00008067          	ret

000001ac <__umodsi3>:
 1ac:	00008293          	mv	t0,ra
 1b0:	fb5ff0ef          	jal	164 <__udivsi3>
 1b4:	00058513          	mv	a0,a1
 1b8:	00028067          	jr	t0
 1bc:	40a00533          	neg	a0,a0
 1c0:	0005d863          	bgez	a1,1d0 <__umodsi3+0x24>
 1c4:	40b005b3          	neg	a1,a1
 1c8:	f95ff06f          	j	15c <__divsi3>
 1cc:	40b005b3          	neg	a1,a1
 1d0:	00008293          	mv	t0,ra
 1d4:	f89ff0ef          	jal	15c <__divsi3>
 1d8:	40a00533          	neg	a0,a0
 1dc:	00028067          	jr	t0

000001e0 <__modsi3>:
 1e0:	00008293          	mv	t0,ra
 1e4:	0005ca63          	bltz	a1,1f8 <__modsi3+0x18>
 1e8:	00054c63          	bltz	a0,200 <__modsi3+0x20>
 1ec:	f79ff0ef          	jal	164 <__udivsi3>
 1f0:	00058513          	mv	a0,a1
 1f4:	00028067          	jr	t0
 1f8:	40b005b3          	neg	a1,a1
 1fc:	fe0558e3          	bgez	a0,1ec <__modsi3+0xc>
 200:	40a00533          	neg	a0,a0
 204:	f61ff0ef          	jal	164 <__udivsi3>
 208:	40b00533          	neg	a0,a1
 20c:	00028067          	jr	t0

Disassembly of section .eh_frame:

00000210 <.eh_frame>:
 210:	0010                	0x10
 212:	0000                	unimp
 214:	0000                	unimp
 216:	0000                	unimp
 218:	7a01                	0x7a01
 21a:	0052                	0x52
 21c:	0401                	0x401
 21e:	0101                	0x101
 220:	00020d1b          	sext.w	s10,tp
 224:	001c                	0x1c
 226:	0000                	unimp
 228:	0018                	0x18
 22a:	0000                	unimp
 22c:	fde4                	0xfde4
 22e:	ffff                	0xffff
 230:	0024                	0x24
 232:	0000                	unimp
 234:	4400                	0x4400
 236:	100e                	0x100e
 238:	1148                	0x1148
 23a:	7f01                	0x7f01
 23c:	0811                	0x811
 23e:	447e                	0x447e
 240:	080c                	0x80c
 242:	0000                	unimp
 244:	0010                	0x10
 246:	0000                	unimp
 248:	0038                	0x38
 24a:	0000                	unimp
 24c:	fde8                	0xfde8
 24e:	ffff                	0xffff
 250:	0018                	0x18
 252:	0000                	unimp
 254:	0000                	unimp
 256:	0000                	unimp
 258:	0024                	0x24
 25a:	0000                	unimp
 25c:	004c                	0x4c
 25e:	0000                	unimp
 260:	fdec                	0xfdec
 262:	ffff                	0xffff
 264:	0110                	0x110
 266:	0000                	unimp
 268:	4400                	0x4400
 26a:	300e                	0x300e
 26c:	1158                	0x1158
 26e:	7f01                	0x7f01
 270:	0811                	0x811
 272:	117e                	0x117e
 274:	7d09                	0x7d09
 276:	1211                	0x1211
 278:	117c                	0x117c
 27a:	14117b13          	andi	s6,sp,321
 27e:	007a                	0x7a

Disassembly of section .data:

00000280 <vector>:
 280:	ffff                	0xffff
 282:	0000                	unimp
 284:	0010                	0x10
	...

Disassembly of section .comment:

00000000 <.comment>:
   0:	3a434347          	fmsub.d	ft6,ft6,ft4,ft7,rmm
   4:	2820                	0x2820
   6:	29554e47          	fmsub.s	ft8,fa0,fs5,ft5,rmm
   a:	3420                	0x3420
   c:	392e                	0x392e
   e:	322e                	0x322e
	...
