
exe:     file format elf32-littleriscv


Disassembly of section .text.init:

00000000 <entry>:
   0:	00010117          	auipc	sp,0x10
   4:	fd010113          	addi	sp,sp,-48 # ffd0 <vector+0xfd70>
   8:	008000ef          	jal	ra,10 <textinit>

0000000c <end>:
   c:	0000006f          	j	c <end>

00000010 <textinit>:
  10:	ff010113          	addi	sp,sp,-16
  14:	00112623          	sw	ra,12(sp)
  18:	00812423          	sw	s0,8(sp)
  1c:	01010413          	addi	s0,sp,16
  20:	044000ef          	jal	ra,64 <main>
  24:	018000ef          	jal	ra,3c <_Z6endpgmv>
  28:	00000013          	nop
  2c:	00c12083          	lw	ra,12(sp)
  30:	00812403          	lw	s0,8(sp)
  34:	01010113          	addi	sp,sp,16
  38:	00008067          	ret

0000003c <_Z6endpgmv>:
  3c:	ff010113          	addi	sp,sp,-16
  40:	00812623          	sw	s0,12(sp)
  44:	01010413          	addi	s0,sp,16
  48:	0000006f          	j	48 <_Z6endpgmv+0xc>

Disassembly of section .text:

0000004c <_Z10write_chari>:
  4c:	000107b7          	lui	a5,0x10
  50:	fea7ae23          	sw	a0,-4(a5) # fffc <__sp+0xc>
  54:	ffc7a783          	lw	a5,-4(a5)
  58:	40a78533          	sub	a0,a5,a0
  5c:	00153513          	seqz	a0,a0
  60:	00008067          	ret

00000064 <main>:
  64:	fe010113          	addi	sp,sp,-32
  68:	00112e23          	sw	ra,28(sp)
  6c:	00812c23          	sw	s0,24(sp)
  70:	00912a23          	sw	s1,20(sp)
  74:	01212823          	sw	s2,16(sp)
  78:	00410493          	addi	s1,sp,4
  7c:	06c00413          	li	s0,108
  80:	00710913          	addi	s2,sp,7
  84:	00148493          	addi	s1,s1,1
  88:	00a00593          	li	a1,10
  8c:	00040513          	mv	a0,s0
  90:	0d4000ef          	jal	ra,164 <__umodsi3>
  94:	03050513          	addi	a0,a0,48
  98:	fea48fa3          	sb	a0,-1(s1)
  9c:	00a00593          	li	a1,10
  a0:	00040513          	mv	a0,s0
  a4:	078000ef          	jal	ra,11c <__udivsi3>
  a8:	00050413          	mv	s0,a0
  ac:	fd249ce3          	bne	s1,s2,84 <main+0x20>
  b0:	000103a3          	sb	zero,7(sp)
  b4:	00710793          	addi	a5,sp,7
  b8:	00410713          	addi	a4,sp,4
  bc:	00078593          	mv	a1,a5
  c0:	00074683          	lbu	a3,0(a4)
  c4:	fff7c603          	lbu	a2,-1(a5)
  c8:	00c70023          	sb	a2,0(a4)
  cc:	fed78fa3          	sb	a3,-1(a5)
  d0:	00170713          	addi	a4,a4,1
  d4:	fff78793          	addi	a5,a5,-1
  d8:	feb784e3          	beq	a5,a1,c0 <main+0x5c>
  dc:	00414503          	lbu	a0,4(sp)
  e0:	00510413          	addi	s0,sp,5
  e4:	00050a63          	beqz	a0,f8 <main+0x94>
  e8:	f65ff0ef          	jal	ra,4c <_Z10write_chari>
  ec:	00140413          	addi	s0,s0,1
  f0:	fff44503          	lbu	a0,-1(s0)
  f4:	fe051ae3          	bnez	a0,e8 <main+0x84>
  f8:	00000513          	li	a0,0
  fc:	01c12083          	lw	ra,28(sp)
 100:	01812403          	lw	s0,24(sp)
 104:	01412483          	lw	s1,20(sp)
 108:	01012903          	lw	s2,16(sp)
 10c:	02010113          	addi	sp,sp,32
 110:	00008067          	ret

00000114 <__divsi3>:
 114:	06054063          	bltz	a0,174 <__umodsi3+0x10>
 118:	0605c663          	bltz	a1,184 <__umodsi3+0x20>

0000011c <__udivsi3>:
 11c:	00058613          	mv	a2,a1
 120:	00050593          	mv	a1,a0
 124:	fff00513          	li	a0,-1
 128:	02060c63          	beqz	a2,160 <__udivsi3+0x44>
 12c:	00100693          	li	a3,1
 130:	00b67a63          	bgeu	a2,a1,144 <__udivsi3+0x28>
 134:	00c05863          	blez	a2,144 <__udivsi3+0x28>
 138:	00161613          	slli	a2,a2,0x1
 13c:	00169693          	slli	a3,a3,0x1
 140:	feb66ae3          	bltu	a2,a1,134 <__udivsi3+0x18>
 144:	00000513          	li	a0,0
 148:	00c5e663          	bltu	a1,a2,154 <__udivsi3+0x38>
 14c:	40c585b3          	sub	a1,a1,a2
 150:	00d56533          	or	a0,a0,a3
 154:	0016d693          	srli	a3,a3,0x1
 158:	00165613          	srli	a2,a2,0x1
 15c:	fe0696e3          	bnez	a3,148 <__udivsi3+0x2c>
 160:	00008067          	ret

00000164 <__umodsi3>:
 164:	00008293          	mv	t0,ra
 168:	fb5ff0ef          	jal	ra,11c <__udivsi3>
 16c:	00058513          	mv	a0,a1
 170:	00028067          	jr	t0
 174:	40a00533          	neg	a0,a0
 178:	00b04863          	bgtz	a1,188 <__umodsi3+0x24>
 17c:	40b005b3          	neg	a1,a1
 180:	f9dff06f          	j	11c <__udivsi3>
 184:	40b005b3          	neg	a1,a1
 188:	00008293          	mv	t0,ra
 18c:	f91ff0ef          	jal	ra,11c <__udivsi3>
 190:	40a00533          	neg	a0,a0
 194:	00028067          	jr	t0

00000198 <__modsi3>:
 198:	00008293          	mv	t0,ra
 19c:	0005ca63          	bltz	a1,1b0 <__modsi3+0x18>
 1a0:	00054c63          	bltz	a0,1b8 <__modsi3+0x20>
 1a4:	f79ff0ef          	jal	ra,11c <__udivsi3>
 1a8:	00058513          	mv	a0,a1
 1ac:	00028067          	jr	t0
 1b0:	40b005b3          	neg	a1,a1
 1b4:	fe0558e3          	bgez	a0,1a4 <__modsi3+0xc>
 1b8:	40a00533          	neg	a0,a0
 1bc:	f61ff0ef          	jal	ra,11c <__udivsi3>
 1c0:	40b00533          	neg	a0,a1
 1c4:	00028067          	jr	t0

Disassembly of section .eh_frame:

000001c8 <.eh_frame>:
 1c8:	0010                	0x10
 1ca:	0000                	unimp
 1cc:	0000                	unimp
 1ce:	0000                	unimp
 1d0:	00527a03          	0x527a03
 1d4:	7c01                	lui	s8,0xfffe0
 1d6:	0101                	addi	sp,sp,0
 1d8:	00020d1b          	0x20d1b
 1dc:	0018                	0x18
 1de:	0000                	unimp
 1e0:	0018                	0x18
 1e2:	0000                	unimp
 1e4:	fe58                	fsw	fa4,60(a2)
 1e6:	ffff                	0xffff
 1e8:	0010                	0x10
 1ea:	0000                	unimp
 1ec:	4400                	lw	s0,8(s0)
 1ee:	100e                	c.slli	zero,0x23
 1f0:	8844                	0x8844
 1f2:	4401                	li	s0,0
 1f4:	080c                	addi	a1,sp,16
 1f6:	0000                	unimp
 1f8:	0024                	addi	s1,sp,8
 1fa:	0000                	unimp
 1fc:	0034                	addi	a3,sp,8
 1fe:	0000                	unimp
 200:	fe10                	fsw	fa2,56(a2)
 202:	ffff                	0xffff
 204:	002c                	addi	a1,sp,8
 206:	0000                	unimp
 208:	4400                	lw	s0,8(s0)
 20a:	100e                	c.slli	zero,0x23
 20c:	8148                	0x8148
 20e:	8801                	andi	s0,s0,0
 210:	4402                	lw	s0,0(sp)
 212:	080c                	addi	a1,sp,16
 214:	5000                	lw	s0,32(s0)
 216:	44c1                	li	s1,16
 218:	0cc8                	addi	a0,sp,596
 21a:	1002                	c.slli	zero,0x20
 21c:	0e44                	addi	s1,sp,788
 21e:	0000                	unimp
 220:	0010                	0x10
 222:	0000                	unimp
 224:	005c                	addi	a5,sp,4
 226:	0000                	unimp
 228:	fe24                	fsw	fs1,120(a2)
 22a:	ffff                	0xffff
 22c:	0018                	0x18
 22e:	0000                	unimp
 230:	0000                	unimp
 232:	0000                	unimp
 234:	0028                	addi	a0,sp,8
 236:	0000                	unimp
 238:	0070                	addi	a2,sp,12
 23a:	0000                	unimp
 23c:	fe28                	fsw	fa0,120(a2)
 23e:	ffff                	0xffff
 240:	00b0                	addi	a2,sp,72
 242:	0000                	unimp
 244:	4400                	lw	s0,8(s0)
 246:	200e                	fld	ft0,192(sp)
 248:	8150                	0x8150
 24a:	8801                	andi	s0,s0,0
 24c:	8902                	jr	s2
 24e:	02049203          	lh	tp,32(s1)
 252:	c188                	sw	a0,0(a1)
 254:	c844                	sw	s1,20(s0)
 256:	c944                	sw	s1,20(a0)
 258:	d244                	sw	s1,36(a2)
 25a:	0e44                	addi	s1,sp,788
 25c:	0000                	unimp
	...

Disassembly of section .data:

00000260 <vector>:
 260:	fff0                	fsw	fa2,124(a5)
 262:	0000                	unimp
 264:	0010                	0x10
 266:	0000                	unimp
 268:	003c                	addi	a5,sp,8
	...

Disassembly of section .riscv.attributes:

00000000 <.riscv.attributes>:
   0:	1b41                	addi	s6,s6,-16
   2:	0000                	unimp
   4:	7200                	flw	fs0,32(a2)
   6:	7369                	lui	t1,0xffffa
   8:	01007663          	bgeu	zero,a6,14 <textinit+0x4>
   c:	0011                	c.nop	4
   e:	0000                	unimp
  10:	1004                	addi	s1,sp,32
  12:	7205                	lui	tp,0xfffe1
  14:	3376                	fld	ft6,376(sp)
  16:	6932                	flw	fs2,12(sp)
  18:	7032                	flw	ft0,44(sp)
  1a:	0030                	addi	a2,sp,8

Disassembly of section .comment:

00000000 <.comment>:
   0:	3a434347          	fmsub.d	ft6,ft6,ft4,ft7,rmm
   4:	2820                	fld	fs0,80(s0)
   6:	29554e47          	fmsub.s	ft8,fa0,fs5,ft5,rmm
   a:	3120                	fld	fs0,96(a0)
   c:	2e30                	fld	fa2,88(a2)
   e:	2e31                	jal	32a <vector+0xca>
  10:	0030                	addi	a2,sp,8

Disassembly of section .debug_line:

00000000 <.debug_line>:
   0:	016a                	slli	sp,sp,0x1a
   2:	0000                	unimp
   4:	004b0003          	lb	zero,4(s6)
   8:	0000                	unimp
   a:	0101                	addi	sp,sp,0
   c:	000d0efb          	0xd0efb
  10:	0101                	addi	sp,sp,0
  12:	0101                	addi	sp,sp,0
  14:	0000                	unimp
  16:	0100                	addi	s0,sp,128
  18:	0000                	unimp
  1a:	2e01                	jal	32a <vector+0xca>
  1c:	2f2e                	fld	ft10,200(sp)
  1e:	2e2e                	fld	ft8,200(sp)
  20:	2f2e2e2f          	0x2f2e2e2f
  24:	2e2e                	fld	ft8,200(sp)
  26:	2f2e2e2f          	0x2f2e2e2f
  2a:	2f2e                	fld	ft10,200(sp)
  2c:	6972                	flw	fs2,28(sp)
  2e:	2d766373          	csrrsi	t1,0x2d7,12
  32:	2f636367          	0x2f636367
  36:	696c                	flw	fa1,84(a0)
  38:	6762                	flw	fa4,24(sp)
  3a:	632f6363          	bltu	t5,s2,660 <vector+0x400>
  3e:	69666e6f          	jal	t3,666d4 <__sp+0x566e4>
  42:	69722f67          	0x69722f67
  46:	00766373          	csrrsi	t1,0x7,12
  4a:	6400                	flw	fs0,8(s0)
  4c:	7669                	lui	a2,0xffffa
  4e:	532e                	lw	t1,232(sp)
  50:	0100                	addi	s0,sp,128
  52:	0000                	unimp
  54:	0000                	unimp
  56:	0205                	addi	tp,tp,1
  58:	0114                	addi	a3,sp,128
  5a:	0000                	unimp
  5c:	0100c403          	lbu	s0,16(ra)
  60:	04090103          	lb	sp,64(s2)
  64:	0100                	addi	s0,sp,128
  66:	04090403          	lb	s0,64(s2)
  6a:	0100                	addi	s0,sp,128
  6c:	04090103          	lb	sp,64(s2)
  70:	0100                	addi	s0,sp,128
  72:	04090103          	lb	sp,64(s2)
  76:	0100                	addi	s0,sp,128
  78:	04090103          	lb	sp,64(s2)
  7c:	0100                	addi	s0,sp,128
  7e:	04090103          	lb	sp,64(s2)
  82:	0100                	addi	s0,sp,128
  84:	04090103          	lb	sp,64(s2)
  88:	0100                	addi	s0,sp,128
  8a:	04090203          	lb	tp,64(s2)
  8e:	0100                	addi	s0,sp,128
  90:	04090103          	lb	sp,64(s2)
  94:	0100                	addi	s0,sp,128
  96:	04090103          	lb	sp,64(s2)
  9a:	0100                	addi	s0,sp,128
  9c:	04090103          	lb	sp,64(s2)
  a0:	0100                	addi	s0,sp,128
  a2:	04090203          	lb	tp,64(s2)
  a6:	0100                	addi	s0,sp,128
  a8:	04090203          	lb	tp,64(s2)
  ac:	0100                	addi	s0,sp,128
  ae:	04090103          	lb	sp,64(s2)
  b2:	0100                	addi	s0,sp,128
  b4:	04090103          	lb	sp,64(s2)
  b8:	0100                	addi	s0,sp,128
  ba:	04090203          	lb	tp,64(s2)
  be:	0100                	addi	s0,sp,128
  c0:	04090103          	lb	sp,64(s2)
  c4:	0100                	addi	s0,sp,128
  c6:	04090103          	lb	sp,64(s2)
  ca:	0100                	addi	s0,sp,128
  cc:	04090203          	lb	tp,64(s2)
  d0:	0100                	addi	s0,sp,128
  d2:	04090503          	lb	a0,64(s2)
  d6:	0100                	addi	s0,sp,128
  d8:	04090103          	lb	sp,64(s2)
  dc:	0100                	addi	s0,sp,128
  de:	04090103          	lb	sp,64(s2)
  e2:	0100                	addi	s0,sp,128
  e4:	04090103          	lb	sp,64(s2)
  e8:	0100                	addi	s0,sp,128
  ea:	04090503          	lb	a0,64(s2)
  ee:	0100                	addi	s0,sp,128
  f0:	04090203          	lb	tp,64(s2)
  f4:	0100                	addi	s0,sp,128
  f6:	04090203          	lb	tp,64(s2)
  fa:	0100                	addi	s0,sp,128
  fc:	04090103          	lb	sp,64(s2)
 100:	0100                	addi	s0,sp,128
 102:	04090203          	lb	tp,64(s2)
 106:	0100                	addi	s0,sp,128
 108:	04090203          	lb	tp,64(s2)
 10c:	0100                	addi	s0,sp,128
 10e:	04090103          	lb	sp,64(s2)
 112:	0100                	addi	s0,sp,128
 114:	04090103          	lb	sp,64(s2)
 118:	0100                	addi	s0,sp,128
 11a:	04090103          	lb	sp,64(s2)
 11e:	0100                	addi	s0,sp,128
 120:	04090403          	lb	s0,64(s2)
 124:	0100                	addi	s0,sp,128
 126:	04090103          	lb	sp,64(s2)
 12a:	0100                	addi	s0,sp,128
 12c:	04090103          	lb	sp,64(s2)
 130:	0100                	addi	s0,sp,128
 132:	04090203          	lb	tp,64(s2)
 136:	0100                	addi	s0,sp,128
 138:	04090103          	lb	sp,64(s2)
 13c:	0100                	addi	s0,sp,128
 13e:	04090103          	lb	sp,64(s2)
 142:	0100                	addi	s0,sp,128
 144:	04090203          	lb	tp,64(s2)
 148:	0100                	addi	s0,sp,128
 14a:	04090103          	lb	sp,64(s2)
 14e:	0100                	addi	s0,sp,128
 150:	04090203          	lb	tp,64(s2)
 154:	0100                	addi	s0,sp,128
 156:	04090103          	lb	sp,64(s2)
 15a:	0100                	addi	s0,sp,128
 15c:	04090103          	lb	sp,64(s2)
 160:	0100                	addi	s0,sp,128
 162:	04090103          	lb	sp,64(s2)
 166:	0100                	addi	s0,sp,128
 168:	0409                	addi	s0,s0,2
 16a:	0000                	unimp
 16c:	0101                	addi	sp,sp,0

Disassembly of section .debug_info:

00000000 <.debug_info>:
   0:	0022                	c.slli	zero,0x8
   2:	0000                	unimp
   4:	0002                	c.slli64	zero
   6:	0000                	unimp
   8:	0000                	unimp
   a:	0104                	addi	s1,sp,128
   c:	0000                	unimp
   e:	0000                	unimp
  10:	0114                	addi	a3,sp,128
  12:	0000                	unimp
  14:	01c8                	addi	a0,sp,196
  16:	0000                	unimp
  18:	0000                	unimp
  1a:	0000                	unimp
  1c:	0035                	c.nop	13
  1e:	0000                	unimp
  20:	008e                	slli	ra,ra,0x3
  22:	0000                	unimp
  24:	8001                	c.srli64	s0

Disassembly of section .debug_abbrev:

00000000 <.debug_abbrev>:
   0:	1101                	addi	sp,sp,-32
   2:	1000                	addi	s0,sp,32
   4:	1106                	slli	sp,sp,0x21
   6:	1201                	addi	tp,tp,-32
   8:	0301                	addi	t1,t1,0
   a:	1b0e                	slli	s6,s6,0x23
   c:	250e                	fld	fa0,192(sp)
   e:	130e                	slli	t1,t1,0x23
  10:	0005                	c.nop	1
	...

Disassembly of section .debug_aranges:

00000000 <.debug_aranges>:
   0:	001c                	0x1c
   2:	0000                	unimp
   4:	0002                	c.slli64	zero
   6:	0000                	unimp
   8:	0000                	unimp
   a:	0004                	0x4
   c:	0000                	unimp
   e:	0000                	unimp
  10:	0114                	addi	a3,sp,128
  12:	0000                	unimp
  14:	00b4                	addi	a3,sp,72
	...

Disassembly of section .debug_str:

00000000 <.debug_str>:
   0:	2e2e                	fld	ft8,200(sp)
   2:	2f2e2e2f          	0x2f2e2e2f
   6:	2e2e                	fld	ft8,200(sp)
   8:	2f2e2e2f          	0x2f2e2e2f
   c:	2e2e                	fld	ft8,200(sp)
   e:	722f2e2f          	0x722f2e2f
  12:	7369                	lui	t1,0xffffa
  14:	672d7663          	bgeu	s10,s2,680 <vector+0x420>
  18:	6c2f6363          	bltu	t5,sp,6de <vector+0x47e>
  1c:	6269                	lui	tp,0x1a
  1e:	2f636367          	0x2f636367
  22:	666e6f63          	bltu	t3,t1,6a0 <vector+0x440>
  26:	6769                	lui	a4,0x1a
  28:	7369722f          	0x7369722f
  2c:	642f7663          	bgeu	t5,sp,678 <vector+0x418>
  30:	7669                	lui	a2,0xffffa
  32:	532e                	lw	t1,232(sp)
  34:	2f00                	fld	fs0,24(a4)
  36:	6f72                	flw	ft10,28(sp)
  38:	722f746f          	jal	s0,f775a <__sp+0xe776a>
  3c:	7369                	lui	t1,0xffffa
  3e:	672d7663          	bgeu	s10,s2,6aa <vector+0x44a>
  42:	756e                	flw	fa0,248(sp)
  44:	742d                	lui	s0,0xfffeb
  46:	636c6f6f          	jal	t5,c667c <__sp+0xb668c>
  4a:	6168                	flw	fa0,68(a0)
  4c:	6e69                	lui	t3,0x1a
  4e:	6975622f          	0x6975622f
  52:	646c                	flw	fa1,76(s0)
  54:	672d                	lui	a4,0xb
  56:	6e2d6363          	bltu	s10,sp,73c <vector+0x4dc>
  5a:	7765                	lui	a4,0xffff9
  5c:	696c                	flw	fa1,84(a0)
  5e:	2d62                	fld	fs10,24(sp)
  60:	67617473          	csrrci	s0,0x676,2
  64:	3265                	jal	fffffa0c <__sp+0xfffefa1c>
  66:	7369722f          	0x7369722f
  6a:	34367663          	bgeu	a2,gp,3b6 <vector+0x156>
  6e:	752d                	lui	a0,0xfffeb
  70:	6b6e                	flw	fs6,216(sp)
  72:	6f6e                	flw	ft10,216(sp)
  74:	652d6e77          	0x652d6e77
  78:	666c                	flw	fa1,76(a2)
  7a:	3376722f          	0x3376722f
  7e:	6932                	flw	fs2,12(sp)
  80:	706c692f          	0x706c692f
  84:	6c2f3233          	0x6c2f3233
  88:	6269                	lui	tp,0x1a
  8a:	00636367          	0x636367
  8e:	20554e47          	fmsub.s	ft8,fa0,ft5,ft4,rmm
  92:	5341                	li	t1,-16
  94:	3220                	fld	fs0,96(a2)
  96:	332e                	fld	ft6,232(sp)
  98:	0035                	c.nop	13
