
main.o:     file format elf32-littleriscv


Disassembly of section .text:

00000000 <main>:
   0:	fc010113          	addi	sp,sp,-64
   4:	02112e23          	sw	ra,60(sp)
   8:	02812c23          	sw	s0,56(sp)
   c:	04010413          	addi	s0,sp,64
  10:	000007b7          	lui	a5,0x0
  14:	00078793          	mv	a5,a5
  18:	0007a583          	lw	a1,0(a5) # 0 <main>
  1c:	0047a603          	lw	a2,4(a5)
  20:	0087a683          	lw	a3,8(a5)
  24:	00c7a703          	lw	a4,12(a5)
  28:	fcb42823          	sw	a1,-48(s0)
  2c:	fcc42a23          	sw	a2,-44(s0)
  30:	fcd42c23          	sw	a3,-40(s0)
  34:	fce42e23          	sw	a4,-36(s0)
  38:	0107c783          	lbu	a5,16(a5)
  3c:	fef40023          	sb	a5,-32(s0)
  40:	fe0400a3          	sb	zero,-31(s0)
  44:	fe040123          	sb	zero,-30(s0)
  48:	fe0401a3          	sb	zero,-29(s0)
  4c:	fe040223          	sb	zero,-28(s0)
  50:	fe0402a3          	sb	zero,-27(s0)
  54:	fe040323          	sb	zero,-26(s0)
  58:	fe0403a3          	sb	zero,-25(s0)
  5c:	fe040423          	sb	zero,-24(s0)
  60:	fe0404a3          	sb	zero,-23(s0)
  64:	fe040523          	sb	zero,-22(s0)
  68:	fe0405a3          	sb	zero,-21(s0)
  6c:	fe040623          	sb	zero,-20(s0)
  70:	fe0406a3          	sb	zero,-19(s0)
  74:	fd040793          	addi	a5,s0,-48
  78:	00078513          	mv	a0,a5
  7c:	00000097          	auipc	ra,0x0
  80:	000080e7          	jalr	ra # 7c <main+0x7c>
  84:	000007b7          	lui	a5,0x0
  88:	00078513          	mv	a0,a5
  8c:	fc440713          	addi	a4,s0,-60
  90:	00000793          	li	a5,0
  94:	00000693          	li	a3,0
  98:	00000613          	li	a2,0
  9c:	00a00593          	li	a1,10
  a0:	00000097          	auipc	ra,0x0
  a4:	000080e7          	jalr	ra # a0 <main+0xa0>
  a8:	fc440793          	addi	a5,s0,-60
  ac:	00078513          	mv	a0,a5
  b0:	00000097          	auipc	ra,0x0
  b4:	000080e7          	jalr	ra # b0 <main+0xb0>
  b8:	00000793          	li	a5,0
  bc:	00078513          	mv	a0,a5
  c0:	03c12083          	lw	ra,60(sp)
  c4:	03812403          	lw	s0,56(sp)
  c8:	04010113          	addi	sp,sp,64
  cc:	00008067          	ret
