
exe:     file format elf32-littleriscv


Disassembly of section .text:

00000000 <entry>:
   0:	00010117          	auipc	sp,0x10
   4:	ffc10113          	addi	sp,sp,-4 # fffc <__sp>
   8:	008000ef          	jal	10 <textinit>

0000000c <end>:
   c:	0000006f          	j	c <end>

00000010 <textinit>:
  10:	ff010113          	addi	sp,sp,-16
  14:	00112623          	sw	ra,12(sp)
  18:	00812423          	sw	s0,8(sp)
  1c:	01010413          	addi	s0,sp,16
  20:	148000ef          	jal	168 <main>
  24:	00c12083          	lw	ra,12(sp)
  28:	00812403          	lw	s0,8(sp)
  2c:	01010113          	addi	sp,sp,16
  30:	00008067          	ret

00000034 <_Z6verifyiPiS_>:
  34:	fc010113          	addi	sp,sp,-64
  38:	02112e23          	sw	ra,60(sp)
  3c:	02812c23          	sw	s0,56(sp)
  40:	04010413          	addi	s0,sp,64
  44:	fca42623          	sw	a0,-52(s0)
  48:	fcb42423          	sw	a1,-56(s0)
  4c:	fcc42223          	sw	a2,-60(s0)
  50:	00100793          	li	a5,1
  54:	fef42623          	sw	a5,-20(s0)
  58:	fe042423          	sw	zero,-24(s0)
  5c:	0d40006f          	j	130 <_Z6verifyiPiS_+0xfc>
  60:	fe842783          	lw	a5,-24(s0)
  64:	00279793          	slli	a5,a5,0x2
  68:	fc842703          	lw	a4,-56(s0)
  6c:	00f707b3          	add	a5,a4,a5
  70:	0007a703          	lw	a4,0(a5)
  74:	fe842783          	lw	a5,-24(s0)
  78:	00279793          	slli	a5,a5,0x2
  7c:	fc442683          	lw	a3,-60(s0)
  80:	00f687b3          	add	a5,a3,a5
  84:	0007a783          	lw	a5,0(a5)
  88:	40f707b3          	sub	a5,a4,a5
  8c:	0017b793          	seqz	a5,a5
  90:	0ff7f793          	andi	a5,a5,255
  94:	00078713          	mv	a4,a5
  98:	fec42783          	lw	a5,-20(s0)
  9c:	00e7f7b3          	and	a5,a5,a4
  a0:	fef42623          	sw	a5,-20(s0)
  a4:	fe842783          	lw	a5,-24(s0)
  a8:	00279793          	slli	a5,a5,0x2
  ac:	fc842703          	lw	a4,-56(s0)
  b0:	00f707b3          	add	a5,a4,a5
  b4:	0007a703          	lw	a4,0(a5)
  b8:	fe842783          	lw	a5,-24(s0)
  bc:	00279793          	slli	a5,a5,0x2
  c0:	fc442683          	lw	a3,-60(s0)
  c4:	00f687b3          	add	a5,a3,a5
  c8:	0007a783          	lw	a5,0(a5)
  cc:	04f70c63          	beq	a4,a5,124 <_Z6verifyiPiS_+0xf0>
  d0:	fe842783          	lw	a5,-24(s0)
  d4:	00279793          	slli	a5,a5,0x2
  d8:	fc842703          	lw	a4,-56(s0)
  dc:	00f707b3          	add	a5,a4,a5
  e0:	0007a703          	lw	a4,0(a5)
  e4:	fdc40793          	addi	a5,s0,-36
  e8:	00070513          	mv	a0,a4
  ec:	00a00593          	li	a1,10
  f0:	00000613          	li	a2,0
  f4:	00000693          	li	a3,0
  f8:	00078713          	mv	a4,a5
  fc:	00000793          	li	a5,0
 100:	12c000ef          	jal	22c <_Z4itoaijjjPcj>
 104:	74000513          	li	a0,1856
 108:	334000ef          	jal	43c <_Z12write_stringPc>
 10c:	fdc40793          	addi	a5,s0,-36
 110:	00078513          	mv	a0,a5
 114:	328000ef          	jal	43c <_Z12write_stringPc>
 118:	00a00513          	li	a0,10
 11c:	0ac000ef          	jal	1c8 <_Z10write_charc>
 120:	01c0006f          	j	13c <_Z6verifyiPiS_+0x108>
 124:	fe842783          	lw	a5,-24(s0)
 128:	00178793          	addi	a5,a5,1
 12c:	fef42423          	sw	a5,-24(s0)
 130:	fe842703          	lw	a4,-24(s0)
 134:	fcc42783          	lw	a5,-52(s0)
 138:	f2f744e3          	blt	a4,a5,60 <_Z6verifyiPiS_+0x2c>
 13c:	fec42703          	lw	a4,-20(s0)
 140:	00100793          	li	a5,1
 144:	00f71663          	bne	a4,a5,150 <_Z6verifyiPiS_+0x11c>
 148:	74c00513          	li	a0,1868
 14c:	2f0000ef          	jal	43c <_Z12write_stringPc>
 150:	fec42783          	lw	a5,-20(s0)
 154:	00078513          	mv	a0,a5
 158:	03c12083          	lw	ra,60(sp)
 15c:	03812403          	lw	s0,56(sp)
 160:	04010113          	addi	sp,sp,64
 164:	00008067          	ret

00000168 <main>:
 168:	9a010113          	addi	sp,sp,-1632
 16c:	64112e23          	sw	ra,1628(sp)
 170:	64812c23          	sw	s0,1624(sp)
 174:	66010413          	addi	s0,sp,1632
 178:	9aa42623          	sw	a0,-1620(s0)
 17c:	9ab42423          	sw	a1,-1624(s0)
 180:	9b040713          	addi	a4,s0,-1616
 184:	19000513          	li	a0,400
 188:	000017b7          	lui	a5,0x1
 18c:	84078593          	addi	a1,a5,-1984 # 840 <input_data>
 190:	00070613          	mv	a2,a4
 194:	344000ef          	jal	4d8 <_Z6medianiPiS_>
 198:	9b040793          	addi	a5,s0,-1616
 19c:	19000513          	li	a0,400
 1a0:	00078593          	mv	a1,a5
 1a4:	000017b7          	lui	a5,0x1
 1a8:	e8078613          	addi	a2,a5,-384 # e80 <verify_data>
 1ac:	e89ff0ef          	jal	34 <_Z6verifyiPiS_>
 1b0:	00050793          	mv	a5,a0
 1b4:	00078513          	mv	a0,a5
 1b8:	65c12083          	lw	ra,1628(sp)
 1bc:	65812403          	lw	s0,1624(sp)
 1c0:	66010113          	addi	sp,sp,1632
 1c4:	00008067          	ret

000001c8 <_Z10write_charc>:
 1c8:	fd010113          	addi	sp,sp,-48
 1cc:	02812623          	sw	s0,44(sp)
 1d0:	03010413          	addi	s0,sp,48
 1d4:	00050793          	mv	a5,a0
 1d8:	fcf40fa3          	sb	a5,-33(s0)
 1dc:	000107b7          	lui	a5,0x10
 1e0:	00478793          	addi	a5,a5,4 # 10004 <__console_addr>
 1e4:	fef42623          	sw	a5,-20(s0)
 1e8:	fdf44703          	lbu	a4,-33(s0)
 1ec:	fec42783          	lw	a5,-20(s0)
 1f0:	00e7a023          	sw	a4,0(a5)
 1f4:	fec42783          	lw	a5,-20(s0)
 1f8:	0007a703          	lw	a4,0(a5)
 1fc:	fdf44783          	lbu	a5,-33(s0)
 200:	40f707b3          	sub	a5,a4,a5
 204:	0017b793          	seqz	a5,a5
 208:	0ff7f793          	andi	a5,a5,255
 20c:	00078663          	beqz	a5,218 <_Z10write_charc+0x50>
 210:	00100793          	li	a5,1
 214:	0080006f          	j	21c <_Z10write_charc+0x54>
 218:	00000793          	li	a5,0
 21c:	00078513          	mv	a0,a5
 220:	02c12403          	lw	s0,44(sp)
 224:	03010113          	addi	sp,sp,48
 228:	00008067          	ret

0000022c <_Z4itoaijjjPcj>:
 22c:	fb010113          	addi	sp,sp,-80
 230:	04112623          	sw	ra,76(sp)
 234:	04812423          	sw	s0,72(sp)
 238:	05010413          	addi	s0,sp,80
 23c:	fca42623          	sw	a0,-52(s0)
 240:	fcb42423          	sw	a1,-56(s0)
 244:	fcc42223          	sw	a2,-60(s0)
 248:	fcd42023          	sw	a3,-64(s0)
 24c:	fae42e23          	sw	a4,-68(s0)
 250:	faf42c23          	sw	a5,-72(s0)
 254:	fbc42783          	lw	a5,-68(s0)
 258:	fef42623          	sw	a5,-20(s0)
 25c:	fe042423          	sw	zero,-24(s0)
 260:	fc842703          	lw	a4,-56(s0)
 264:	01000793          	li	a5,16
 268:	00e7f663          	bleu	a4,a5,274 <_Z4itoaijjjPcj+0x48>
 26c:	00000793          	li	a5,0
 270:	1b80006f          	j	428 <_Z4itoaijjjPcj+0x1fc>
 274:	fcc42783          	lw	a5,-52(s0)
 278:	0207d063          	bgez	a5,298 <_Z4itoaijjjPcj+0x6c>
 27c:	fc042783          	lw	a5,-64(s0)
 280:	00079c63          	bnez	a5,298 <_Z4itoaijjjPcj+0x6c>
 284:	00100793          	li	a5,1
 288:	fef42423          	sw	a5,-24(s0)
 28c:	fcc42783          	lw	a5,-52(s0)
 290:	40f007b3          	neg	a5,a5
 294:	fcf42623          	sw	a5,-52(s0)
 298:	fcc42783          	lw	a5,-52(s0)
 29c:	00078513          	mv	a0,a5
 2a0:	fc842583          	lw	a1,-56(s0)
 2a4:	430000ef          	jal	6d4 <__umodsi3>
 2a8:	00050793          	mv	a5,a0
 2ac:	fef42023          	sw	a5,-32(s0)
 2b0:	fec42783          	lw	a5,-20(s0)
 2b4:	00178713          	addi	a4,a5,1
 2b8:	fee42623          	sw	a4,-20(s0)
 2bc:	fe042683          	lw	a3,-32(s0)
 2c0:	00900713          	li	a4,9
 2c4:	00d74c63          	blt	a4,a3,2dc <_Z4itoaijjjPcj+0xb0>
 2c8:	fe042703          	lw	a4,-32(s0)
 2cc:	0ff77713          	andi	a4,a4,255
 2d0:	03070713          	addi	a4,a4,48
 2d4:	0ff77713          	andi	a4,a4,255
 2d8:	0300006f          	j	308 <_Z4itoaijjjPcj+0xdc>
 2dc:	fc442703          	lw	a4,-60(s0)
 2e0:	00070663          	beqz	a4,2ec <_Z4itoaijjjPcj+0xc0>
 2e4:	04100713          	li	a4,65
 2e8:	0080006f          	j	2f0 <_Z4itoaijjjPcj+0xc4>
 2ec:	06100713          	li	a4,97
 2f0:	fe042683          	lw	a3,-32(s0)
 2f4:	0ff6f693          	andi	a3,a3,255
 2f8:	00d70733          	add	a4,a4,a3
 2fc:	0ff77713          	andi	a4,a4,255
 300:	ff670713          	addi	a4,a4,-10
 304:	0ff77713          	andi	a4,a4,255
 308:	00e78023          	sb	a4,0(a5)
 30c:	fcc42783          	lw	a5,-52(s0)
 310:	00078513          	mv	a0,a5
 314:	fc842583          	lw	a1,-56(s0)
 318:	374000ef          	jal	68c <__udivsi3>
 31c:	00050793          	mv	a5,a0
 320:	fcf42623          	sw	a5,-52(s0)
 324:	fcc42783          	lw	a5,-52(s0)
 328:	f6f048e3          	bgtz	a5,298 <_Z4itoaijjjPcj+0x6c>
 32c:	fec42703          	lw	a4,-20(s0)
 330:	fbc42783          	lw	a5,-68(s0)
 334:	40f707b3          	sub	a5,a4,a5
 338:	fef42223          	sw	a5,-28(s0)
 33c:	0240006f          	j	360 <_Z4itoaijjjPcj+0x134>
 340:	fec42783          	lw	a5,-20(s0)
 344:	00178713          	addi	a4,a5,1
 348:	fee42623          	sw	a4,-20(s0)
 34c:	03000713          	li	a4,48
 350:	00e78023          	sb	a4,0(a5)
 354:	fe442783          	lw	a5,-28(s0)
 358:	00178793          	addi	a5,a5,1
 35c:	fef42223          	sw	a5,-28(s0)
 360:	fe442703          	lw	a4,-28(s0)
 364:	fb842783          	lw	a5,-72(s0)
 368:	fcf76ce3          	bltu	a4,a5,340 <_Z4itoaijjjPcj+0x114>
 36c:	fe842783          	lw	a5,-24(s0)
 370:	00078c63          	beqz	a5,388 <_Z4itoaijjjPcj+0x15c>
 374:	fec42783          	lw	a5,-20(s0)
 378:	00178713          	addi	a4,a5,1
 37c:	fee42623          	sw	a4,-20(s0)
 380:	02d00713          	li	a4,45
 384:	00e78023          	sb	a4,0(a5)
 388:	fec42783          	lw	a5,-20(s0)
 38c:	00078023          	sb	zero,0(a5)
 390:	fec42703          	lw	a4,-20(s0)
 394:	fbc42783          	lw	a5,-68(s0)
 398:	40f707b3          	sub	a5,a4,a5
 39c:	fcf42e23          	sw	a5,-36(s0)
 3a0:	fe042223          	sw	zero,-28(s0)
 3a4:	0700006f          	j	414 <_Z4itoaijjjPcj+0x1e8>
 3a8:	fbc42703          	lw	a4,-68(s0)
 3ac:	fe442783          	lw	a5,-28(s0)
 3b0:	00f707b3          	add	a5,a4,a5
 3b4:	0007c783          	lbu	a5,0(a5)
 3b8:	fcf40da3          	sb	a5,-37(s0)
 3bc:	fbc42703          	lw	a4,-68(s0)
 3c0:	fe442783          	lw	a5,-28(s0)
 3c4:	00f707b3          	add	a5,a4,a5
 3c8:	fdc42683          	lw	a3,-36(s0)
 3cc:	fe442703          	lw	a4,-28(s0)
 3d0:	40e68733          	sub	a4,a3,a4
 3d4:	fff70713          	addi	a4,a4,-1
 3d8:	fbc42683          	lw	a3,-68(s0)
 3dc:	00e68733          	add	a4,a3,a4
 3e0:	00074703          	lbu	a4,0(a4)
 3e4:	00e78023          	sb	a4,0(a5)
 3e8:	fdc42703          	lw	a4,-36(s0)
 3ec:	fe442783          	lw	a5,-28(s0)
 3f0:	40f707b3          	sub	a5,a4,a5
 3f4:	fff78793          	addi	a5,a5,-1
 3f8:	fbc42703          	lw	a4,-68(s0)
 3fc:	00f707b3          	add	a5,a4,a5
 400:	fdb44703          	lbu	a4,-37(s0)
 404:	00e78023          	sb	a4,0(a5)
 408:	fe442783          	lw	a5,-28(s0)
 40c:	00178793          	addi	a5,a5,1
 410:	fef42223          	sw	a5,-28(s0)
 414:	fdc42783          	lw	a5,-36(s0)
 418:	0017d713          	srli	a4,a5,0x1
 41c:	fe442783          	lw	a5,-28(s0)
 420:	f8e7e4e3          	bltu	a5,a4,3a8 <_Z4itoaijjjPcj+0x17c>
 424:	fdc42783          	lw	a5,-36(s0)
 428:	00078513          	mv	a0,a5
 42c:	04c12083          	lw	ra,76(sp)
 430:	04812403          	lw	s0,72(sp)
 434:	05010113          	addi	sp,sp,80
 438:	00008067          	ret

0000043c <_Z12write_stringPc>:
 43c:	fd010113          	addi	sp,sp,-48
 440:	02112623          	sw	ra,44(sp)
 444:	02812423          	sw	s0,40(sp)
 448:	03010413          	addi	s0,sp,48
 44c:	fca42e23          	sw	a0,-36(s0)
 450:	fe042623          	sw	zero,-20(s0)
 454:	00100793          	li	a5,1
 458:	fef42423          	sw	a5,-24(s0)
 45c:	0380006f          	j	494 <_Z12write_stringPc+0x58>
 460:	fec42783          	lw	a5,-20(s0)
 464:	fdc42703          	lw	a4,-36(s0)
 468:	00f707b3          	add	a5,a4,a5
 46c:	0007c783          	lbu	a5,0(a5)
 470:	00078513          	mv	a0,a5
 474:	d55ff0ef          	jal	1c8 <_Z10write_charc>
 478:	00050713          	mv	a4,a0
 47c:	fe842783          	lw	a5,-24(s0)
 480:	00e7f7b3          	and	a5,a5,a4
 484:	fef42423          	sw	a5,-24(s0)
 488:	fec42783          	lw	a5,-20(s0)
 48c:	00178793          	addi	a5,a5,1
 490:	fef42623          	sw	a5,-20(s0)
 494:	fec42783          	lw	a5,-20(s0)
 498:	fdc42703          	lw	a4,-36(s0)
 49c:	00f707b3          	add	a5,a4,a5
 4a0:	0007c783          	lbu	a5,0(a5)
 4a4:	fa079ee3          	bnez	a5,460 <_Z12write_stringPc+0x24>
 4a8:	00000513          	li	a0,0
 4ac:	d1dff0ef          	jal	1c8 <_Z10write_charc>
 4b0:	00050713          	mv	a4,a0
 4b4:	fe842783          	lw	a5,-24(s0)
 4b8:	00e7f7b3          	and	a5,a5,a4
 4bc:	fef42423          	sw	a5,-24(s0)
 4c0:	fe842783          	lw	a5,-24(s0)
 4c4:	00078513          	mv	a0,a5
 4c8:	02c12083          	lw	ra,44(sp)
 4cc:	02812403          	lw	s0,40(sp)
 4d0:	03010113          	addi	sp,sp,48
 4d4:	00008067          	ret

000004d8 <_Z6medianiPiS_>:
 4d8:	fd010113          	addi	sp,sp,-48
 4dc:	02812623          	sw	s0,44(sp)
 4e0:	03010413          	addi	s0,sp,48
 4e4:	fca42e23          	sw	a0,-36(s0)
 4e8:	fcb42c23          	sw	a1,-40(s0)
 4ec:	fcc42a23          	sw	a2,-44(s0)
 4f0:	fd442783          	lw	a5,-44(s0)
 4f4:	0007a023          	sw	zero,0(a5)
 4f8:	fdc42703          	lw	a4,-36(s0)
 4fc:	400007b7          	lui	a5,0x40000
 500:	fff78793          	addi	a5,a5,-1 # 3fffffff <__console_addr+0x3ffefffb>
 504:	00f707b3          	add	a5,a4,a5
 508:	00279793          	slli	a5,a5,0x2
 50c:	fd442703          	lw	a4,-44(s0)
 510:	00f707b3          	add	a5,a4,a5
 514:	0007a023          	sw	zero,0(a5)
 518:	00100793          	li	a5,1
 51c:	fef42623          	sw	a5,-20(s0)
 520:	1480006f          	j	668 <_Z6medianiPiS_+0x190>
 524:	fec42703          	lw	a4,-20(s0)
 528:	400007b7          	lui	a5,0x40000
 52c:	fff78793          	addi	a5,a5,-1 # 3fffffff <__console_addr+0x3ffefffb>
 530:	00f707b3          	add	a5,a4,a5
 534:	00279793          	slli	a5,a5,0x2
 538:	fd842703          	lw	a4,-40(s0)
 53c:	00f707b3          	add	a5,a4,a5
 540:	0007a783          	lw	a5,0(a5)
 544:	fef42423          	sw	a5,-24(s0)
 548:	fec42783          	lw	a5,-20(s0)
 54c:	00279793          	slli	a5,a5,0x2
 550:	fd842703          	lw	a4,-40(s0)
 554:	00f707b3          	add	a5,a4,a5
 558:	0007a783          	lw	a5,0(a5)
 55c:	fef42223          	sw	a5,-28(s0)
 560:	fec42783          	lw	a5,-20(s0)
 564:	00178793          	addi	a5,a5,1
 568:	00279793          	slli	a5,a5,0x2
 56c:	fd842703          	lw	a4,-40(s0)
 570:	00f707b3          	add	a5,a4,a5
 574:	0007a783          	lw	a5,0(a5)
 578:	fef42023          	sw	a5,-32(s0)
 57c:	fe842703          	lw	a4,-24(s0)
 580:	fe442783          	lw	a5,-28(s0)
 584:	06f75863          	ble	a5,a4,5f4 <_Z6medianiPiS_+0x11c>
 588:	fe442703          	lw	a4,-28(s0)
 58c:	fe042783          	lw	a5,-32(s0)
 590:	02f75063          	ble	a5,a4,5b0 <_Z6medianiPiS_+0xd8>
 594:	fec42783          	lw	a5,-20(s0)
 598:	00279793          	slli	a5,a5,0x2
 59c:	fd442703          	lw	a4,-44(s0)
 5a0:	00f707b3          	add	a5,a4,a5
 5a4:	fe442703          	lw	a4,-28(s0)
 5a8:	00e7a023          	sw	a4,0(a5)
 5ac:	0b00006f          	j	65c <_Z6medianiPiS_+0x184>
 5b0:	fe042703          	lw	a4,-32(s0)
 5b4:	fe842783          	lw	a5,-24(s0)
 5b8:	02f75063          	ble	a5,a4,5d8 <_Z6medianiPiS_+0x100>
 5bc:	fec42783          	lw	a5,-20(s0)
 5c0:	00279793          	slli	a5,a5,0x2
 5c4:	fd442703          	lw	a4,-44(s0)
 5c8:	00f707b3          	add	a5,a4,a5
 5cc:	fe842703          	lw	a4,-24(s0)
 5d0:	00e7a023          	sw	a4,0(a5)
 5d4:	0880006f          	j	65c <_Z6medianiPiS_+0x184>
 5d8:	fec42783          	lw	a5,-20(s0)
 5dc:	00279793          	slli	a5,a5,0x2
 5e0:	fd442703          	lw	a4,-44(s0)
 5e4:	00f707b3          	add	a5,a4,a5
 5e8:	fe042703          	lw	a4,-32(s0)
 5ec:	00e7a023          	sw	a4,0(a5)
 5f0:	06c0006f          	j	65c <_Z6medianiPiS_+0x184>
 5f4:	fe842703          	lw	a4,-24(s0)
 5f8:	fe042783          	lw	a5,-32(s0)
 5fc:	02f75063          	ble	a5,a4,61c <_Z6medianiPiS_+0x144>
 600:	fec42783          	lw	a5,-20(s0)
 604:	00279793          	slli	a5,a5,0x2
 608:	fd442703          	lw	a4,-44(s0)
 60c:	00f707b3          	add	a5,a4,a5
 610:	fe842703          	lw	a4,-24(s0)
 614:	00e7a023          	sw	a4,0(a5)
 618:	0440006f          	j	65c <_Z6medianiPiS_+0x184>
 61c:	fe042703          	lw	a4,-32(s0)
 620:	fe442783          	lw	a5,-28(s0)
 624:	02f75063          	ble	a5,a4,644 <_Z6medianiPiS_+0x16c>
 628:	fec42783          	lw	a5,-20(s0)
 62c:	00279793          	slli	a5,a5,0x2
 630:	fd442703          	lw	a4,-44(s0)
 634:	00f707b3          	add	a5,a4,a5
 638:	fe442703          	lw	a4,-28(s0)
 63c:	00e7a023          	sw	a4,0(a5)
 640:	01c0006f          	j	65c <_Z6medianiPiS_+0x184>
 644:	fec42783          	lw	a5,-20(s0)
 648:	00279793          	slli	a5,a5,0x2
 64c:	fd442703          	lw	a4,-44(s0)
 650:	00f707b3          	add	a5,a4,a5
 654:	fe042703          	lw	a4,-32(s0)
 658:	00e7a023          	sw	a4,0(a5)
 65c:	fec42783          	lw	a5,-20(s0)
 660:	00178793          	addi	a5,a5,1
 664:	fef42623          	sw	a5,-20(s0)
 668:	fdc42783          	lw	a5,-36(s0)
 66c:	fff78713          	addi	a4,a5,-1
 670:	fec42783          	lw	a5,-20(s0)
 674:	eae7c8e3          	blt	a5,a4,524 <_Z6medianiPiS_+0x4c>
 678:	02c12403          	lw	s0,44(sp)
 67c:	03010113          	addi	sp,sp,48
 680:	00008067          	ret

00000684 <__divsi3>:
 684:	06054063          	bltz	a0,6e4 <__umodsi3+0x10>
 688:	0605c663          	bltz	a1,6f4 <__umodsi3+0x20>

0000068c <__udivsi3>:
 68c:	00058613          	mv	a2,a1
 690:	00050593          	mv	a1,a0
 694:	fff00513          	li	a0,-1
 698:	02060c63          	beqz	a2,6d0 <__udivsi3+0x44>
 69c:	00100693          	li	a3,1
 6a0:	00b67a63          	bleu	a1,a2,6b4 <__udivsi3+0x28>
 6a4:	00c05863          	blez	a2,6b4 <__udivsi3+0x28>
 6a8:	00161613          	slli	a2,a2,0x1
 6ac:	00169693          	slli	a3,a3,0x1
 6b0:	feb66ae3          	bltu	a2,a1,6a4 <__udivsi3+0x18>
 6b4:	00000513          	li	a0,0
 6b8:	00c5e663          	bltu	a1,a2,6c4 <__udivsi3+0x38>
 6bc:	40c585b3          	sub	a1,a1,a2
 6c0:	00d56533          	or	a0,a0,a3
 6c4:	0016d693          	srli	a3,a3,0x1
 6c8:	00165613          	srli	a2,a2,0x1
 6cc:	fe0696e3          	bnez	a3,6b8 <__udivsi3+0x2c>
 6d0:	00008067          	ret

000006d4 <__umodsi3>:
 6d4:	00008293          	mv	t0,ra
 6d8:	fb5ff0ef          	jal	68c <__udivsi3>
 6dc:	00058513          	mv	a0,a1
 6e0:	00028067          	jr	t0
 6e4:	40a00533          	neg	a0,a0
 6e8:	0005d863          	bgez	a1,6f8 <__umodsi3+0x24>
 6ec:	40b005b3          	neg	a1,a1
 6f0:	f95ff06f          	j	684 <__divsi3>
 6f4:	40b005b3          	neg	a1,a1
 6f8:	00008293          	mv	t0,ra
 6fc:	f89ff0ef          	jal	684 <__divsi3>
 700:	40a00533          	neg	a0,a0
 704:	00028067          	jr	t0

00000708 <__modsi3>:
 708:	00008293          	mv	t0,ra
 70c:	0005ca63          	bltz	a1,720 <__modsi3+0x18>
 710:	00054c63          	bltz	a0,728 <__modsi3+0x20>
 714:	f79ff0ef          	jal	68c <__udivsi3>
 718:	00058513          	mv	a0,a1
 71c:	00028067          	jr	t0
 720:	40b005b3          	neg	a1,a1
 724:	fe0558e3          	bgez	a0,714 <__modsi3+0xc>
 728:	40a00533          	neg	a0,a0
 72c:	f61ff0ef          	jal	68c <__udivsi3>
 730:	40b00533          	neg	a0,a1
 734:	00028067          	jr	t0

Disassembly of section .vector:

00000738 <vector>:
 738:	fffc                	0xfffc
 73a:	0000                	unimp
 73c:	0010                	0x10
	...
