
exe:     file format elf32-littleriscv


Disassembly of section .text:

00000000 <entry>:
       0:	00400117          	auipc	sp,0x400
       4:	ffc10113          	addi	sp,sp,-4 # 3ffffc <__sp>
       8:	018000ef          	jal	ra,20 <textinit>

0000000c <end>:
       c:	00130313          	addi	t1,t1,1
      10:	00400397          	auipc	t2,0x400
      14:	ff838393          	addi	t2,t2,-8 # 400008 <__stop_addr>
      18:	0063a023          	sw	t1,0(t2)

0000001c <loop>:
      1c:	0000006f          	j	1c <loop>

00000020 <textinit>:
      20:	ff010113          	addi	sp,sp,-16
      24:	00112623          	sw	ra,12(sp)
      28:	00812423          	sw	s0,8(sp)
      2c:	01010413          	addi	s0,sp,16
      30:	7f5000ef          	jal	ra,1024 <main>
      34:	00000013          	nop
      38:	00c12083          	lw	ra,12(sp)
      3c:	00812403          	lw	s0,8(sp)
      40:	01010113          	addi	sp,sp,16
      44:	00008067          	ret

00000048 <_Z4itoaijjjPcj.part.0>:
      48:	fd010113          	addi	sp,sp,-48
      4c:	02812423          	sw	s0,40(sp)
      50:	02912223          	sw	s1,36(sp)
      54:	01312e23          	sw	s3,28(sp)
      58:	01412c23          	sw	s4,24(sp)
      5c:	01512a23          	sw	s5,20(sp)
      60:	02112623          	sw	ra,44(sp)
      64:	03212023          	sw	s2,32(sp)
      68:	01612823          	sw	s6,16(sp)
      6c:	01712623          	sw	s7,12(sp)
      70:	00050493          	mv	s1,a0
      74:	00058993          	mv	s3,a1
      78:	00070413          	mv	s0,a4
      7c:	00078a13          	mv	s4,a5
      80:	00000a93          	li	s5,0
      84:	1c054863          	bltz	a0,254 <_Z4itoaijjjPcj.part.0+0x20c>
      88:	06100b13          	li	s6,97
      8c:	00060463          	beqz	a2,94 <_Z4itoaijjjPcj.part.0+0x4c>
      90:	04100b13          	li	s6,65
      94:	00040913          	mv	s2,s0
      98:	00900b93          	li	s7,9
      9c:	ff6b0b13          	addi	s6,s6,-10
      a0:	00098593          	mv	a1,s3
      a4:	00048513          	mv	a0,s1
      a8:	719000ef          	jal	ra,fc0 <__umodsi3>
      ac:	00050713          	mv	a4,a0
      b0:	0ff77793          	andi	a5,a4,255
      b4:	03078693          	addi	a3,a5,48
      b8:	00098593          	mv	a1,s3
      bc:	00048513          	mv	a0,s1
      c0:	016787b3          	add	a5,a5,s6
      c4:	00190913          	addi	s2,s2,1
      c8:	16ebc463          	blt	s7,a4,230 <_Z4itoaijjjPcj.part.0+0x1e8>
      cc:	fed90fa3          	sb	a3,-1(s2)
      d0:	6a9000ef          	jal	ra,f78 <__udivsi3>
      d4:	00050493          	mv	s1,a0
      d8:	fca044e3          	bgtz	a0,a0 <_Z4itoaijjjPcj.part.0+0x58>
      dc:	40890733          	sub	a4,s2,s0
      e0:	0f477263          	bgeu	a4,s4,1c4 <_Z4itoaijjjPcj.part.0+0x17c>
      e4:	fffa0693          	addi	a3,s4,-1
      e8:	412007b3          	neg	a5,s2
      ec:	40e686b3          	sub	a3,a3,a4
      f0:	00500613          	li	a2,5
      f4:	40ea0533          	sub	a0,s4,a4
      f8:	0037f793          	andi	a5,a5,3
      fc:	16d67a63          	bgeu	a2,a3,270 <_Z4itoaijjjPcj.part.0+0x228>
     100:	16078263          	beqz	a5,264 <_Z4itoaijjjPcj.part.0+0x21c>
     104:	03000693          	li	a3,48
     108:	00d90023          	sb	a3,0(s2)
     10c:	00100613          	li	a2,1
     110:	00190593          	addi	a1,s2,1
     114:	00170893          	addi	a7,a4,1
     118:	02c78263          	beq	a5,a2,13c <_Z4itoaijjjPcj.part.0+0xf4>
     11c:	00d900a3          	sb	a3,1(s2)
     120:	00200613          	li	a2,2
     124:	00290593          	addi	a1,s2,2
     128:	00270893          	addi	a7,a4,2
     12c:	00c78863          	beq	a5,a2,13c <_Z4itoaijjjPcj.part.0+0xf4>
     130:	00390593          	addi	a1,s2,3
     134:	00d90123          	sb	a3,2(s2)
     138:	00370893          	addi	a7,a4,3
     13c:	40f50833          	sub	a6,a0,a5
     140:	ffc80693          	addi	a3,a6,-4
     144:	0026d693          	srli	a3,a3,0x2
     148:	30303637          	lui	a2,0x30303
     14c:	00168693          	addi	a3,a3,1
     150:	00f907b3          	add	a5,s2,a5
     154:	00000713          	li	a4,0
     158:	03060613          	addi	a2,a2,48 # 30303030 <__stop_addr+0x2ff03028>
     15c:	00c7a023          	sw	a2,0(a5)
     160:	00170713          	addi	a4,a4,1
     164:	00478793          	addi	a5,a5,4
     168:	fed76ae3          	bltu	a4,a3,15c <_Z4itoaijjjPcj.part.0+0x114>
     16c:	00269693          	slli	a3,a3,0x2
     170:	00d88733          	add	a4,a7,a3
     174:	00d587b3          	add	a5,a1,a3
     178:	04d80463          	beq	a6,a3,1c0 <_Z4itoaijjjPcj.part.0+0x178>
     17c:	03000693          	li	a3,48
     180:	00d78023          	sb	a3,0(a5)
     184:	00170613          	addi	a2,a4,1
     188:	03467c63          	bgeu	a2,s4,1c0 <_Z4itoaijjjPcj.part.0+0x178>
     18c:	00d780a3          	sb	a3,1(a5)
     190:	00270613          	addi	a2,a4,2
     194:	03467663          	bgeu	a2,s4,1c0 <_Z4itoaijjjPcj.part.0+0x178>
     198:	00d78123          	sb	a3,2(a5)
     19c:	00370613          	addi	a2,a4,3
     1a0:	03467063          	bgeu	a2,s4,1c0 <_Z4itoaijjjPcj.part.0+0x178>
     1a4:	00d781a3          	sb	a3,3(a5)
     1a8:	00470613          	addi	a2,a4,4
     1ac:	01467a63          	bgeu	a2,s4,1c0 <_Z4itoaijjjPcj.part.0+0x178>
     1b0:	00d78223          	sb	a3,4(a5)
     1b4:	00570713          	addi	a4,a4,5
     1b8:	01477463          	bgeu	a4,s4,1c0 <_Z4itoaijjjPcj.part.0+0x178>
     1bc:	00d782a3          	sb	a3,5(a5)
     1c0:	00a90933          	add	s2,s2,a0
     1c4:	080a9063          	bnez	s5,244 <_Z4itoaijjjPcj.part.0+0x1fc>
     1c8:	40890533          	sub	a0,s2,s0
     1cc:	00090023          	sb	zero,0(s2)
     1d0:	00155593          	srli	a1,a0,0x1
     1d4:	02058863          	beqz	a1,204 <_Z4itoaijjjPcj.part.0+0x1bc>
     1d8:	fff50793          	addi	a5,a0,-1
     1dc:	00040713          	mv	a4,s0
     1e0:	00f407b3          	add	a5,s0,a5
     1e4:	00b405b3          	add	a1,s0,a1
     1e8:	0007c603          	lbu	a2,0(a5)
     1ec:	00074683          	lbu	a3,0(a4)
     1f0:	00170713          	addi	a4,a4,1
     1f4:	fff78793          	addi	a5,a5,-1
     1f8:	fec70fa3          	sb	a2,-1(a4)
     1fc:	00d780a3          	sb	a3,1(a5)
     200:	feb714e3          	bne	a4,a1,1e8 <_Z4itoaijjjPcj.part.0+0x1a0>
     204:	02c12083          	lw	ra,44(sp)
     208:	02812403          	lw	s0,40(sp)
     20c:	02412483          	lw	s1,36(sp)
     210:	02012903          	lw	s2,32(sp)
     214:	01c12983          	lw	s3,28(sp)
     218:	01812a03          	lw	s4,24(sp)
     21c:	01412a83          	lw	s5,20(sp)
     220:	01012b03          	lw	s6,16(sp)
     224:	00c12b83          	lw	s7,12(sp)
     228:	03010113          	addi	sp,sp,48
     22c:	00008067          	ret
     230:	fef90fa3          	sb	a5,-1(s2)
     234:	545000ef          	jal	ra,f78 <__udivsi3>
     238:	00050493          	mv	s1,a0
     23c:	e6a042e3          	bgtz	a0,a0 <_Z4itoaijjjPcj.part.0+0x58>
     240:	e9dff06f          	j	dc <_Z4itoaijjjPcj.part.0+0x94>
     244:	02d00793          	li	a5,45
     248:	00f90023          	sb	a5,0(s2)
     24c:	00190913          	addi	s2,s2,1
     250:	f79ff06f          	j	1c8 <_Z4itoaijjjPcj.part.0+0x180>
     254:	e2069ae3          	bnez	a3,88 <_Z4itoaijjjPcj.part.0+0x40>
     258:	40a004b3          	neg	s1,a0
     25c:	00100a93          	li	s5,1
     260:	e29ff06f          	j	88 <_Z4itoaijjjPcj.part.0+0x40>
     264:	00090593          	mv	a1,s2
     268:	00070893          	mv	a7,a4
     26c:	ed1ff06f          	j	13c <_Z4itoaijjjPcj.part.0+0xf4>
     270:	00090793          	mv	a5,s2
     274:	f09ff06f          	j	17c <_Z4itoaijjjPcj.part.0+0x134>

00000278 <_Z10write_charc>:
     278:	004007b7          	lui	a5,0x400
     27c:	00a7a223          	sw	a0,4(a5) # 400004 <__console_addr>
     280:	00000513          	li	a0,0
     284:	00008067          	ret

00000288 <_Z12write_stringPc>:
     288:	00054783          	lbu	a5,0(a0)
     28c:	00400737          	lui	a4,0x400
     290:	00078e63          	beqz	a5,2ac <_Z12write_stringPc+0x24>
     294:	00150513          	addi	a0,a0,1
     298:	00400737          	lui	a4,0x400
     29c:	00f72223          	sw	a5,4(a4) # 400004 <__console_addr>
     2a0:	00150513          	addi	a0,a0,1
     2a4:	fff54783          	lbu	a5,-1(a0)
     2a8:	fe079ae3          	bnez	a5,29c <_Z12write_stringPc+0x14>
     2ac:	00072223          	sw	zero,4(a4)
     2b0:	00000513          	li	a0,0
     2b4:	00008067          	ret

000002b8 <_Z5_putciPVi>:
     2b8:	00a5a023          	sw	a0,0(a1)
     2bc:	00100513          	li	a0,1
     2c0:	00008067          	ret

000002c4 <_Z5_putsPcjPVi>:
     2c4:	00058c63          	beqz	a1,2dc <_Z5_putsPcjPVi+0x18>
     2c8:	00b505b3          	add	a1,a0,a1
     2cc:	00054783          	lbu	a5,0(a0)
     2d0:	00150513          	addi	a0,a0,1
     2d4:	00f62023          	sw	a5,0(a2)
     2d8:	fea59ae3          	bne	a1,a0,2cc <_Z5_putsPcjPVi+0x8>
     2dc:	00062023          	sw	zero,0(a2)
     2e0:	00100513          	li	a0,1
     2e4:	00008067          	ret

000002e8 <_Z7_strlenPKc>:
     2e8:	00054783          	lbu	a5,0(a0)
     2ec:	02078063          	beqz	a5,30c <_Z7_strlenPKc+0x24>
     2f0:	00000793          	li	a5,0
     2f4:	00178793          	addi	a5,a5,1
     2f8:	00f50733          	add	a4,a0,a5
     2fc:	00074703          	lbu	a4,0(a4)
     300:	fe071ae3          	bnez	a4,2f4 <_Z7_strlenPKc+0xc>
     304:	00078513          	mv	a0,a5
     308:	00008067          	ret
     30c:	00000793          	li	a5,0
     310:	00078513          	mv	a0,a5
     314:	00008067          	ret

00000318 <_Z4itoaijjjPcj>:
     318:	fd010113          	addi	sp,sp,-48
     31c:	01312e23          	sw	s3,28(sp)
     320:	02112623          	sw	ra,44(sp)
     324:	00058993          	mv	s3,a1
     328:	02812423          	sw	s0,40(sp)
     32c:	02912223          	sw	s1,36(sp)
     330:	03212023          	sw	s2,32(sp)
     334:	01412c23          	sw	s4,24(sp)
     338:	01512a23          	sw	s5,20(sp)
     33c:	01612823          	sw	s6,16(sp)
     340:	01712623          	sw	s7,12(sp)
     344:	01000593          	li	a1,16
     348:	2135e063          	bltu	a1,s3,548 <_Z4itoaijjjPcj+0x230>
     34c:	00050493          	mv	s1,a0
     350:	00070413          	mv	s0,a4
     354:	00078a13          	mv	s4,a5
     358:	00000a93          	li	s5,0
     35c:	1c054a63          	bltz	a0,530 <_Z4itoaijjjPcj+0x218>
     360:	06100b13          	li	s6,97
     364:	1a061a63          	bnez	a2,518 <_Z4itoaijjjPcj+0x200>
     368:	00040913          	mv	s2,s0
     36c:	00900b93          	li	s7,9
     370:	ff6b0b13          	addi	s6,s6,-10
     374:	00098593          	mv	a1,s3
     378:	00048513          	mv	a0,s1
     37c:	445000ef          	jal	ra,fc0 <__umodsi3>
     380:	00050713          	mv	a4,a0
     384:	0ff77793          	andi	a5,a4,255
     388:	03078693          	addi	a3,a5,48
     38c:	00098593          	mv	a1,s3
     390:	00048513          	mv	a0,s1
     394:	016787b3          	add	a5,a5,s6
     398:	00190913          	addi	s2,s2,1
     39c:	16ebe463          	bltu	s7,a4,504 <_Z4itoaijjjPcj+0x1ec>
     3a0:	fed90fa3          	sb	a3,-1(s2)
     3a4:	3d5000ef          	jal	ra,f78 <__udivsi3>
     3a8:	00050493          	mv	s1,a0
     3ac:	fca044e3          	bgtz	a0,374 <_Z4itoaijjjPcj+0x5c>
     3b0:	40890733          	sub	a4,s2,s0
     3b4:	0f477263          	bgeu	a4,s4,498 <_Z4itoaijjjPcj+0x180>
     3b8:	fffa0693          	addi	a3,s4,-1
     3bc:	412007b3          	neg	a5,s2
     3c0:	40e686b3          	sub	a3,a3,a4
     3c4:	00500613          	li	a2,5
     3c8:	40ea0533          	sub	a0,s4,a4
     3cc:	0037f793          	andi	a5,a5,3
     3d0:	18d67663          	bgeu	a2,a3,55c <_Z4itoaijjjPcj+0x244>
     3d4:	16078e63          	beqz	a5,550 <_Z4itoaijjjPcj+0x238>
     3d8:	03000693          	li	a3,48
     3dc:	00d90023          	sb	a3,0(s2)
     3e0:	00100613          	li	a2,1
     3e4:	00190593          	addi	a1,s2,1
     3e8:	00170893          	addi	a7,a4,1
     3ec:	02c78263          	beq	a5,a2,410 <_Z4itoaijjjPcj+0xf8>
     3f0:	00d900a3          	sb	a3,1(s2)
     3f4:	00200613          	li	a2,2
     3f8:	00290593          	addi	a1,s2,2
     3fc:	00270893          	addi	a7,a4,2
     400:	00c78863          	beq	a5,a2,410 <_Z4itoaijjjPcj+0xf8>
     404:	00390593          	addi	a1,s2,3
     408:	00d90123          	sb	a3,2(s2)
     40c:	00370893          	addi	a7,a4,3
     410:	40f50833          	sub	a6,a0,a5
     414:	ffc80693          	addi	a3,a6,-4
     418:	0026d693          	srli	a3,a3,0x2
     41c:	30303637          	lui	a2,0x30303
     420:	00168693          	addi	a3,a3,1
     424:	00f907b3          	add	a5,s2,a5
     428:	00000713          	li	a4,0
     42c:	03060613          	addi	a2,a2,48 # 30303030 <__stop_addr+0x2ff03028>
     430:	00c7a023          	sw	a2,0(a5)
     434:	00170713          	addi	a4,a4,1
     438:	00478793          	addi	a5,a5,4
     43c:	fed76ae3          	bltu	a4,a3,430 <_Z4itoaijjjPcj+0x118>
     440:	00269693          	slli	a3,a3,0x2
     444:	00d88733          	add	a4,a7,a3
     448:	00d587b3          	add	a5,a1,a3
     44c:	04d80463          	beq	a6,a3,494 <_Z4itoaijjjPcj+0x17c>
     450:	03000693          	li	a3,48
     454:	00d78023          	sb	a3,0(a5)
     458:	00170613          	addi	a2,a4,1
     45c:	03467c63          	bgeu	a2,s4,494 <_Z4itoaijjjPcj+0x17c>
     460:	00d780a3          	sb	a3,1(a5)
     464:	00270613          	addi	a2,a4,2
     468:	03467663          	bgeu	a2,s4,494 <_Z4itoaijjjPcj+0x17c>
     46c:	00d78123          	sb	a3,2(a5)
     470:	00370613          	addi	a2,a4,3
     474:	03467063          	bgeu	a2,s4,494 <_Z4itoaijjjPcj+0x17c>
     478:	00d781a3          	sb	a3,3(a5)
     47c:	00470613          	addi	a2,a4,4
     480:	01467a63          	bgeu	a2,s4,494 <_Z4itoaijjjPcj+0x17c>
     484:	00d78223          	sb	a3,4(a5)
     488:	00570713          	addi	a4,a4,5
     48c:	01477463          	bgeu	a4,s4,494 <_Z4itoaijjjPcj+0x17c>
     490:	00d782a3          	sb	a3,5(a5)
     494:	00a90933          	add	s2,s2,a0
     498:	080a9463          	bnez	s5,520 <_Z4itoaijjjPcj+0x208>
     49c:	40890533          	sub	a0,s2,s0
     4a0:	00090023          	sb	zero,0(s2)
     4a4:	00155593          	srli	a1,a0,0x1
     4a8:	02058863          	beqz	a1,4d8 <_Z4itoaijjjPcj+0x1c0>
     4ac:	fff50793          	addi	a5,a0,-1
     4b0:	00040713          	mv	a4,s0
     4b4:	00f407b3          	add	a5,s0,a5
     4b8:	00b405b3          	add	a1,s0,a1
     4bc:	0007c603          	lbu	a2,0(a5)
     4c0:	00074683          	lbu	a3,0(a4)
     4c4:	00170713          	addi	a4,a4,1
     4c8:	fff78793          	addi	a5,a5,-1
     4cc:	fec70fa3          	sb	a2,-1(a4)
     4d0:	00d780a3          	sb	a3,1(a5)
     4d4:	feb714e3          	bne	a4,a1,4bc <_Z4itoaijjjPcj+0x1a4>
     4d8:	02c12083          	lw	ra,44(sp)
     4dc:	02812403          	lw	s0,40(sp)
     4e0:	02412483          	lw	s1,36(sp)
     4e4:	02012903          	lw	s2,32(sp)
     4e8:	01c12983          	lw	s3,28(sp)
     4ec:	01812a03          	lw	s4,24(sp)
     4f0:	01412a83          	lw	s5,20(sp)
     4f4:	01012b03          	lw	s6,16(sp)
     4f8:	00c12b83          	lw	s7,12(sp)
     4fc:	03010113          	addi	sp,sp,48
     500:	00008067          	ret
     504:	fef90fa3          	sb	a5,-1(s2)
     508:	271000ef          	jal	ra,f78 <__udivsi3>
     50c:	00050493          	mv	s1,a0
     510:	e6a042e3          	bgtz	a0,374 <_Z4itoaijjjPcj+0x5c>
     514:	e9dff06f          	j	3b0 <_Z4itoaijjjPcj+0x98>
     518:	04100b13          	li	s6,65
     51c:	e4dff06f          	j	368 <_Z4itoaijjjPcj+0x50>
     520:	02d00793          	li	a5,45
     524:	00f90023          	sb	a5,0(s2)
     528:	00190913          	addi	s2,s2,1
     52c:	f71ff06f          	j	49c <_Z4itoaijjjPcj+0x184>
     530:	e20698e3          	bnez	a3,360 <_Z4itoaijjjPcj+0x48>
     534:	40a004b3          	neg	s1,a0
     538:	00100a93          	li	s5,1
     53c:	06100b13          	li	s6,97
     540:	e20604e3          	beqz	a2,368 <_Z4itoaijjjPcj+0x50>
     544:	fd5ff06f          	j	518 <_Z4itoaijjjPcj+0x200>
     548:	00000513          	li	a0,0
     54c:	f8dff06f          	j	4d8 <_Z4itoaijjjPcj+0x1c0>
     550:	00090593          	mv	a1,s2
     554:	00070893          	mv	a7,a4
     558:	eb9ff06f          	j	410 <_Z4itoaijjjPcj+0xf8>
     55c:	00090793          	mv	a5,s2
     560:	ef1ff06f          	j	450 <_Z4itoaijjjPcj+0x138>

00000564 <_Z4ftoifRiS_>:
     564:	fe010113          	addi	sp,sp,-32
     568:	00112e23          	sw	ra,28(sp)
     56c:	00812c23          	sw	s0,24(sp)
     570:	00912a23          	sw	s1,20(sp)
     574:	01212823          	sw	s2,16(sp)
     578:	01312623          	sw	s3,12(sp)
     57c:	00058913          	mv	s2,a1
     580:	00060993          	mv	s3,a2
     584:	00050493          	mv	s1,a0
     588:	4fc010ef          	jal	ra,1a84 <__fixsfsi>
     58c:	56c010ef          	jal	ra,1af8 <__floatsisf>
     590:	00050593          	mv	a1,a0
     594:	00048513          	mv	a0,s1
     598:	068010ef          	jal	ra,1600 <__subsf3>
     59c:	00000593          	li	a1,0
     5a0:	00050413          	mv	s0,a0
     5a4:	325000ef          	jal	ra,10c8 <__gesf2>
     5a8:	00a04663          	bgtz	a0,5b4 <_Z4ftoifRiS_+0x50>
     5ac:	800007b7          	lui	a5,0x80000
     5b0:	0087c433          	xor	s0,a5,s0
     5b4:	000047b7          	lui	a5,0x4
     5b8:	6047a583          	lw	a1,1540(a5) # 4604 <input_data1+0xbb8>
     5bc:	00040513          	mv	a0,s0
     5c0:	491000ef          	jal	ra,1250 <__mulsf3>
     5c4:	4c0010ef          	jal	ra,1a84 <__fixsfsi>
     5c8:	00a9a023          	sw	a0,0(s3)
     5cc:	00040593          	mv	a1,s0
     5d0:	00048513          	mv	a0,s1
     5d4:	02c010ef          	jal	ra,1600 <__subsf3>
     5d8:	4ac010ef          	jal	ra,1a84 <__fixsfsi>
     5dc:	01c12083          	lw	ra,28(sp)
     5e0:	01812403          	lw	s0,24(sp)
     5e4:	00a92023          	sw	a0,0(s2)
     5e8:	01412483          	lw	s1,20(sp)
     5ec:	01012903          	lw	s2,16(sp)
     5f0:	00c12983          	lw	s3,12(sp)
     5f4:	00000513          	li	a0,0
     5f8:	02010113          	addi	sp,sp,32
     5fc:	00008067          	ret

00000600 <_Z10ftoi_printf>:
     600:	fc010113          	addi	sp,sp,-64
     604:	02112e23          	sw	ra,60(sp)
     608:	02812c23          	sw	s0,56(sp)
     60c:	03212823          	sw	s2,48(sp)
     610:	02912a23          	sw	s1,52(sp)
     614:	03312623          	sw	s3,44(sp)
     618:	03412423          	sw	s4,40(sp)
     61c:	03512223          	sw	s5,36(sp)
     620:	00050913          	mv	s2,a0
     624:	460010ef          	jal	ra,1a84 <__fixsfsi>
     628:	4d0010ef          	jal	ra,1af8 <__floatsisf>
     62c:	00050593          	mv	a1,a0
     630:	00090513          	mv	a0,s2
     634:	7cd000ef          	jal	ra,1600 <__subsf3>
     638:	00000593          	li	a1,0
     63c:	00050413          	mv	s0,a0
     640:	289000ef          	jal	ra,10c8 <__gesf2>
     644:	00a04663          	bgtz	a0,650 <_Z10ftoi_printf+0x50>
     648:	800007b7          	lui	a5,0x80000
     64c:	0087c433          	xor	s0,a5,s0
     650:	000047b7          	lui	a5,0x4
     654:	6047a583          	lw	a1,1540(a5) # 4604 <input_data1+0xbb8>
     658:	00040513          	mv	a0,s0
     65c:	00000a93          	li	s5,0
     660:	3f1000ef          	jal	ra,1250 <__mulsf3>
     664:	420010ef          	jal	ra,1a84 <__fixsfsi>
     668:	00040593          	mv	a1,s0
     66c:	00050493          	mv	s1,a0
     670:	00090513          	mv	a0,s2
     674:	78d000ef          	jal	ra,1600 <__subsf3>
     678:	40c010ef          	jal	ra,1a84 <__fixsfsi>
     67c:	00000793          	li	a5,0
     680:	00810713          	addi	a4,sp,8
     684:	00000693          	li	a3,0
     688:	00000613          	li	a2,0
     68c:	00a00593          	li	a1,10
     690:	9b9ff0ef          	jal	ra,48 <_Z4itoaijjjPcj.part.0>
     694:	0004d663          	bgez	s1,6a0 <_Z10ftoi_printf+0xa0>
     698:	409004b3          	neg	s1,s1
     69c:	00100a93          	li	s5,1
     6a0:	01410413          	addi	s0,sp,20
     6a4:	00040993          	mv	s3,s0
     6a8:	00900a13          	li	s4,9
     6ac:	00c0006f          	j	6b8 <_Z10ftoi_printf+0xb8>
     6b0:	00090993          	mv	s3,s2
     6b4:	00050493          	mv	s1,a0
     6b8:	00a00593          	li	a1,10
     6bc:	00048513          	mv	a0,s1
     6c0:	101000ef          	jal	ra,fc0 <__umodsi3>
     6c4:	03050513          	addi	a0,a0,48
     6c8:	00198913          	addi	s2,s3,1
     6cc:	fea90fa3          	sb	a0,-1(s2)
     6d0:	00a00593          	li	a1,10
     6d4:	00048513          	mv	a0,s1
     6d8:	0a1000ef          	jal	ra,f78 <__udivsi3>
     6dc:	fc9a4ae3          	blt	s4,s1,6b0 <_Z10ftoi_printf+0xb0>
     6e0:	000a8863          	beqz	s5,6f0 <_Z10ftoi_printf+0xf0>
     6e4:	02d00793          	li	a5,45
     6e8:	00f90023          	sb	a5,0(s2)
     6ec:	00298913          	addi	s2,s3,2
     6f0:	40890733          	sub	a4,s2,s0
     6f4:	00090023          	sb	zero,0(s2)
     6f8:	00175593          	srli	a1,a4,0x1
     6fc:	02058863          	beqz	a1,72c <_Z10ftoi_printf+0x12c>
     700:	fff70713          	addi	a4,a4,-1
     704:	00040793          	mv	a5,s0
     708:	00e40733          	add	a4,s0,a4
     70c:	00b405b3          	add	a1,s0,a1
     710:	00074603          	lbu	a2,0(a4)
     714:	0007c683          	lbu	a3,0(a5)
     718:	00178793          	addi	a5,a5,1
     71c:	fff70713          	addi	a4,a4,-1
     720:	fec78fa3          	sb	a2,-1(a5)
     724:	00d700a3          	sb	a3,1(a4)
     728:	fef594e3          	bne	a1,a5,710 <_Z10ftoi_printf+0x110>
     72c:	00814783          	lbu	a5,8(sp)
     730:	00910713          	addi	a4,sp,9
     734:	004006b7          	lui	a3,0x400
     738:	00078a63          	beqz	a5,74c <_Z10ftoi_printf+0x14c>
     73c:	00170713          	addi	a4,a4,1
     740:	00f6a223          	sw	a5,4(a3) # 400004 <__console_addr>
     744:	fff74783          	lbu	a5,-1(a4)
     748:	fe079ae3          	bnez	a5,73c <_Z10ftoi_printf+0x13c>
     74c:	01414783          	lbu	a5,20(sp)
     750:	02e00713          	li	a4,46
     754:	0006a223          	sw	zero,4(a3)
     758:	00e6a223          	sw	a4,4(a3)
     75c:	01510713          	addi	a4,sp,21
     760:	00078a63          	beqz	a5,774 <_Z10ftoi_printf+0x174>
     764:	00170713          	addi	a4,a4,1
     768:	00f6a223          	sw	a5,4(a3)
     76c:	fff74783          	lbu	a5,-1(a4)
     770:	fe079ae3          	bnez	a5,764 <_Z10ftoi_printf+0x164>
     774:	03c12083          	lw	ra,60(sp)
     778:	03812403          	lw	s0,56(sp)
     77c:	0006a223          	sw	zero,4(a3)
     780:	03412483          	lw	s1,52(sp)
     784:	03012903          	lw	s2,48(sp)
     788:	02c12983          	lw	s3,44(sp)
     78c:	02812a03          	lw	s4,40(sp)
     790:	02412a83          	lw	s5,36(sp)
     794:	00000513          	li	a0,0
     798:	04010113          	addi	sp,sp,64
     79c:	00008067          	ret

000007a0 <_Z11printf_implPViPKcPv>:
     7a0:	fb010113          	addi	sp,sp,-80
     7a4:	04812423          	sw	s0,72(sp)
     7a8:	04912223          	sw	s1,68(sp)
     7ac:	05212023          	sw	s2,64(sp)
     7b0:	03312e23          	sw	s3,60(sp)
     7b4:	03412c23          	sw	s4,56(sp)
     7b8:	03512a23          	sw	s5,52(sp)
     7bc:	03612823          	sw	s6,48(sp)
     7c0:	03712623          	sw	s7,44(sp)
     7c4:	03812423          	sw	s8,40(sp)
     7c8:	03912223          	sw	s9,36(sp)
     7cc:	04112623          	sw	ra,76(sp)
     7d0:	00050493          	mv	s1,a0
     7d4:	00058413          	mv	s0,a1
     7d8:	00060913          	mv	s2,a2
     7dc:	02500993          	li	s3,37
     7e0:	03000b13          	li	s6,48
     7e4:	06400a93          	li	s5,100
     7e8:	07300a13          	li	s4,115
     7ec:	07500c93          	li	s9,117
     7f0:	07800c13          	li	s8,120
     7f4:	06600b93          	li	s7,102
     7f8:	00044783          	lbu	a5,0(s0)
     7fc:	00078c63          	beqz	a5,814 <_Z11printf_implPViPKcPv+0x74>
     800:	05378663          	beq	a5,s3,84c <_Z11printf_implPViPKcPv+0xac>
     804:	00140413          	addi	s0,s0,1
     808:	00f4a023          	sw	a5,0(s1)
     80c:	00044783          	lbu	a5,0(s0)
     810:	fe0798e3          	bnez	a5,800 <_Z11printf_implPViPKcPv+0x60>
     814:	04c12083          	lw	ra,76(sp)
     818:	04812403          	lw	s0,72(sp)
     81c:	04412483          	lw	s1,68(sp)
     820:	04012903          	lw	s2,64(sp)
     824:	03c12983          	lw	s3,60(sp)
     828:	03812a03          	lw	s4,56(sp)
     82c:	03412a83          	lw	s5,52(sp)
     830:	03012b03          	lw	s6,48(sp)
     834:	02c12b83          	lw	s7,44(sp)
     838:	02812c03          	lw	s8,40(sp)
     83c:	02412c83          	lw	s9,36(sp)
     840:	00000513          	li	a0,0
     844:	05010113          	addi	sp,sp,80
     848:	00008067          	ret
     84c:	00144683          	lbu	a3,1(s0)
     850:	0b668463          	beq	a3,s6,8f8 <_Z11printf_implPViPKcPv+0x158>
     854:	00240413          	addi	s0,s0,2
     858:	00000793          	li	a5,0
     85c:	0d568263          	beq	a3,s5,920 <_Z11printf_implPViPKcPv+0x180>
     860:	02daf863          	bgeu	s5,a3,890 <_Z11printf_implPViPKcPv+0xf0>
     864:	11468063          	beq	a3,s4,964 <_Z11printf_implPViPKcPv+0x1c4>
     868:	04da6263          	bltu	s4,a3,8ac <_Z11printf_implPViPKcPv+0x10c>
     86c:	03769c63          	bne	a3,s7,8a4 <_Z11printf_implPViPKcPv+0x104>
     870:	00790913          	addi	s2,s2,7
     874:	ff897913          	andi	s2,s2,-8
     878:	00092503          	lw	a0,0(s2)
     87c:	00492583          	lw	a1,4(s2)
     880:	00890913          	addi	s2,s2,8
     884:	388010ef          	jal	ra,1c0c <__truncdfsf2>
     888:	d79ff0ef          	jal	ra,600 <_Z10ftoi_printf>
     88c:	f6dff06f          	j	7f8 <_Z11printf_implPViPKcPv+0x58>
     890:	05800713          	li	a4,88
     894:	02e68063          	beq	a3,a4,8b4 <_Z11printf_implPViPKcPv+0x114>
     898:	06300793          	li	a5,99
     89c:	10f68863          	beq	a3,a5,9ac <_Z11printf_implPViPKcPv+0x20c>
     8a0:	f6068ae3          	beqz	a3,814 <_Z11printf_implPViPKcPv+0x74>
     8a4:	00d4a023          	sw	a3,0(s1)
     8a8:	f51ff06f          	j	7f8 <_Z11printf_implPViPKcPv+0x58>
     8ac:	07968a63          	beq	a3,s9,920 <_Z11printf_implPViPKcPv+0x180>
     8b0:	ff869ae3          	bne	a3,s8,8a4 <_Z11printf_implPViPKcPv+0x104>
     8b4:	00092503          	lw	a0,0(s2)
     8b8:	fa868613          	addi	a2,a3,-88
     8bc:	00810713          	addi	a4,sp,8
     8c0:	00100693          	li	a3,1
     8c4:	00163613          	seqz	a2,a2
     8c8:	01000593          	li	a1,16
     8cc:	f7cff0ef          	jal	ra,48 <_Z4itoaijjjPcj.part.0>
     8d0:	00490913          	addi	s2,s2,4
     8d4:	00050e63          	beqz	a0,8f0 <_Z11printf_implPViPKcPv+0x150>
     8d8:	00810793          	addi	a5,sp,8
     8dc:	00a78533          	add	a0,a5,a0
     8e0:	0007c703          	lbu	a4,0(a5)
     8e4:	00178793          	addi	a5,a5,1
     8e8:	00e4a023          	sw	a4,0(s1)
     8ec:	fea79ae3          	bne	a5,a0,8e0 <_Z11printf_implPViPKcPv+0x140>
     8f0:	0004a023          	sw	zero,0(s1)
     8f4:	f05ff06f          	j	7f8 <_Z11printf_implPViPKcPv+0x58>
     8f8:	00244783          	lbu	a5,2(s0)
     8fc:	f0078ce3          	beqz	a5,814 <_Z11printf_implPViPKcPv+0x74>
     900:	fd078793          	addi	a5,a5,-48
     904:	0ff7f793          	andi	a5,a5,255
     908:	00344683          	lbu	a3,3(s0)
     90c:	00a7b713          	sltiu	a4,a5,10
     910:	40e00733          	neg	a4,a4
     914:	00e7f7b3          	and	a5,a5,a4
     918:	00440413          	addi	s0,s0,4
     91c:	f55692e3          	bne	a3,s5,860 <_Z11printf_implPViPKcPv+0xc0>
     920:	00092503          	lw	a0,0(s2)
     924:	f8b68693          	addi	a3,a3,-117
     928:	00810713          	addi	a4,sp,8
     92c:	0016b693          	seqz	a3,a3
     930:	00000613          	li	a2,0
     934:	00a00593          	li	a1,10
     938:	f10ff0ef          	jal	ra,48 <_Z4itoaijjjPcj.part.0>
     93c:	00490913          	addi	s2,s2,4
     940:	fa0508e3          	beqz	a0,8f0 <_Z11printf_implPViPKcPv+0x150>
     944:	00810793          	addi	a5,sp,8
     948:	00a78533          	add	a0,a5,a0
     94c:	0007c703          	lbu	a4,0(a5)
     950:	00178793          	addi	a5,a5,1
     954:	00e4a023          	sw	a4,0(s1)
     958:	fef51ae3          	bne	a0,a5,94c <_Z11printf_implPViPKcPv+0x1ac>
     95c:	0004a023          	sw	zero,0(s1)
     960:	e99ff06f          	j	7f8 <_Z11printf_implPViPKcPv+0x58>
     964:	00092783          	lw	a5,0(s2)
     968:	00490913          	addi	s2,s2,4
     96c:	0007c703          	lbu	a4,0(a5)
     970:	f80700e3          	beqz	a4,8f0 <_Z11printf_implPViPKcPv+0x150>
     974:	00000713          	li	a4,0
     978:	00170713          	addi	a4,a4,1
     97c:	00e786b3          	add	a3,a5,a4
     980:	0006c603          	lbu	a2,0(a3)
     984:	fe061ae3          	bnez	a2,978 <_Z11printf_implPViPKcPv+0x1d8>
     988:	0007c703          	lbu	a4,0(a5)
     98c:	00178793          	addi	a5,a5,1
     990:	00e4a023          	sw	a4,0(s1)
     994:	f4f68ee3          	beq	a3,a5,8f0 <_Z11printf_implPViPKcPv+0x150>
     998:	0007c703          	lbu	a4,0(a5)
     99c:	00178793          	addi	a5,a5,1
     9a0:	00e4a023          	sw	a4,0(s1)
     9a4:	fef692e3          	bne	a3,a5,988 <_Z11printf_implPViPKcPv+0x1e8>
     9a8:	f49ff06f          	j	8f0 <_Z11printf_implPViPKcPv+0x150>
     9ac:	00094783          	lbu	a5,0(s2)
     9b0:	00490913          	addi	s2,s2,4
     9b4:	00f4a023          	sw	a5,0(s1)
     9b8:	e41ff06f          	j	7f8 <_Z11printf_implPViPKcPv+0x58>

000009bc <_Z11addr_printfPViPKcz>:
     9bc:	f9010113          	addi	sp,sp,-112
     9c0:	04812423          	sw	s0,72(sp)
     9c4:	05810413          	addi	s0,sp,88
     9c8:	04912223          	sw	s1,68(sp)
     9cc:	05212023          	sw	s2,64(sp)
     9d0:	03312e23          	sw	s3,60(sp)
     9d4:	03412c23          	sw	s4,56(sp)
     9d8:	03512a23          	sw	s5,52(sp)
     9dc:	03612823          	sw	s6,48(sp)
     9e0:	03712623          	sw	s7,44(sp)
     9e4:	03812423          	sw	s8,40(sp)
     9e8:	03912223          	sw	s9,36(sp)
     9ec:	04112623          	sw	ra,76(sp)
     9f0:	00050c93          	mv	s9,a0
     9f4:	00058c13          	mv	s8,a1
     9f8:	04c12c23          	sw	a2,88(sp)
     9fc:	04d12e23          	sw	a3,92(sp)
     a00:	06e12023          	sw	a4,96(sp)
     a04:	06f12223          	sw	a5,100(sp)
     a08:	07012423          	sw	a6,104(sp)
     a0c:	07112623          	sw	a7,108(sp)
     a10:	00812223          	sw	s0,4(sp)
     a14:	02500b93          	li	s7,37
     a18:	03000b13          	li	s6,48
     a1c:	06400913          	li	s2,100
     a20:	07300493          	li	s1,115
     a24:	07500a93          	li	s5,117
     a28:	07800a13          	li	s4,120
     a2c:	06600993          	li	s3,102
     a30:	000c4783          	lbu	a5,0(s8)
     a34:	00078c63          	beqz	a5,a4c <_Z11addr_printfPViPKcz+0x90>
     a38:	05778663          	beq	a5,s7,a84 <_Z11addr_printfPViPKcz+0xc8>
     a3c:	001c0c13          	addi	s8,s8,1
     a40:	00fca023          	sw	a5,0(s9)
     a44:	000c4783          	lbu	a5,0(s8)
     a48:	fe0798e3          	bnez	a5,a38 <_Z11addr_printfPViPKcz+0x7c>
     a4c:	04c12083          	lw	ra,76(sp)
     a50:	04812403          	lw	s0,72(sp)
     a54:	04412483          	lw	s1,68(sp)
     a58:	04012903          	lw	s2,64(sp)
     a5c:	03c12983          	lw	s3,60(sp)
     a60:	03812a03          	lw	s4,56(sp)
     a64:	03412a83          	lw	s5,52(sp)
     a68:	03012b03          	lw	s6,48(sp)
     a6c:	02c12b83          	lw	s7,44(sp)
     a70:	02812c03          	lw	s8,40(sp)
     a74:	02412c83          	lw	s9,36(sp)
     a78:	00000513          	li	a0,0
     a7c:	07010113          	addi	sp,sp,112
     a80:	00008067          	ret
     a84:	001c4683          	lbu	a3,1(s8)
     a88:	05668063          	beq	a3,s6,ac8 <_Z11addr_printfPViPKcz+0x10c>
     a8c:	002c0c13          	addi	s8,s8,2
     a90:	00000793          	li	a5,0
     a94:	05268e63          	beq	a3,s2,af0 <_Z11addr_printfPViPKcz+0x134>
     a98:	0ed97463          	bgeu	s2,a3,b80 <_Z11addr_printfPViPKcz+0x1c4>
     a9c:	10968063          	beq	a3,s1,b9c <_Z11addr_printfPViPKcz+0x1e0>
     aa0:	08d4ea63          	bltu	s1,a3,b34 <_Z11addr_printfPViPKcz+0x178>
     aa4:	0f369863          	bne	a3,s3,b94 <_Z11addr_printfPViPKcz+0x1d8>
     aa8:	00740413          	addi	s0,s0,7
     aac:	ff847413          	andi	s0,s0,-8
     ab0:	00042503          	lw	a0,0(s0)
     ab4:	00442583          	lw	a1,4(s0)
     ab8:	00840413          	addi	s0,s0,8
     abc:	150010ef          	jal	ra,1c0c <__truncdfsf2>
     ac0:	b41ff0ef          	jal	ra,600 <_Z10ftoi_printf>
     ac4:	f6dff06f          	j	a30 <_Z11addr_printfPViPKcz+0x74>
     ac8:	002c4783          	lbu	a5,2(s8)
     acc:	f80780e3          	beqz	a5,a4c <_Z11addr_printfPViPKcz+0x90>
     ad0:	fd078793          	addi	a5,a5,-48
     ad4:	0ff7f793          	andi	a5,a5,255
     ad8:	003c4683          	lbu	a3,3(s8)
     adc:	00a7b713          	sltiu	a4,a5,10
     ae0:	40e00733          	neg	a4,a4
     ae4:	00e7f7b3          	and	a5,a5,a4
     ae8:	004c0c13          	addi	s8,s8,4
     aec:	fb2696e3          	bne	a3,s2,a98 <_Z11addr_printfPViPKcz+0xdc>
     af0:	00042503          	lw	a0,0(s0)
     af4:	f8b68693          	addi	a3,a3,-117
     af8:	00810713          	addi	a4,sp,8
     afc:	0016b693          	seqz	a3,a3
     b00:	00000613          	li	a2,0
     b04:	00a00593          	li	a1,10
     b08:	d40ff0ef          	jal	ra,48 <_Z4itoaijjjPcj.part.0>
     b0c:	00440413          	addi	s0,s0,4
     b10:	00050e63          	beqz	a0,b2c <_Z11addr_printfPViPKcz+0x170>
     b14:	00810793          	addi	a5,sp,8
     b18:	00a78533          	add	a0,a5,a0
     b1c:	0007c703          	lbu	a4,0(a5)
     b20:	00178793          	addi	a5,a5,1
     b24:	00eca023          	sw	a4,0(s9)
     b28:	fef51ae3          	bne	a0,a5,b1c <_Z11addr_printfPViPKcz+0x160>
     b2c:	000ca023          	sw	zero,0(s9)
     b30:	f01ff06f          	j	a30 <_Z11addr_printfPViPKcz+0x74>
     b34:	fb568ee3          	beq	a3,s5,af0 <_Z11addr_printfPViPKcz+0x134>
     b38:	05469e63          	bne	a3,s4,b94 <_Z11addr_printfPViPKcz+0x1d8>
     b3c:	00042503          	lw	a0,0(s0)
     b40:	fa868613          	addi	a2,a3,-88
     b44:	00810713          	addi	a4,sp,8
     b48:	00100693          	li	a3,1
     b4c:	00163613          	seqz	a2,a2
     b50:	01000593          	li	a1,16
     b54:	cf4ff0ef          	jal	ra,48 <_Z4itoaijjjPcj.part.0>
     b58:	00440413          	addi	s0,s0,4
     b5c:	fc0508e3          	beqz	a0,b2c <_Z11addr_printfPViPKcz+0x170>
     b60:	00810793          	addi	a5,sp,8
     b64:	00a78533          	add	a0,a5,a0
     b68:	0007c703          	lbu	a4,0(a5)
     b6c:	00178793          	addi	a5,a5,1
     b70:	00eca023          	sw	a4,0(s9)
     b74:	fea79ae3          	bne	a5,a0,b68 <_Z11addr_printfPViPKcz+0x1ac>
     b78:	000ca023          	sw	zero,0(s9)
     b7c:	eb5ff06f          	j	a30 <_Z11addr_printfPViPKcz+0x74>
     b80:	05800713          	li	a4,88
     b84:	fae68ce3          	beq	a3,a4,b3c <_Z11addr_printfPViPKcz+0x180>
     b88:	06300793          	li	a5,99
     b8c:	04f68c63          	beq	a3,a5,be4 <_Z11addr_printfPViPKcz+0x228>
     b90:	ea068ee3          	beqz	a3,a4c <_Z11addr_printfPViPKcz+0x90>
     b94:	00dca023          	sw	a3,0(s9)
     b98:	e99ff06f          	j	a30 <_Z11addr_printfPViPKcz+0x74>
     b9c:	00042783          	lw	a5,0(s0)
     ba0:	00440413          	addi	s0,s0,4
     ba4:	0007c703          	lbu	a4,0(a5)
     ba8:	f80702e3          	beqz	a4,b2c <_Z11addr_printfPViPKcz+0x170>
     bac:	00000713          	li	a4,0
     bb0:	00170713          	addi	a4,a4,1
     bb4:	00e786b3          	add	a3,a5,a4
     bb8:	0006c603          	lbu	a2,0(a3)
     bbc:	fe061ae3          	bnez	a2,bb0 <_Z11addr_printfPViPKcz+0x1f4>
     bc0:	0007c703          	lbu	a4,0(a5)
     bc4:	00178793          	addi	a5,a5,1
     bc8:	00eca023          	sw	a4,0(s9)
     bcc:	f6f680e3          	beq	a3,a5,b2c <_Z11addr_printfPViPKcz+0x170>
     bd0:	0007c703          	lbu	a4,0(a5)
     bd4:	00178793          	addi	a5,a5,1
     bd8:	00eca023          	sw	a4,0(s9)
     bdc:	fef692e3          	bne	a3,a5,bc0 <_Z11addr_printfPViPKcz+0x204>
     be0:	f4dff06f          	j	b2c <_Z11addr_printfPViPKcz+0x170>
     be4:	00044783          	lbu	a5,0(s0)
     be8:	00440413          	addi	s0,s0,4
     bec:	00fca023          	sw	a5,0(s9)
     bf0:	e41ff06f          	j	a30 <_Z11addr_printfPViPKcz+0x74>

00000bf4 <_Z7_printfPKcz>:
     bf4:	f9010113          	addi	sp,sp,-112
     bf8:	04812423          	sw	s0,72(sp)
     bfc:	05410413          	addi	s0,sp,84
     c00:	04912223          	sw	s1,68(sp)
     c04:	05212023          	sw	s2,64(sp)
     c08:	03312e23          	sw	s3,60(sp)
     c0c:	03412c23          	sw	s4,56(sp)
     c10:	03512a23          	sw	s5,52(sp)
     c14:	03612823          	sw	s6,48(sp)
     c18:	03712623          	sw	s7,44(sp)
     c1c:	03812423          	sw	s8,40(sp)
     c20:	04112623          	sw	ra,76(sp)
     c24:	00050b93          	mv	s7,a0
     c28:	04b12a23          	sw	a1,84(sp)
     c2c:	04c12c23          	sw	a2,88(sp)
     c30:	04d12e23          	sw	a3,92(sp)
     c34:	06e12023          	sw	a4,96(sp)
     c38:	06f12223          	sw	a5,100(sp)
     c3c:	07012423          	sw	a6,104(sp)
     c40:	07112623          	sw	a7,108(sp)
     c44:	00812223          	sw	s0,4(sp)
     c48:	02500b13          	li	s6,37
     c4c:	03000a93          	li	s5,48
     c50:	06400913          	li	s2,100
     c54:	00400c37          	lui	s8,0x400
     c58:	07300493          	li	s1,115
     c5c:	07500a13          	li	s4,117
     c60:	07800993          	li	s3,120
     c64:	000bc783          	lbu	a5,0(s7)
     c68:	00078c63          	beqz	a5,c80 <_Z7_printfPKcz+0x8c>
     c6c:	05678463          	beq	a5,s6,cb4 <_Z7_printfPKcz+0xc0>
     c70:	001b8b93          	addi	s7,s7,1
     c74:	00fc2223          	sw	a5,4(s8) # 400004 <__console_addr>
     c78:	000bc783          	lbu	a5,0(s7)
     c7c:	fe0798e3          	bnez	a5,c6c <_Z7_printfPKcz+0x78>
     c80:	04c12083          	lw	ra,76(sp)
     c84:	04812403          	lw	s0,72(sp)
     c88:	04412483          	lw	s1,68(sp)
     c8c:	04012903          	lw	s2,64(sp)
     c90:	03c12983          	lw	s3,60(sp)
     c94:	03812a03          	lw	s4,56(sp)
     c98:	03412a83          	lw	s5,52(sp)
     c9c:	03012b03          	lw	s6,48(sp)
     ca0:	02c12b83          	lw	s7,44(sp)
     ca4:	02812c03          	lw	s8,40(sp)
     ca8:	00000513          	li	a0,0
     cac:	07010113          	addi	sp,sp,112
     cb0:	00008067          	ret
     cb4:	001bc683          	lbu	a3,1(s7)
     cb8:	05568263          	beq	a3,s5,cfc <_Z7_printfPKcz+0x108>
     cbc:	002b8b93          	addi	s7,s7,2
     cc0:	00000793          	li	a5,0
     cc4:	07268063          	beq	a3,s2,d24 <_Z7_printfPKcz+0x130>
     cc8:	0ed97663          	bgeu	s2,a3,db4 <_Z7_printfPKcz+0x1c0>
     ccc:	10968263          	beq	a3,s1,dd0 <_Z7_printfPKcz+0x1dc>
     cd0:	08d4ec63          	bltu	s1,a3,d68 <_Z7_printfPKcz+0x174>
     cd4:	06600793          	li	a5,102
     cd8:	0ef69863          	bne	a3,a5,dc8 <_Z7_printfPKcz+0x1d4>
     cdc:	00740413          	addi	s0,s0,7
     ce0:	ff847413          	andi	s0,s0,-8
     ce4:	00042503          	lw	a0,0(s0)
     ce8:	00442583          	lw	a1,4(s0)
     cec:	00840413          	addi	s0,s0,8
     cf0:	71d000ef          	jal	ra,1c0c <__truncdfsf2>
     cf4:	90dff0ef          	jal	ra,600 <_Z10ftoi_printf>
     cf8:	f6dff06f          	j	c64 <_Z7_printfPKcz+0x70>
     cfc:	002bc783          	lbu	a5,2(s7)
     d00:	f80780e3          	beqz	a5,c80 <_Z7_printfPKcz+0x8c>
     d04:	fd078793          	addi	a5,a5,-48
     d08:	0ff7f793          	andi	a5,a5,255
     d0c:	003bc683          	lbu	a3,3(s7)
     d10:	00a7b713          	sltiu	a4,a5,10
     d14:	40e00733          	neg	a4,a4
     d18:	00e7f7b3          	and	a5,a5,a4
     d1c:	004b8b93          	addi	s7,s7,4
     d20:	fb2694e3          	bne	a3,s2,cc8 <_Z7_printfPKcz+0xd4>
     d24:	00042503          	lw	a0,0(s0)
     d28:	f8b68693          	addi	a3,a3,-117
     d2c:	00810713          	addi	a4,sp,8
     d30:	0016b693          	seqz	a3,a3
     d34:	00000613          	li	a2,0
     d38:	00a00593          	li	a1,10
     d3c:	b0cff0ef          	jal	ra,48 <_Z4itoaijjjPcj.part.0>
     d40:	00440413          	addi	s0,s0,4
     d44:	00050e63          	beqz	a0,d60 <_Z7_printfPKcz+0x16c>
     d48:	00810793          	addi	a5,sp,8
     d4c:	00a78533          	add	a0,a5,a0
     d50:	0007c703          	lbu	a4,0(a5)
     d54:	00178793          	addi	a5,a5,1
     d58:	00ec2223          	sw	a4,4(s8)
     d5c:	fef51ae3          	bne	a0,a5,d50 <_Z7_printfPKcz+0x15c>
     d60:	000c2223          	sw	zero,4(s8)
     d64:	f01ff06f          	j	c64 <_Z7_printfPKcz+0x70>
     d68:	fb468ee3          	beq	a3,s4,d24 <_Z7_printfPKcz+0x130>
     d6c:	05369e63          	bne	a3,s3,dc8 <_Z7_printfPKcz+0x1d4>
     d70:	00042503          	lw	a0,0(s0)
     d74:	fa868613          	addi	a2,a3,-88
     d78:	00810713          	addi	a4,sp,8
     d7c:	00100693          	li	a3,1
     d80:	00163613          	seqz	a2,a2
     d84:	01000593          	li	a1,16
     d88:	ac0ff0ef          	jal	ra,48 <_Z4itoaijjjPcj.part.0>
     d8c:	00440413          	addi	s0,s0,4
     d90:	fc0508e3          	beqz	a0,d60 <_Z7_printfPKcz+0x16c>
     d94:	00810793          	addi	a5,sp,8
     d98:	00a78533          	add	a0,a5,a0
     d9c:	0007c703          	lbu	a4,0(a5)
     da0:	00178793          	addi	a5,a5,1
     da4:	00ec2223          	sw	a4,4(s8)
     da8:	fea79ae3          	bne	a5,a0,d9c <_Z7_printfPKcz+0x1a8>
     dac:	000c2223          	sw	zero,4(s8)
     db0:	eb5ff06f          	j	c64 <_Z7_printfPKcz+0x70>
     db4:	05800713          	li	a4,88
     db8:	fae68ce3          	beq	a3,a4,d70 <_Z7_printfPKcz+0x17c>
     dbc:	06300793          	li	a5,99
     dc0:	04f68c63          	beq	a3,a5,e18 <_Z7_printfPKcz+0x224>
     dc4:	ea068ee3          	beqz	a3,c80 <_Z7_printfPKcz+0x8c>
     dc8:	00dc2223          	sw	a3,4(s8)
     dcc:	e99ff06f          	j	c64 <_Z7_printfPKcz+0x70>
     dd0:	00042783          	lw	a5,0(s0)
     dd4:	00440413          	addi	s0,s0,4
     dd8:	0007c703          	lbu	a4,0(a5)
     ddc:	f80702e3          	beqz	a4,d60 <_Z7_printfPKcz+0x16c>
     de0:	00000713          	li	a4,0
     de4:	00170713          	addi	a4,a4,1
     de8:	00e786b3          	add	a3,a5,a4
     dec:	0006c603          	lbu	a2,0(a3)
     df0:	fe061ae3          	bnez	a2,de4 <_Z7_printfPKcz+0x1f0>
     df4:	0007c703          	lbu	a4,0(a5)
     df8:	00178793          	addi	a5,a5,1
     dfc:	00ec2223          	sw	a4,4(s8)
     e00:	f6f680e3          	beq	a3,a5,d60 <_Z7_printfPKcz+0x16c>
     e04:	0007c703          	lbu	a4,0(a5)
     e08:	00178793          	addi	a5,a5,1
     e0c:	00ec2223          	sw	a4,4(s8)
     e10:	fef692e3          	bne	a3,a5,df4 <_Z7_printfPKcz+0x200>
     e14:	f4dff06f          	j	d60 <_Z7_printfPKcz+0x16c>
     e18:	00044783          	lbu	a5,0(s0)
     e1c:	00440413          	addi	s0,s0,4
     e20:	00fc2223          	sw	a5,4(s8)
     e24:	e41ff06f          	j	c64 <_Z7_printfPKcz+0x70>

00000e28 <_Z14float_multiplyff>:
     e28:	ff010113          	addi	sp,sp,-16
     e2c:	00112623          	sw	ra,12(sp)
     e30:	420000ef          	jal	ra,1250 <__mulsf3>
     e34:	00c12083          	lw	ra,12(sp)
     e38:	01010113          	addi	sp,sp,16
     e3c:	00008067          	ret

00000e40 <_Z6verifyiPfS_>:
     e40:	10a05263          	blez	a0,f44 <_Z6verifyiPfS_+0x104>
     e44:	fe010113          	addi	sp,sp,-32
     e48:	00912a23          	sw	s1,20(sp)
     e4c:	00058493          	mv	s1,a1
     e50:	01412423          	sw	s4,8(sp)
     e54:	00062583          	lw	a1,0(a2)
     e58:	00050a13          	mv	s4,a0
     e5c:	0004a503          	lw	a0,0(s1)
     e60:	00812c23          	sw	s0,24(sp)
     e64:	01212823          	sw	s2,16(sp)
     e68:	01512223          	sw	s5,4(sp)
     e6c:	00112e23          	sw	ra,28(sp)
     e70:	01312623          	sw	s3,12(sp)
     e74:	01612023          	sw	s6,0(sp)
     e78:	00060413          	mv	s0,a2
     e7c:	784000ef          	jal	ra,1600 <__subsf3>
     e80:	000047b7          	lui	a5,0x4
     e84:	6087aa83          	lw	s5,1544(a5) # 4608 <input_data1+0xbbc>
     e88:	00050913          	mv	s2,a0
     e8c:	000a8593          	mv	a1,s5
     e90:	238000ef          	jal	ra,10c8 <__gesf2>
     e94:	06a04863          	bgtz	a0,f04 <_Z6verifyiPfS_+0xc4>
     e98:	000047b7          	lui	a5,0x4
     e9c:	60c7ab03          	lw	s6,1548(a5) # 460c <input_data1+0xbc0>
     ea0:	00090513          	mv	a0,s2
     ea4:	00448493          	addi	s1,s1,4
     ea8:	000b0593          	mv	a1,s6
     eac:	2e0000ef          	jal	ra,118c <__lesf2>
     eb0:	00440413          	addi	s0,s0,4
     eb4:	00000913          	li	s2,0
     eb8:	02055e63          	bgez	a0,ef4 <_Z6verifyiPfS_+0xb4>
     ebc:	0480006f          	j	f04 <_Z6verifyiPfS_+0xc4>
     ec0:	00042583          	lw	a1,0(s0)
     ec4:	0004a503          	lw	a0,0(s1)
     ec8:	00440413          	addi	s0,s0,4
     ecc:	00448493          	addi	s1,s1,4
     ed0:	730000ef          	jal	ra,1600 <__subsf3>
     ed4:	000a8593          	mv	a1,s5
     ed8:	00050993          	mv	s3,a0
     edc:	1ec000ef          	jal	ra,10c8 <__gesf2>
     ee0:	000b0593          	mv	a1,s6
     ee4:	02a04263          	bgtz	a0,f08 <_Z6verifyiPfS_+0xc8>
     ee8:	00098513          	mv	a0,s3
     eec:	2a0000ef          	jal	ra,118c <__lesf2>
     ef0:	00054c63          	bltz	a0,f08 <_Z6verifyiPfS_+0xc8>
     ef4:	00190913          	addi	s2,s2,1
     ef8:	fd2a14e3          	bne	s4,s2,ec0 <_Z6verifyiPfS_+0x80>
     efc:	00000513          	li	a0,0
     f00:	01c0006f          	j	f1c <_Z6verifyiPfS_+0xdc>
     f04:	00000913          	li	s2,0
     f08:	00002537          	lui	a0,0x2
     f0c:	00090593          	mv	a1,s2
     f10:	e9c50513          	addi	a0,a0,-356 # 1e9c <vector+0x8>
     f14:	ce1ff0ef          	jal	ra,bf4 <_Z7_printfPKcz>
     f18:	00100513          	li	a0,1
     f1c:	01c12083          	lw	ra,28(sp)
     f20:	01812403          	lw	s0,24(sp)
     f24:	01412483          	lw	s1,20(sp)
     f28:	01012903          	lw	s2,16(sp)
     f2c:	00c12983          	lw	s3,12(sp)
     f30:	00812a03          	lw	s4,8(sp)
     f34:	00412a83          	lw	s5,4(sp)
     f38:	00012b03          	lw	s6,0(sp)
     f3c:	02010113          	addi	sp,sp,32
     f40:	00008067          	ret
     f44:	00000513          	li	a0,0
     f48:	00008067          	ret

00000f4c <__mulsi3>:
     f4c:	00050613          	mv	a2,a0
     f50:	00000513          	li	a0,0
     f54:	0015f693          	andi	a3,a1,1
     f58:	00068463          	beqz	a3,f60 <__mulsi3+0x14>
     f5c:	00c50533          	add	a0,a0,a2
     f60:	0015d593          	srli	a1,a1,0x1
     f64:	00161613          	slli	a2,a2,0x1
     f68:	fe0596e3          	bnez	a1,f54 <__mulsi3+0x8>
     f6c:	00008067          	ret

00000f70 <__divsi3>:
     f70:	06054063          	bltz	a0,fd0 <__umodsi3+0x10>
     f74:	0605c663          	bltz	a1,fe0 <__umodsi3+0x20>

00000f78 <__udivsi3>:
     f78:	00058613          	mv	a2,a1
     f7c:	00050593          	mv	a1,a0
     f80:	fff00513          	li	a0,-1
     f84:	02060c63          	beqz	a2,fbc <__udivsi3+0x44>
     f88:	00100693          	li	a3,1
     f8c:	00b67a63          	bgeu	a2,a1,fa0 <__udivsi3+0x28>
     f90:	00c05863          	blez	a2,fa0 <__udivsi3+0x28>
     f94:	00161613          	slli	a2,a2,0x1
     f98:	00169693          	slli	a3,a3,0x1
     f9c:	feb66ae3          	bltu	a2,a1,f90 <__udivsi3+0x18>
     fa0:	00000513          	li	a0,0
     fa4:	00c5e663          	bltu	a1,a2,fb0 <__udivsi3+0x38>
     fa8:	40c585b3          	sub	a1,a1,a2
     fac:	00d56533          	or	a0,a0,a3
     fb0:	0016d693          	srli	a3,a3,0x1
     fb4:	00165613          	srli	a2,a2,0x1
     fb8:	fe0696e3          	bnez	a3,fa4 <__udivsi3+0x2c>
     fbc:	00008067          	ret

00000fc0 <__umodsi3>:
     fc0:	00008293          	mv	t0,ra
     fc4:	fb5ff0ef          	jal	ra,f78 <__udivsi3>
     fc8:	00058513          	mv	a0,a1
     fcc:	00028067          	jr	t0
     fd0:	40a00533          	neg	a0,a0
     fd4:	0005d863          	bgez	a1,fe4 <__umodsi3+0x24>
     fd8:	40b005b3          	neg	a1,a1
     fdc:	f9dff06f          	j	f78 <__udivsi3>
     fe0:	40b005b3          	neg	a1,a1
     fe4:	00008293          	mv	t0,ra
     fe8:	f91ff0ef          	jal	ra,f78 <__udivsi3>
     fec:	40a00533          	neg	a0,a0
     ff0:	00028067          	jr	t0

00000ff4 <__modsi3>:
     ff4:	00008293          	mv	t0,ra
     ff8:	0005ca63          	bltz	a1,100c <__modsi3+0x18>
     ffc:	00054c63          	bltz	a0,1014 <__modsi3+0x20>
    1000:	f79ff0ef          	jal	ra,f78 <__udivsi3>
    1004:	00058513          	mv	a0,a1
    1008:	00028067          	jr	t0
    100c:	40b005b3          	neg	a1,a1
    1010:	fe0558e3          	bgez	a0,1000 <__modsi3+0xc>
    1014:	40a00533          	neg	a0,a0
    1018:	f61ff0ef          	jal	ra,f78 <__udivsi3>
    101c:	40b00533          	neg	a0,a1
    1020:	00028067          	jr	t0

Disassembly of section .text.startup:

00001024 <main>:
    1024:	81010113          	addi	sp,sp,-2032
    1028:	000017b7          	lui	a5,0x1
    102c:	7e812423          	sw	s0,2024(sp)
    1030:	7e912223          	sw	s1,2020(sp)
    1034:	7f212023          	sw	s2,2016(sp)
    1038:	7d312e23          	sw	s3,2012(sp)
    103c:	7e112623          	sw	ra,2028(sp)
    1040:	00004437          	lui	s0,0x4
    1044:	c1010113          	addi	sp,sp,-1008
    1048:	fffff4b7          	lui	s1,0xfffff
    104c:	bc078793          	addi	a5,a5,-1088 # bc0 <_Z11addr_printfPViPKcz+0x204>
    1050:	000019b7          	lui	s3,0x1
    1054:	a4c40413          	addi	s0,s0,-1460 # 3a4c <input_data1>
    1058:	00003937          	lui	s2,0x3
    105c:	44848493          	addi	s1,s1,1096 # fffff448 <__stop_addr+0xffbff440>
    1060:	002787b3          	add	a5,a5,sp
    1064:	bb898993          	addi	s3,s3,-1096 # bb8 <_Z11addr_printfPViPKcz+0x1fc>
    1068:	e9490913          	addi	s2,s2,-364 # 2e94 <input_data2>
    106c:	009784b3          	add	s1,a5,s1
    1070:	013409b3          	add	s3,s0,s3
    1074:	00092583          	lw	a1,0(s2)
    1078:	00042503          	lw	a0,0(s0)
    107c:	00440413          	addi	s0,s0,4
    1080:	00490913          	addi	s2,s2,4
    1084:	1cc000ef          	jal	ra,1250 <__mulsf3>
    1088:	00a4a023          	sw	a0,0(s1)
    108c:	00448493          	addi	s1,s1,4
    1090:	ff3412e3          	bne	s0,s3,1074 <main+0x50>
    1094:	000017b7          	lui	a5,0x1
    1098:	fffff5b7          	lui	a1,0xfffff
    109c:	bc078793          	addi	a5,a5,-1088 # bc0 <_Z11addr_printfPViPKcz+0x204>
    10a0:	002787b3          	add	a5,a5,sp
    10a4:	00002637          	lui	a2,0x2
    10a8:	44858593          	addi	a1,a1,1096 # fffff448 <__stop_addr+0xffbff440>
    10ac:	2dc60613          	addi	a2,a2,732 # 22dc <verify_data>
    10b0:	00b785b3          	add	a1,a5,a1
    10b4:	2ee00513          	li	a0,750
    10b8:	d89ff0ef          	jal	ra,e40 <_Z6verifyiPfS_>
    10bc:	00002537          	lui	a0,0x2
    10c0:	eac50513          	addi	a0,a0,-340 # 1eac <vector+0x18>
    10c4:	9c4ff0ef          	jal	ra,288 <_Z12write_stringPc>

Disassembly of section .text.__gesf2:

000010c8 <__gesf2>:
    10c8:	01755693          	srli	a3,a0,0x17
    10cc:	008007b7          	lui	a5,0x800
    10d0:	fff78793          	addi	a5,a5,-1 # 7fffff <__stop_addr+0x3ffff7>
    10d4:	0175d613          	srli	a2,a1,0x17
    10d8:	0ff6f693          	andi	a3,a3,255
    10dc:	0ff00813          	li	a6,255
    10e0:	00a7f8b3          	and	a7,a5,a0
    10e4:	01f55713          	srli	a4,a0,0x1f
    10e8:	00b7f7b3          	and	a5,a5,a1
    10ec:	0ff67613          	andi	a2,a2,255
    10f0:	01f5d513          	srli	a0,a1,0x1f
    10f4:	03068a63          	beq	a3,a6,1128 <__gesf2+0x60>
    10f8:	03060263          	beq	a2,a6,111c <__gesf2+0x54>
    10fc:	02069a63          	bnez	a3,1130 <__gesf2+0x68>
    1100:	00061463          	bnez	a2,1108 <__gesf2+0x40>
    1104:	04078a63          	beqz	a5,1158 <__gesf2+0x90>
    1108:	04088263          	beqz	a7,114c <__gesf2+0x84>
    110c:	06a70063          	beq	a4,a0,116c <__gesf2+0xa4>
    1110:	00100513          	li	a0,1
    1114:	02071e63          	bnez	a4,1150 <__gesf2+0x88>
    1118:	00008067          	ret
    111c:	fe0780e3          	beqz	a5,10fc <__gesf2+0x34>
    1120:	ffe00513          	li	a0,-2
    1124:	00008067          	ret
    1128:	fe089ce3          	bnez	a7,1120 <__gesf2+0x58>
    112c:	02d60c63          	beq	a2,a3,1164 <__gesf2+0x9c>
    1130:	00061463          	bnez	a2,1138 <__gesf2+0x70>
    1134:	fc078ee3          	beqz	a5,1110 <__gesf2+0x48>
    1138:	fca71ce3          	bne	a4,a0,1110 <__gesf2+0x48>
    113c:	02d65a63          	bge	a2,a3,1170 <__gesf2+0xa8>
    1140:	00051863          	bnez	a0,1150 <__gesf2+0x88>
    1144:	00100513          	li	a0,1
    1148:	00008067          	ret
    114c:	fc0516e3          	bnez	a0,1118 <__gesf2+0x50>
    1150:	fff00513          	li	a0,-1
    1154:	00008067          	ret
    1158:	00000513          	li	a0,0
    115c:	fa089ae3          	bnez	a7,1110 <__gesf2+0x48>
    1160:	00008067          	ret
    1164:	fc078ae3          	beqz	a5,1138 <__gesf2+0x70>
    1168:	fb9ff06f          	j	1120 <__gesf2+0x58>
    116c:	00000693          	li	a3,0
    1170:	00c6c863          	blt	a3,a2,1180 <__gesf2+0xb8>
    1174:	f917eee3          	bltu	a5,a7,1110 <__gesf2+0x48>
    1178:	00000513          	li	a0,0
    117c:	f8f8fee3          	bgeu	a7,a5,1118 <__gesf2+0x50>
    1180:	fc0708e3          	beqz	a4,1150 <__gesf2+0x88>
    1184:	00070513          	mv	a0,a4
    1188:	00008067          	ret

Disassembly of section .text.__lesf2:

0000118c <__lesf2>:
    118c:	01755693          	srli	a3,a0,0x17
    1190:	008007b7          	lui	a5,0x800
    1194:	fff78793          	addi	a5,a5,-1 # 7fffff <__stop_addr+0x3ffff7>
    1198:	0175d613          	srli	a2,a1,0x17
    119c:	0ff6f693          	andi	a3,a3,255
    11a0:	0ff00813          	li	a6,255
    11a4:	00a7f8b3          	and	a7,a5,a0
    11a8:	01f55713          	srli	a4,a0,0x1f
    11ac:	00b7f7b3          	and	a5,a5,a1
    11b0:	0ff67613          	andi	a2,a2,255
    11b4:	01f5d513          	srli	a0,a1,0x1f
    11b8:	05068263          	beq	a3,a6,11fc <__lesf2+0x70>
    11bc:	01060e63          	beq	a2,a6,11d8 <__lesf2+0x4c>
    11c0:	04069263          	bnez	a3,1204 <__lesf2+0x78>
    11c4:	02061063          	bnez	a2,11e4 <__lesf2+0x58>
    11c8:	00079e63          	bnez	a5,11e4 <__lesf2+0x58>
    11cc:	00000513          	li	a0,0
    11d0:	00089e63          	bnez	a7,11ec <__lesf2+0x60>
    11d4:	00008067          	ret
    11d8:	fe0784e3          	beqz	a5,11c0 <__lesf2+0x34>
    11dc:	00200513          	li	a0,2
    11e0:	00008067          	ret
    11e4:	02088e63          	beqz	a7,1220 <__lesf2+0x94>
    11e8:	04a70463          	beq	a4,a0,1230 <__lesf2+0xa4>
    11ec:	00100513          	li	a0,1
    11f0:	fe0702e3          	beqz	a4,11d4 <__lesf2+0x48>
    11f4:	fff00513          	li	a0,-1
    11f8:	00008067          	ret
    11fc:	fe0890e3          	bnez	a7,11dc <__lesf2+0x50>
    1200:	02d60463          	beq	a2,a3,1228 <__lesf2+0x9c>
    1204:	00061463          	bnez	a2,120c <__lesf2+0x80>
    1208:	fe0782e3          	beqz	a5,11ec <__lesf2+0x60>
    120c:	fea710e3          	bne	a4,a0,11ec <__lesf2+0x60>
    1210:	02d65263          	bge	a2,a3,1234 <__lesf2+0xa8>
    1214:	fe0510e3          	bnez	a0,11f4 <__lesf2+0x68>
    1218:	00100513          	li	a0,1
    121c:	00008067          	ret
    1220:	fc050ae3          	beqz	a0,11f4 <__lesf2+0x68>
    1224:	00008067          	ret
    1228:	fe0782e3          	beqz	a5,120c <__lesf2+0x80>
    122c:	fb1ff06f          	j	11dc <__lesf2+0x50>
    1230:	00000693          	li	a3,0
    1234:	00c6c863          	blt	a3,a2,1244 <__lesf2+0xb8>
    1238:	fb17eae3          	bltu	a5,a7,11ec <__lesf2+0x60>
    123c:	00000513          	li	a0,0
    1240:	f8f8fae3          	bgeu	a7,a5,11d4 <__lesf2+0x48>
    1244:	fa0708e3          	beqz	a4,11f4 <__lesf2+0x68>
    1248:	00070513          	mv	a0,a4
    124c:	00008067          	ret

Disassembly of section .text.__mulsf3:

00001250 <__mulsf3>:
    1250:	fd010113          	addi	sp,sp,-48
    1254:	02812423          	sw	s0,40(sp)
    1258:	01755413          	srli	s0,a0,0x17
    125c:	01412c23          	sw	s4,24(sp)
    1260:	01512a23          	sw	s5,20(sp)
    1264:	00951a13          	slli	s4,a0,0x9
    1268:	02112623          	sw	ra,44(sp)
    126c:	02912223          	sw	s1,36(sp)
    1270:	03212023          	sw	s2,32(sp)
    1274:	01312e23          	sw	s3,28(sp)
    1278:	01612823          	sw	s6,16(sp)
    127c:	0ff47413          	andi	s0,s0,255
    1280:	009a5a13          	srli	s4,s4,0x9
    1284:	01f55a93          	srli	s5,a0,0x1f
    1288:	12040063          	beqz	s0,13a8 <__mulsf3+0x158>
    128c:	0ff00793          	li	a5,255
    1290:	14f40863          	beq	s0,a5,13e0 <__mulsf3+0x190>
    1294:	003a1793          	slli	a5,s4,0x3
    1298:	04000737          	lui	a4,0x4000
    129c:	00e7ea33          	or	s4,a5,a4
    12a0:	f8140413          	addi	s0,s0,-127
    12a4:	00000493          	li	s1,0
    12a8:	00000b13          	li	s6,0
    12ac:	0175d713          	srli	a4,a1,0x17
    12b0:	00959913          	slli	s2,a1,0x9
    12b4:	0ff77713          	andi	a4,a4,255
    12b8:	00995913          	srli	s2,s2,0x9
    12bc:	01f5d993          	srli	s3,a1,0x1f
    12c0:	10070863          	beqz	a4,13d0 <__mulsf3+0x180>
    12c4:	0ff00793          	li	a5,255
    12c8:	04f70663          	beq	a4,a5,1314 <__mulsf3+0xc4>
    12cc:	00391913          	slli	s2,s2,0x3
    12d0:	f8170713          	addi	a4,a4,-127 # 3ffff81 <__stop_addr+0x3bfff79>
    12d4:	040007b7          	lui	a5,0x4000
    12d8:	00f96933          	or	s2,s2,a5
    12dc:	00e40433          	add	s0,s0,a4
    12e0:	00000613          	li	a2,0
    12e4:	013ac833          	xor	a6,s5,s3
    12e8:	00f00793          	li	a5,15
    12ec:	00080693          	mv	a3,a6
    12f0:	00140893          	addi	a7,s0,1
    12f4:	1897e263          	bltu	a5,s1,1478 <__mulsf3+0x228>
    12f8:	00001717          	auipc	a4,0x1
    12fc:	bbc70713          	addi	a4,a4,-1092 # 1eb4 <vector+0x20>
    1300:	00249493          	slli	s1,s1,0x2
    1304:	00e484b3          	add	s1,s1,a4
    1308:	0004a783          	lw	a5,0(s1)
    130c:	00e787b3          	add	a5,a5,a4
    1310:	00078067          	jr	a5 # 4000000 <__stop_addr+0x3bffff8>
    1314:	0ff40413          	addi	s0,s0,255
    1318:	12091c63          	bnez	s2,1450 <__mulsf3+0x200>
    131c:	0024e493          	ori	s1,s1,2
    1320:	00200613          	li	a2,2
    1324:	fc1ff06f          	j	12e4 <__mulsf3+0x94>
    1328:	00000813          	li	a6,0
    132c:	0ff00713          	li	a4,255
    1330:	004007b7          	lui	a5,0x400
    1334:	02c12083          	lw	ra,44(sp)
    1338:	02812403          	lw	s0,40(sp)
    133c:	00979793          	slli	a5,a5,0x9
    1340:	01771713          	slli	a4,a4,0x17
    1344:	0097d793          	srli	a5,a5,0x9
    1348:	01f81513          	slli	a0,a6,0x1f
    134c:	00e7e7b3          	or	a5,a5,a4
    1350:	02412483          	lw	s1,36(sp)
    1354:	02012903          	lw	s2,32(sp)
    1358:	01c12983          	lw	s3,28(sp)
    135c:	01812a03          	lw	s4,24(sp)
    1360:	01412a83          	lw	s5,20(sp)
    1364:	01012b03          	lw	s6,16(sp)
    1368:	00a7e533          	or	a0,a5,a0
    136c:	03010113          	addi	sp,sp,48
    1370:	00008067          	ret
    1374:	00098693          	mv	a3,s3
    1378:	00090a13          	mv	s4,s2
    137c:	00060b13          	mv	s6,a2
    1380:	00200793          	li	a5,2
    1384:	0efb0263          	beq	s6,a5,1468 <__mulsf3+0x218>
    1388:	00300793          	li	a5,3
    138c:	f8fb0ee3          	beq	s6,a5,1328 <__mulsf3+0xd8>
    1390:	00100793          	li	a5,1
    1394:	00068813          	mv	a6,a3
    1398:	24fb1a63          	bne	s6,a5,15ec <__mulsf3+0x39c>
    139c:	00000713          	li	a4,0
    13a0:	00000793          	li	a5,0
    13a4:	f91ff06f          	j	1334 <__mulsf3+0xe4>
    13a8:	060a1e63          	bnez	s4,1424 <__mulsf3+0x1d4>
    13ac:	0175d713          	srli	a4,a1,0x17
    13b0:	00959913          	slli	s2,a1,0x9
    13b4:	0ff77713          	andi	a4,a4,255
    13b8:	00400493          	li	s1,4
    13bc:	00000413          	li	s0,0
    13c0:	00100b13          	li	s6,1
    13c4:	00995913          	srli	s2,s2,0x9
    13c8:	01f5d993          	srli	s3,a1,0x1f
    13cc:	ee071ce3          	bnez	a4,12c4 <__mulsf3+0x74>
    13d0:	02091263          	bnez	s2,13f4 <__mulsf3+0x1a4>
    13d4:	0014e493          	ori	s1,s1,1
    13d8:	00100613          	li	a2,1
    13dc:	f09ff06f          	j	12e4 <__mulsf3+0x94>
    13e0:	020a1a63          	bnez	s4,1414 <__mulsf3+0x1c4>
    13e4:	00800493          	li	s1,8
    13e8:	0ff00413          	li	s0,255
    13ec:	00200b13          	li	s6,2
    13f0:	ebdff06f          	j	12ac <__mulsf3+0x5c>
    13f4:	00090513          	mv	a0,s2
    13f8:	209000ef          	jal	ra,1e00 <__clzsi2>
    13fc:	ffb50793          	addi	a5,a0,-5
    1400:	40a40433          	sub	s0,s0,a0
    1404:	00f91933          	sll	s2,s2,a5
    1408:	f8a40413          	addi	s0,s0,-118
    140c:	00000613          	li	a2,0
    1410:	ed5ff06f          	j	12e4 <__mulsf3+0x94>
    1414:	00c00493          	li	s1,12
    1418:	0ff00413          	li	s0,255
    141c:	00300b13          	li	s6,3
    1420:	e8dff06f          	j	12ac <__mulsf3+0x5c>
    1424:	000a0513          	mv	a0,s4
    1428:	00b12623          	sw	a1,12(sp)
    142c:	1d5000ef          	jal	ra,1e00 <__clzsi2>
    1430:	ffb50793          	addi	a5,a0,-5
    1434:	f8a00413          	li	s0,-118
    1438:	00fa1a33          	sll	s4,s4,a5
    143c:	40a40433          	sub	s0,s0,a0
    1440:	00000493          	li	s1,0
    1444:	00000b13          	li	s6,0
    1448:	00c12583          	lw	a1,12(sp)
    144c:	e61ff06f          	j	12ac <__mulsf3+0x5c>
    1450:	0034e493          	ori	s1,s1,3
    1454:	00300613          	li	a2,3
    1458:	e8dff06f          	j	12e4 <__mulsf3+0x94>
    145c:	00200793          	li	a5,2
    1460:	000a8693          	mv	a3,s5
    1464:	f2fb12e3          	bne	s6,a5,1388 <__mulsf3+0x138>
    1468:	00068813          	mv	a6,a3
    146c:	0ff00713          	li	a4,255
    1470:	00000793          	li	a5,0
    1474:	ec1ff06f          	j	1334 <__mulsf3+0xe4>
    1478:	00010f37          	lui	t5,0x10
    147c:	ffff0313          	addi	t1,t5,-1 # ffff <input_data1+0xc5b3>
    1480:	006a7733          	and	a4,s4,t1
    1484:	00697333          	and	t1,s2,t1
    1488:	010a5a13          	srli	s4,s4,0x10
    148c:	01095913          	srli	s2,s2,0x10
    1490:	00070513          	mv	a0,a4
    1494:	00030593          	mv	a1,t1
    1498:	ab5ff0ef          	jal	ra,f4c <__mulsi3>
    149c:	00050e13          	mv	t3,a0
    14a0:	00090593          	mv	a1,s2
    14a4:	00070513          	mv	a0,a4
    14a8:	aa5ff0ef          	jal	ra,f4c <__mulsi3>
    14ac:	00050e93          	mv	t4,a0
    14b0:	00030593          	mv	a1,t1
    14b4:	000a0513          	mv	a0,s4
    14b8:	a95ff0ef          	jal	ra,f4c <__mulsi3>
    14bc:	00050313          	mv	t1,a0
    14c0:	00090593          	mv	a1,s2
    14c4:	000a0513          	mv	a0,s4
    14c8:	a85ff0ef          	jal	ra,f4c <__mulsi3>
    14cc:	010e5713          	srli	a4,t3,0x10
    14d0:	006e8eb3          	add	t4,t4,t1
    14d4:	01d70733          	add	a4,a4,t4
    14d8:	00677463          	bgeu	a4,t1,14e0 <__mulsf3+0x290>
    14dc:	01e50533          	add	a0,a0,t5
    14e0:	00010637          	lui	a2,0x10
    14e4:	fff60613          	addi	a2,a2,-1 # ffff <input_data1+0xc5b3>
    14e8:	00c776b3          	and	a3,a4,a2
    14ec:	01069693          	slli	a3,a3,0x10
    14f0:	00ce7e33          	and	t3,t3,a2
    14f4:	01c686b3          	add	a3,a3,t3
    14f8:	00669a13          	slli	s4,a3,0x6
    14fc:	01075713          	srli	a4,a4,0x10
    1500:	01403a33          	snez	s4,s4
    1504:	01a6d693          	srli	a3,a3,0x1a
    1508:	00a70733          	add	a4,a4,a0
    150c:	00671793          	slli	a5,a4,0x6
    1510:	00da66b3          	or	a3,s4,a3
    1514:	00d7ea33          	or	s4,a5,a3
    1518:	004a1793          	slli	a5,s4,0x4
    151c:	0007da63          	bgez	a5,1530 <__mulsf3+0x2e0>
    1520:	001a5713          	srli	a4,s4,0x1
    1524:	001a7793          	andi	a5,s4,1
    1528:	00f76a33          	or	s4,a4,a5
    152c:	00088413          	mv	s0,a7
    1530:	07f40713          	addi	a4,s0,127
    1534:	04e05663          	blez	a4,1580 <__mulsf3+0x330>
    1538:	007a7793          	andi	a5,s4,7
    153c:	00078a63          	beqz	a5,1550 <__mulsf3+0x300>
    1540:	00fa7793          	andi	a5,s4,15
    1544:	00400693          	li	a3,4
    1548:	00d78463          	beq	a5,a3,1550 <__mulsf3+0x300>
    154c:	004a0a13          	addi	s4,s4,4
    1550:	004a1793          	slli	a5,s4,0x4
    1554:	0007da63          	bgez	a5,1568 <__mulsf3+0x318>
    1558:	f80007b7          	lui	a5,0xf8000
    155c:	fff78793          	addi	a5,a5,-1 # f7ffffff <__stop_addr+0xf7bffff7>
    1560:	00fa7a33          	and	s4,s4,a5
    1564:	08040713          	addi	a4,s0,128
    1568:	0fe00793          	li	a5,254
    156c:	06e7ca63          	blt	a5,a4,15e0 <__mulsf3+0x390>
    1570:	006a1793          	slli	a5,s4,0x6
    1574:	0097d793          	srli	a5,a5,0x9
    1578:	0ff77713          	andi	a4,a4,255
    157c:	db9ff06f          	j	1334 <__mulsf3+0xe4>
    1580:	00100793          	li	a5,1
    1584:	40e786b3          	sub	a3,a5,a4
    1588:	00070a63          	beqz	a4,159c <__mulsf3+0x34c>
    158c:	01b00613          	li	a2,27
    1590:	00000713          	li	a4,0
    1594:	00000793          	li	a5,0
    1598:	d8d64ee3          	blt	a2,a3,1334 <__mulsf3+0xe4>
    159c:	09e40713          	addi	a4,s0,158
    15a0:	00ea1733          	sll	a4,s4,a4
    15a4:	00e03733          	snez	a4,a4
    15a8:	00da57b3          	srl	a5,s4,a3
    15ac:	00e7e7b3          	or	a5,a5,a4
    15b0:	0077f713          	andi	a4,a5,7
    15b4:	00070a63          	beqz	a4,15c8 <__mulsf3+0x378>
    15b8:	00f7f713          	andi	a4,a5,15
    15bc:	00400693          	li	a3,4
    15c0:	00d70463          	beq	a4,a3,15c8 <__mulsf3+0x378>
    15c4:	00478793          	addi	a5,a5,4
    15c8:	00579713          	slli	a4,a5,0x5
    15cc:	02074463          	bltz	a4,15f4 <__mulsf3+0x3a4>
    15d0:	00679793          	slli	a5,a5,0x6
    15d4:	0097d793          	srli	a5,a5,0x9
    15d8:	00000713          	li	a4,0
    15dc:	d59ff06f          	j	1334 <__mulsf3+0xe4>
    15e0:	0ff00713          	li	a4,255
    15e4:	00000793          	li	a5,0
    15e8:	d4dff06f          	j	1334 <__mulsf3+0xe4>
    15ec:	00088413          	mv	s0,a7
    15f0:	f41ff06f          	j	1530 <__mulsf3+0x2e0>
    15f4:	00100713          	li	a4,1
    15f8:	00000793          	li	a5,0
    15fc:	d39ff06f          	j	1334 <__mulsf3+0xe4>

Disassembly of section .text.__subsf3:

00001600 <__subsf3>:
    1600:	00800737          	lui	a4,0x800
    1604:	ff010113          	addi	sp,sp,-16
    1608:	fff70713          	addi	a4,a4,-1 # 7fffff <__stop_addr+0x3ffff7>
    160c:	01755693          	srli	a3,a0,0x17
    1610:	0175d813          	srli	a6,a1,0x17
    1614:	00a777b3          	and	a5,a4,a0
    1618:	0ff6f693          	andi	a3,a3,255
    161c:	01f55e93          	srli	t4,a0,0x1f
    1620:	00b77633          	and	a2,a4,a1
    1624:	00912223          	sw	s1,4(sp)
    1628:	01212023          	sw	s2,0(sp)
    162c:	0ff87813          	andi	a6,a6,255
    1630:	00112623          	sw	ra,12(sp)
    1634:	00812423          	sw	s0,8(sp)
    1638:	0ff00313          	li	t1,255
    163c:	00078e13          	mv	t3,a5
    1640:	00068913          	mv	s2,a3
    1644:	000e8493          	mv	s1,t4
    1648:	00379f13          	slli	t5,a5,0x3
    164c:	01f5d593          	srli	a1,a1,0x1f
    1650:	00361513          	slli	a0,a2,0x3
    1654:	410688b3          	sub	a7,a3,a6
    1658:	14680063          	beq	a6,t1,1798 <__subsf3+0x198>
    165c:	0015c593          	xori	a1,a1,1
    1660:	14be8c63          	beq	t4,a1,17b8 <__subsf3+0x1b8>
    1664:	0f105e63          	blez	a7,1760 <__subsf3+0x160>
    1668:	12081e63          	bnez	a6,17a4 <__subsf3+0x1a4>
    166c:	24050a63          	beqz	a0,18c0 <__subsf3+0x2c0>
    1670:	fff88893          	addi	a7,a7,-1
    1674:	40af07b3          	sub	a5,t5,a0
    1678:	02088863          	beqz	a7,16a8 <__subsf3+0xa8>
    167c:	0ff00793          	li	a5,255
    1680:	1cf68463          	beq	a3,a5,1848 <__subsf3+0x248>
    1684:	01b00793          	li	a5,27
    1688:	3317c263          	blt	a5,a7,19ac <__subsf3+0x3ac>
    168c:	02000713          	li	a4,32
    1690:	41170733          	sub	a4,a4,a7
    1694:	00e51733          	sll	a4,a0,a4
    1698:	011557b3          	srl	a5,a0,a7
    169c:	00e03733          	snez	a4,a4
    16a0:	00e7e7b3          	or	a5,a5,a4
    16a4:	40ff07b3          	sub	a5,t5,a5
    16a8:	00579713          	slli	a4,a5,0x5
    16ac:	20075463          	bgez	a4,18b4 <__subsf3+0x2b4>
    16b0:	04000437          	lui	s0,0x4000
    16b4:	fff40413          	addi	s0,s0,-1 # 3ffffff <__stop_addr+0x3bffff7>
    16b8:	0087f433          	and	s0,a5,s0
    16bc:	00040513          	mv	a0,s0
    16c0:	740000ef          	jal	ra,1e00 <__clzsi2>
    16c4:	ffb50513          	addi	a0,a0,-5
    16c8:	00a417b3          	sll	a5,s0,a0
    16cc:	23254063          	blt	a0,s2,18ec <__subsf3+0x2ec>
    16d0:	41250533          	sub	a0,a0,s2
    16d4:	00150413          	addi	s0,a0,1
    16d8:	02000713          	li	a4,32
    16dc:	40870733          	sub	a4,a4,s0
    16e0:	00e79733          	sll	a4,a5,a4
    16e4:	00e03733          	snez	a4,a4
    16e8:	0087d7b3          	srl	a5,a5,s0
    16ec:	00e7e7b3          	or	a5,a5,a4
    16f0:	00000913          	li	s2,0
    16f4:	0077f713          	andi	a4,a5,7
    16f8:	00070a63          	beqz	a4,170c <__subsf3+0x10c>
    16fc:	00f7f713          	andi	a4,a5,15
    1700:	00400693          	li	a3,4
    1704:	00d70463          	beq	a4,a3,170c <__subsf3+0x10c>
    1708:	00478793          	addi	a5,a5,4
    170c:	00579713          	slli	a4,a5,0x5
    1710:	1a075663          	bgez	a4,18bc <__subsf3+0x2bc>
    1714:	00190693          	addi	a3,s2,1
    1718:	0ff00713          	li	a4,255
    171c:	0014fe93          	andi	t4,s1,1
    1720:	1ce68063          	beq	a3,a4,18e0 <__subsf3+0x2e0>
    1724:	00679793          	slli	a5,a5,0x6
    1728:	0097d793          	srli	a5,a5,0x9
    172c:	0ff6f693          	andi	a3,a3,255
    1730:	00979793          	slli	a5,a5,0x9
    1734:	00c12083          	lw	ra,12(sp)
    1738:	00812403          	lw	s0,8(sp)
    173c:	0097d513          	srli	a0,a5,0x9
    1740:	01769693          	slli	a3,a3,0x17
    1744:	01fe9793          	slli	a5,t4,0x1f
    1748:	00d56533          	or	a0,a0,a3
    174c:	00412483          	lw	s1,4(sp)
    1750:	00012903          	lw	s2,0(sp)
    1754:	00f56533          	or	a0,a0,a5
    1758:	01010113          	addi	sp,sp,16
    175c:	00008067          	ret
    1760:	0c089263          	bnez	a7,1824 <__subsf3+0x224>
    1764:	00168713          	addi	a4,a3,1
    1768:	0fe77713          	andi	a4,a4,254
    176c:	18071e63          	bnez	a4,1908 <__subsf3+0x308>
    1770:	2a069a63          	bnez	a3,1a24 <__subsf3+0x424>
    1774:	280f0063          	beqz	t5,19f4 <__subsf3+0x3f4>
    1778:	fa050ce3          	beqz	a0,1730 <__subsf3+0x130>
    177c:	40af07b3          	sub	a5,t5,a0
    1780:	00579713          	slli	a4,a5,0x5
    1784:	2c075063          	bgez	a4,1a44 <__subsf3+0x444>
    1788:	41e507b3          	sub	a5,a0,t5
    178c:	00000913          	li	s2,0
    1790:	00058493          	mv	s1,a1
    1794:	f61ff06f          	j	16f4 <__subsf3+0xf4>
    1798:	ec0502e3          	beqz	a0,165c <__subsf3+0x5c>
    179c:	0cbe8e63          	beq	t4,a1,1878 <__subsf3+0x278>
    17a0:	fd1050e3          	blez	a7,1760 <__subsf3+0x160>
    17a4:	0ff00793          	li	a5,255
    17a8:	0af68063          	beq	a3,a5,1848 <__subsf3+0x248>
    17ac:	040007b7          	lui	a5,0x4000
    17b0:	00f56533          	or	a0,a0,a5
    17b4:	ed1ff06f          	j	1684 <__subsf3+0x84>
    17b8:	0d105063          	blez	a7,1878 <__subsf3+0x278>
    17bc:	0a080063          	beqz	a6,185c <__subsf3+0x25c>
    17c0:	0ff00793          	li	a5,255
    17c4:	08f68263          	beq	a3,a5,1848 <__subsf3+0x248>
    17c8:	040007b7          	lui	a5,0x4000
    17cc:	00f56533          	or	a0,a0,a5
    17d0:	01b00793          	li	a5,27
    17d4:	2717c063          	blt	a5,a7,1a34 <__subsf3+0x434>
    17d8:	02000713          	li	a4,32
    17dc:	41170733          	sub	a4,a4,a7
    17e0:	00e51733          	sll	a4,a0,a4
    17e4:	011557b3          	srl	a5,a0,a7
    17e8:	00e03733          	snez	a4,a4
    17ec:	00e7e7b3          	or	a5,a5,a4
    17f0:	01e787b3          	add	a5,a5,t5
    17f4:	00579713          	slli	a4,a5,0x5
    17f8:	0a075e63          	bgez	a4,18b4 <__subsf3+0x2b4>
    17fc:	00190913          	addi	s2,s2,1
    1800:	0ff00713          	li	a4,255
    1804:	0ce90e63          	beq	s2,a4,18e0 <__subsf3+0x2e0>
    1808:	7e0006b7          	lui	a3,0x7e000
    180c:	0017d713          	srli	a4,a5,0x1
    1810:	fff68693          	addi	a3,a3,-1 # 7dffffff <__stop_addr+0x7dbffff7>
    1814:	0017f793          	andi	a5,a5,1
    1818:	00d77733          	and	a4,a4,a3
    181c:	00f767b3          	or	a5,a4,a5
    1820:	ed5ff06f          	j	16f4 <__subsf3+0xf4>
    1824:	40d80733          	sub	a4,a6,a3
    1828:	14069263          	bnez	a3,196c <__subsf3+0x36c>
    182c:	1a0f0663          	beqz	t5,19d8 <__subsf3+0x3d8>
    1830:	fff70713          	addi	a4,a4,-1
    1834:	22070263          	beqz	a4,1a58 <__subsf3+0x458>
    1838:	0ff00793          	li	a5,255
    183c:	14f81063          	bne	a6,a5,197c <__subsf3+0x37c>
    1840:	00058493          	mv	s1,a1
    1844:	00060e13          	mv	t3,a2
    1848:	080e0a63          	beqz	t3,18dc <__subsf3+0x2dc>
    184c:	00000e93          	li	t4,0
    1850:	0ff00693          	li	a3,255
    1854:	004007b7          	lui	a5,0x400
    1858:	ed9ff06f          	j	1730 <__subsf3+0x130>
    185c:	06050263          	beqz	a0,18c0 <__subsf3+0x2c0>
    1860:	fff88893          	addi	a7,a7,-1
    1864:	00af07b3          	add	a5,t5,a0
    1868:	f80886e3          	beqz	a7,17f4 <__subsf3+0x1f4>
    186c:	0ff00793          	li	a5,255
    1870:	f6f690e3          	bne	a3,a5,17d0 <__subsf3+0x1d0>
    1874:	fd5ff06f          	j	1848 <__subsf3+0x248>
    1878:	0a089863          	bnez	a7,1928 <__subsf3+0x328>
    187c:	00168913          	addi	s2,a3,1
    1880:	0fe97713          	andi	a4,s2,254
    1884:	18071063          	bnez	a4,1a04 <__subsf3+0x404>
    1888:	16069063          	bnez	a3,19e8 <__subsf3+0x3e8>
    188c:	1c0f0e63          	beqz	t5,1a68 <__subsf3+0x468>
    1890:	ea0500e3          	beqz	a0,1730 <__subsf3+0x130>
    1894:	00af07b3          	add	a5,t5,a0
    1898:	00579713          	slli	a4,a5,0x5
    189c:	00000913          	li	s2,0
    18a0:	00075a63          	bgez	a4,18b4 <__subsf3+0x2b4>
    18a4:	fc000737          	lui	a4,0xfc000
    18a8:	fff70713          	addi	a4,a4,-1 # fbffffff <__stop_addr+0xfbbffff7>
    18ac:	00e7f7b3          	and	a5,a5,a4
    18b0:	00100913          	li	s2,1
    18b4:	0077f713          	andi	a4,a5,7
    18b8:	e40712e3          	bnez	a4,16fc <__subsf3+0xfc>
    18bc:	0037de13          	srli	t3,a5,0x3
    18c0:	0ff00793          	li	a5,255
    18c4:	f8f902e3          	beq	s2,a5,1848 <__subsf3+0x248>
    18c8:	009e1793          	slli	a5,t3,0x9
    18cc:	0097d793          	srli	a5,a5,0x9
    18d0:	0ff97693          	andi	a3,s2,255
    18d4:	0014fe93          	andi	t4,s1,1
    18d8:	e59ff06f          	j	1730 <__subsf3+0x130>
    18dc:	0014fe93          	andi	t4,s1,1
    18e0:	0ff00693          	li	a3,255
    18e4:	00000793          	li	a5,0
    18e8:	e49ff06f          	j	1730 <__subsf3+0x130>
    18ec:	fc000737          	lui	a4,0xfc000
    18f0:	fff70713          	addi	a4,a4,-1 # fbffffff <__stop_addr+0xfbbffff7>
    18f4:	00e7f7b3          	and	a5,a5,a4
    18f8:	0077f713          	andi	a4,a5,7
    18fc:	40a90933          	sub	s2,s2,a0
    1900:	de071ee3          	bnez	a4,16fc <__subsf3+0xfc>
    1904:	fb9ff06f          	j	18bc <__subsf3+0x2bc>
    1908:	40af0433          	sub	s0,t5,a0
    190c:	00541793          	slli	a5,s0,0x5
    1910:	1007c463          	bltz	a5,1a18 <__subsf3+0x418>
    1914:	da0414e3          	bnez	s0,16bc <__subsf3+0xbc>
    1918:	00000e93          	li	t4,0
    191c:	00000693          	li	a3,0
    1920:	00000793          	li	a5,0
    1924:	e0dff06f          	j	1730 <__subsf3+0x130>
    1928:	40d80733          	sub	a4,a6,a3
    192c:	08068463          	beqz	a3,19b4 <__subsf3+0x3b4>
    1930:	0ff00793          	li	a5,255
    1934:	f0f808e3          	beq	a6,a5,1844 <__subsf3+0x244>
    1938:	040007b7          	lui	a5,0x4000
    193c:	00ff6f33          	or	t5,t5,a5
    1940:	01b00793          	li	a5,27
    1944:	12e7cc63          	blt	a5,a4,1a7c <__subsf3+0x47c>
    1948:	02000793          	li	a5,32
    194c:	40e787b3          	sub	a5,a5,a4
    1950:	00ff17b3          	sll	a5,t5,a5
    1954:	00ef5733          	srl	a4,t5,a4
    1958:	00f037b3          	snez	a5,a5
    195c:	00f76733          	or	a4,a4,a5
    1960:	00a707b3          	add	a5,a4,a0
    1964:	00080913          	mv	s2,a6
    1968:	e8dff06f          	j	17f4 <__subsf3+0x1f4>
    196c:	0ff00793          	li	a5,255
    1970:	ecf808e3          	beq	a6,a5,1840 <__subsf3+0x240>
    1974:	040007b7          	lui	a5,0x4000
    1978:	00ff6f33          	or	t5,t5,a5
    197c:	01b00793          	li	a5,27
    1980:	0ae7ce63          	blt	a5,a4,1a3c <__subsf3+0x43c>
    1984:	02000793          	li	a5,32
    1988:	40e787b3          	sub	a5,a5,a4
    198c:	00ff17b3          	sll	a5,t5,a5
    1990:	00ef5733          	srl	a4,t5,a4
    1994:	00f037b3          	snez	a5,a5
    1998:	00f767b3          	or	a5,a4,a5
    199c:	40f507b3          	sub	a5,a0,a5
    19a0:	00080913          	mv	s2,a6
    19a4:	00058493          	mv	s1,a1
    19a8:	d01ff06f          	j	16a8 <__subsf3+0xa8>
    19ac:	00100793          	li	a5,1
    19b0:	cf5ff06f          	j	16a4 <__subsf3+0xa4>
    19b4:	0a0f0e63          	beqz	t5,1a70 <__subsf3+0x470>
    19b8:	fff70713          	addi	a4,a4,-1
    19bc:	00af07b3          	add	a5,t5,a0
    19c0:	00080913          	mv	s2,a6
    19c4:	e20708e3          	beqz	a4,17f4 <__subsf3+0x1f4>
    19c8:	0ff00793          	li	a5,255
    19cc:	f6f81ae3          	bne	a6,a5,1940 <__subsf3+0x340>
    19d0:	00060e13          	mv	t3,a2
    19d4:	e75ff06f          	j	1848 <__subsf3+0x248>
    19d8:	00060e13          	mv	t3,a2
    19dc:	00080913          	mv	s2,a6
    19e0:	00058493          	mv	s1,a1
    19e4:	eddff06f          	j	18c0 <__subsf3+0x2c0>
    19e8:	e40f0ee3          	beqz	t5,1844 <__subsf3+0x244>
    19ec:	e4050ee3          	beqz	a0,1848 <__subsf3+0x248>
    19f0:	e5dff06f          	j	184c <__subsf3+0x24c>
    19f4:	04050c63          	beqz	a0,1a4c <__subsf3+0x44c>
    19f8:	00058e93          	mv	t4,a1
    19fc:	00060793          	mv	a5,a2
    1a00:	d31ff06f          	j	1730 <__subsf3+0x130>
    1a04:	0ff00793          	li	a5,255
    1a08:	ecf90ce3          	beq	s2,a5,18e0 <__subsf3+0x2e0>
    1a0c:	00af07b3          	add	a5,t5,a0
    1a10:	0017d793          	srli	a5,a5,0x1
    1a14:	ea1ff06f          	j	18b4 <__subsf3+0x2b4>
    1a18:	41e50433          	sub	s0,a0,t5
    1a1c:	00058493          	mv	s1,a1
    1a20:	c9dff06f          	j	16bc <__subsf3+0xbc>
    1a24:	fc0f14e3          	bnez	t5,19ec <__subsf3+0x3ec>
    1a28:	e20502e3          	beqz	a0,184c <__subsf3+0x24c>
    1a2c:	00058493          	mv	s1,a1
    1a30:	e15ff06f          	j	1844 <__subsf3+0x244>
    1a34:	00100793          	li	a5,1
    1a38:	db9ff06f          	j	17f0 <__subsf3+0x1f0>
    1a3c:	00100793          	li	a5,1
    1a40:	f5dff06f          	j	199c <__subsf3+0x39c>
    1a44:	00000913          	li	s2,0
    1a48:	e60796e3          	bnez	a5,18b4 <__subsf3+0x2b4>
    1a4c:	00000e93          	li	t4,0
    1a50:	00000793          	li	a5,0
    1a54:	cddff06f          	j	1730 <__subsf3+0x130>
    1a58:	41e507b3          	sub	a5,a0,t5
    1a5c:	00080913          	mv	s2,a6
    1a60:	00058493          	mv	s1,a1
    1a64:	c45ff06f          	j	16a8 <__subsf3+0xa8>
    1a68:	00060793          	mv	a5,a2
    1a6c:	cc5ff06f          	j	1730 <__subsf3+0x130>
    1a70:	00060e13          	mv	t3,a2
    1a74:	00080913          	mv	s2,a6
    1a78:	e49ff06f          	j	18c0 <__subsf3+0x2c0>
    1a7c:	00100713          	li	a4,1
    1a80:	ee1ff06f          	j	1960 <__subsf3+0x360>

Disassembly of section .text.__fixsfsi:

00001a84 <__fixsfsi>:
    1a84:	00800637          	lui	a2,0x800
    1a88:	01755713          	srli	a4,a0,0x17
    1a8c:	fff60793          	addi	a5,a2,-1 # 7fffff <__stop_addr+0x3ffff7>
    1a90:	0ff77713          	andi	a4,a4,255
    1a94:	07e00593          	li	a1,126
    1a98:	00a7f6b3          	and	a3,a5,a0
    1a9c:	01f55793          	srli	a5,a0,0x1f
    1aa0:	00e5fe63          	bgeu	a1,a4,1abc <__fixsfsi+0x38>
    1aa4:	09d00593          	li	a1,157
    1aa8:	00e5fe63          	bgeu	a1,a4,1ac4 <__fixsfsi+0x40>
    1aac:	80000537          	lui	a0,0x80000
    1ab0:	fff54513          	not	a0,a0
    1ab4:	00a78533          	add	a0,a5,a0
    1ab8:	00008067          	ret
    1abc:	00000513          	li	a0,0
    1ac0:	00008067          	ret
    1ac4:	09500593          	li	a1,149
    1ac8:	00c6e6b3          	or	a3,a3,a2
    1acc:	02e5c063          	blt	a1,a4,1aec <__fixsfsi+0x68>
    1ad0:	09600613          	li	a2,150
    1ad4:	40e60733          	sub	a4,a2,a4
    1ad8:	00e6d733          	srl	a4,a3,a4
    1adc:	40e00533          	neg	a0,a4
    1ae0:	fe0790e3          	bnez	a5,1ac0 <__fixsfsi+0x3c>
    1ae4:	00070513          	mv	a0,a4
    1ae8:	00008067          	ret
    1aec:	f6a70713          	addi	a4,a4,-150
    1af0:	00e69733          	sll	a4,a3,a4
    1af4:	fe9ff06f          	j	1adc <__fixsfsi+0x58>

Disassembly of section .text.__floatsisf:

00001af8 <__floatsisf>:
    1af8:	ff010113          	addi	sp,sp,-16
    1afc:	00112623          	sw	ra,12(sp)
    1b00:	00812423          	sw	s0,8(sp)
    1b04:	00912223          	sw	s1,4(sp)
    1b08:	04050863          	beqz	a0,1b58 <__floatsisf+0x60>
    1b0c:	41f55793          	srai	a5,a0,0x1f
    1b10:	00a7c433          	xor	s0,a5,a0
    1b14:	40f40433          	sub	s0,s0,a5
    1b18:	00050493          	mv	s1,a0
    1b1c:	00040513          	mv	a0,s0
    1b20:	2e0000ef          	jal	ra,1e00 <__clzsi2>
    1b24:	09e00793          	li	a5,158
    1b28:	40a78733          	sub	a4,a5,a0
    1b2c:	09600793          	li	a5,150
    1b30:	01f4d493          	srli	s1,s1,0x1f
    1b34:	04e7ce63          	blt	a5,a4,1b90 <__floatsisf+0x98>
    1b38:	00800693          	li	a3,8
    1b3c:	0ff77793          	andi	a5,a4,255
    1b40:	00a6d663          	bge	a3,a0,1b4c <__floatsisf+0x54>
    1b44:	ff850513          	addi	a0,a0,-8 # 7ffffff8 <__stop_addr+0x7fbffff0>
    1b48:	00a41433          	sll	s0,s0,a0
    1b4c:	00941413          	slli	s0,s0,0x9
    1b50:	00945413          	srli	s0,s0,0x9
    1b54:	0100006f          	j	1b64 <__floatsisf+0x6c>
    1b58:	00000493          	li	s1,0
    1b5c:	00000793          	li	a5,0
    1b60:	00000413          	li	s0,0
    1b64:	00941413          	slli	s0,s0,0x9
    1b68:	00945513          	srli	a0,s0,0x9
    1b6c:	00c12083          	lw	ra,12(sp)
    1b70:	00812403          	lw	s0,8(sp)
    1b74:	01779793          	slli	a5,a5,0x17
    1b78:	01f49493          	slli	s1,s1,0x1f
    1b7c:	00f56533          	or	a0,a0,a5
    1b80:	00956533          	or	a0,a0,s1
    1b84:	00412483          	lw	s1,4(sp)
    1b88:	01010113          	addi	sp,sp,16
    1b8c:	00008067          	ret
    1b90:	09900793          	li	a5,153
    1b94:	02e7d063          	bge	a5,a4,1bb4 <__floatsisf+0xbc>
    1b98:	01b50793          	addi	a5,a0,27
    1b9c:	00500693          	li	a3,5
    1ba0:	00f417b3          	sll	a5,s0,a5
    1ba4:	40a686b3          	sub	a3,a3,a0
    1ba8:	00d45433          	srl	s0,s0,a3
    1bac:	00f037b3          	snez	a5,a5
    1bb0:	00f46433          	or	s0,s0,a5
    1bb4:	00500793          	li	a5,5
    1bb8:	00a7d663          	bge	a5,a0,1bc4 <__floatsisf+0xcc>
    1bbc:	ffb50793          	addi	a5,a0,-5
    1bc0:	00f41433          	sll	s0,s0,a5
    1bc4:	fc0006b7          	lui	a3,0xfc000
    1bc8:	fff68693          	addi	a3,a3,-1 # fbffffff <__stop_addr+0xfbbffff7>
    1bcc:	00747793          	andi	a5,s0,7
    1bd0:	00d47633          	and	a2,s0,a3
    1bd4:	02078463          	beqz	a5,1bfc <__floatsisf+0x104>
    1bd8:	00f47793          	andi	a5,s0,15
    1bdc:	00400593          	li	a1,4
    1be0:	00b78e63          	beq	a5,a1,1bfc <__floatsisf+0x104>
    1be4:	00460613          	addi	a2,a2,4
    1be8:	00561793          	slli	a5,a2,0x5
    1bec:	0007d863          	bgez	a5,1bfc <__floatsisf+0x104>
    1bf0:	09f00793          	li	a5,159
    1bf4:	00d67633          	and	a2,a2,a3
    1bf8:	40a78733          	sub	a4,a5,a0
    1bfc:	00661413          	slli	s0,a2,0x6
    1c00:	00945413          	srli	s0,s0,0x9
    1c04:	0ff77793          	andi	a5,a4,255
    1c08:	f5dff06f          	j	1b64 <__floatsisf+0x6c>

Disassembly of section .text.__truncdfsf2:

00001c0c <__truncdfsf2>:
    1c0c:	0145d693          	srli	a3,a1,0x14
    1c10:	00c59793          	slli	a5,a1,0xc
    1c14:	7ff6f693          	andi	a3,a3,2047
    1c18:	00c7d793          	srli	a5,a5,0xc
    1c1c:	00168613          	addi	a2,a3,1
    1c20:	00379793          	slli	a5,a5,0x3
    1c24:	01d55713          	srli	a4,a0,0x1d
    1c28:	7fe67613          	andi	a2,a2,2046
    1c2c:	01f5d593          	srli	a1,a1,0x1f
    1c30:	00f76733          	or	a4,a4,a5
    1c34:	00351893          	slli	a7,a0,0x3
    1c38:	0a060463          	beqz	a2,1ce0 <__truncdfsf2+0xd4>
    1c3c:	c8068813          	addi	a6,a3,-896
    1c40:	0fe00793          	li	a5,254
    1c44:	0307d463          	bge	a5,a6,1c6c <__truncdfsf2+0x60>
    1c48:	00000793          	li	a5,0
    1c4c:	00979513          	slli	a0,a5,0x9
    1c50:	0ff00693          	li	a3,255
    1c54:	01769693          	slli	a3,a3,0x17
    1c58:	00955513          	srli	a0,a0,0x9
    1c5c:	01f59593          	slli	a1,a1,0x1f
    1c60:	00d56533          	or	a0,a0,a3
    1c64:	00b56533          	or	a0,a0,a1
    1c68:	00008067          	ret
    1c6c:	0f005e63          	blez	a6,1d68 <__truncdfsf2+0x15c>
    1c70:	00651793          	slli	a5,a0,0x6
    1c74:	00371713          	slli	a4,a4,0x3
    1c78:	00f037b3          	snez	a5,a5
    1c7c:	00e7e7b3          	or	a5,a5,a4
    1c80:	01d8d893          	srli	a7,a7,0x1d
    1c84:	0117e7b3          	or	a5,a5,a7
    1c88:	0077f713          	andi	a4,a5,7
    1c8c:	16070663          	beqz	a4,1df8 <__truncdfsf2+0x1ec>
    1c90:	00f7f713          	andi	a4,a5,15
    1c94:	00400693          	li	a3,4
    1c98:	00d70463          	beq	a4,a3,1ca0 <__truncdfsf2+0x94>
    1c9c:	00478793          	addi	a5,a5,4 # 4000004 <__stop_addr+0x3bffffc>
    1ca0:	04000737          	lui	a4,0x4000
    1ca4:	00e7f733          	and	a4,a5,a4
    1ca8:	14070863          	beqz	a4,1df8 <__truncdfsf2+0x1ec>
    1cac:	00180713          	addi	a4,a6,1
    1cb0:	0ff00613          	li	a2,255
    1cb4:	0ff77693          	andi	a3,a4,255
    1cb8:	f8c708e3          	beq	a4,a2,1c48 <__truncdfsf2+0x3c>
    1cbc:	00679793          	slli	a5,a5,0x6
    1cc0:	0097d793          	srli	a5,a5,0x9
    1cc4:	00979513          	slli	a0,a5,0x9
    1cc8:	01769693          	slli	a3,a3,0x17
    1ccc:	00955513          	srli	a0,a0,0x9
    1cd0:	01f59593          	slli	a1,a1,0x1f
    1cd4:	00d56533          	or	a0,a0,a3
    1cd8:	00b56533          	or	a0,a0,a1
    1cdc:	00008067          	ret
    1ce0:	011767b3          	or	a5,a4,a7
    1ce4:	02069a63          	bnez	a3,1d18 <__truncdfsf2+0x10c>
    1ce8:	04078e63          	beqz	a5,1d44 <__truncdfsf2+0x138>
    1cec:	00500793          	li	a5,5
    1cf0:	00679793          	slli	a5,a5,0x6
    1cf4:	0097d793          	srli	a5,a5,0x9
    1cf8:	00979513          	slli	a0,a5,0x9
    1cfc:	0ff6f693          	andi	a3,a3,255
    1d00:	01769693          	slli	a3,a3,0x17
    1d04:	00955513          	srli	a0,a0,0x9
    1d08:	01f59593          	slli	a1,a1,0x1f
    1d0c:	00d56533          	or	a0,a0,a3
    1d10:	00b56533          	or	a0,a0,a1
    1d14:	00008067          	ret
    1d18:	f20788e3          	beqz	a5,1c48 <__truncdfsf2+0x3c>
    1d1c:	004007b7          	lui	a5,0x400
    1d20:	00979513          	slli	a0,a5,0x9
    1d24:	0ff00693          	li	a3,255
    1d28:	01769693          	slli	a3,a3,0x17
    1d2c:	00000593          	li	a1,0
    1d30:	00955513          	srli	a0,a0,0x9
    1d34:	01f59593          	slli	a1,a1,0x1f
    1d38:	00d56533          	or	a0,a0,a3
    1d3c:	00b56533          	or	a0,a0,a1
    1d40:	00008067          	ret
    1d44:	00000793          	li	a5,0
    1d48:	00979513          	slli	a0,a5,0x9
    1d4c:	00000693          	li	a3,0
    1d50:	01769693          	slli	a3,a3,0x17
    1d54:	00955513          	srli	a0,a0,0x9
    1d58:	01f59593          	slli	a1,a1,0x1f
    1d5c:	00d56533          	or	a0,a0,a3
    1d60:	00b56533          	or	a0,a0,a1
    1d64:	00008067          	ret
    1d68:	fe900793          	li	a5,-23
    1d6c:	06f84263          	blt	a6,a5,1dd0 <__truncdfsf2+0x1c4>
    1d70:	01e00793          	li	a5,30
    1d74:	00800637          	lui	a2,0x800
    1d78:	410787b3          	sub	a5,a5,a6
    1d7c:	01f00513          	li	a0,31
    1d80:	00c76633          	or	a2,a4,a2
    1d84:	04f55a63          	bge	a0,a5,1dd8 <__truncdfsf2+0x1cc>
    1d88:	ffe00713          	li	a4,-2
    1d8c:	41070733          	sub	a4,a4,a6
    1d90:	02000513          	li	a0,32
    1d94:	00e65733          	srl	a4,a2,a4
    1d98:	00a78863          	beq	a5,a0,1da8 <__truncdfsf2+0x19c>
    1d9c:	ca268693          	addi	a3,a3,-862
    1da0:	00d616b3          	sll	a3,a2,a3
    1da4:	00d8e8b3          	or	a7,a7,a3
    1da8:	011037b3          	snez	a5,a7
    1dac:	00e7e7b3          	or	a5,a5,a4
    1db0:	0077f713          	andi	a4,a5,7
    1db4:	00000813          	li	a6,0
    1db8:	ec071ce3          	bnez	a4,1c90 <__truncdfsf2+0x84>
    1dbc:	00579713          	slli	a4,a5,0x5
    1dc0:	00100693          	li	a3,1
    1dc4:	ee074ce3          	bltz	a4,1cbc <__truncdfsf2+0xb0>
    1dc8:	00000693          	li	a3,0
    1dcc:	f25ff06f          	j	1cf0 <__truncdfsf2+0xe4>
    1dd0:	00000693          	li	a3,0
    1dd4:	f19ff06f          	j	1cec <__truncdfsf2+0xe0>
    1dd8:	c8268693          	addi	a3,a3,-894
    1ddc:	00d89733          	sll	a4,a7,a3
    1de0:	00e03733          	snez	a4,a4
    1de4:	00d616b3          	sll	a3,a2,a3
    1de8:	00f8d8b3          	srl	a7,a7,a5
    1dec:	00d767b3          	or	a5,a4,a3
    1df0:	00f8e7b3          	or	a5,a7,a5
    1df4:	fbdff06f          	j	1db0 <__truncdfsf2+0x1a4>
    1df8:	00080693          	mv	a3,a6
    1dfc:	ef5ff06f          	j	1cf0 <__truncdfsf2+0xe4>

Disassembly of section .text.__clzsi2:

00001e00 <__clzsi2>:
    1e00:	000107b7          	lui	a5,0x10
    1e04:	04f57463          	bgeu	a0,a5,1e4c <__clzsi2+0x4c>
    1e08:	0ff00793          	li	a5,255
    1e0c:	02000713          	li	a4,32
    1e10:	00a7ee63          	bltu	a5,a0,1e2c <__clzsi2+0x2c>
    1e14:	00000797          	auipc	a5,0x0
    1e18:	0e078793          	addi	a5,a5,224 # 1ef4 <__clz_tab>
    1e1c:	00a787b3          	add	a5,a5,a0
    1e20:	0007c503          	lbu	a0,0(a5)
    1e24:	40a70533          	sub	a0,a4,a0
    1e28:	00008067          	ret
    1e2c:	00855513          	srli	a0,a0,0x8
    1e30:	00000797          	auipc	a5,0x0
    1e34:	0c478793          	addi	a5,a5,196 # 1ef4 <__clz_tab>
    1e38:	00a787b3          	add	a5,a5,a0
    1e3c:	0007c503          	lbu	a0,0(a5)
    1e40:	01800713          	li	a4,24
    1e44:	40a70533          	sub	a0,a4,a0
    1e48:	00008067          	ret
    1e4c:	010007b7          	lui	a5,0x1000
    1e50:	02f56263          	bltu	a0,a5,1e74 <__clzsi2+0x74>
    1e54:	01855513          	srli	a0,a0,0x18
    1e58:	00000797          	auipc	a5,0x0
    1e5c:	09c78793          	addi	a5,a5,156 # 1ef4 <__clz_tab>
    1e60:	00a787b3          	add	a5,a5,a0
    1e64:	0007c503          	lbu	a0,0(a5)
    1e68:	00800713          	li	a4,8
    1e6c:	40a70533          	sub	a0,a4,a0
    1e70:	00008067          	ret
    1e74:	01055513          	srli	a0,a0,0x10
    1e78:	00000797          	auipc	a5,0x0
    1e7c:	07c78793          	addi	a5,a5,124 # 1ef4 <__clz_tab>
    1e80:	00a787b3          	add	a5,a5,a0
    1e84:	0007c503          	lbu	a0,0(a5)
    1e88:	01000713          	li	a4,16
    1e8c:	40a70533          	sub	a0,a4,a0
    1e90:	00008067          	ret

Disassembly of section .vector:

00001e94 <vector>:
    1e94:	fffc                	fsw	fa5,124(a5)
    1e96:	0020003f  	0x20003f

Disassembly of section .rodata:

00001e9c <__clz_tab-0x58>:
    1e9c:	6166                	flw	ft2,88(sp)
    1e9e:	6c69                	lui	s8,0x1a
    1ea0:	74612073          	csrs	0x746,sp
    1ea4:	2520                	fld	fs0,72(a0)
    1ea6:	0a64                	addi	s1,sp,284
    1ea8:	0000                	unimp
    1eaa:	0000                	unimp
    1eac:	4150                	lw	a2,4(a0)
    1eae:	44455353          	0x44455353
    1eb2:	0021                	c.nop	8
    1eb4:	f5c4                	fsw	fs1,44(a1)
    1eb6:	ffff                	0xffff
    1eb8:	f4c4                	fsw	fs1,44(s1)
    1eba:	ffff                	0xffff
    1ebc:	f4c4                	fsw	fs1,44(s1)
    1ebe:	ffff                	0xffff
    1ec0:	f4c0                	fsw	fs0,44(s1)
    1ec2:	ffff                	0xffff
    1ec4:	f4cc                	fsw	fa1,44(s1)
    1ec6:	ffff                	0xffff
    1ec8:	f4cc                	fsw	fa1,44(s1)
    1eca:	ffff                	0xffff
    1ecc:	f474                	fsw	fa3,108(s0)
    1ece:	ffff                	0xffff
    1ed0:	f4c0                	fsw	fs0,44(s1)
    1ed2:	ffff                	0xffff
    1ed4:	f4cc                	fsw	fa1,44(s1)
    1ed6:	ffff                	0xffff
    1ed8:	f474                	fsw	fa3,108(s0)
    1eda:	ffff                	0xffff
    1edc:	f4cc                	fsw	fa1,44(s1)
    1ede:	ffff                	0xffff
    1ee0:	f4c0                	fsw	fs0,44(s1)
    1ee2:	ffff                	0xffff
    1ee4:	f5a8                	fsw	fa0,104(a1)
    1ee6:	ffff                	0xffff
    1ee8:	f5a8                	fsw	fa0,104(a1)
    1eea:	ffff                	0xffff
    1eec:	f5a8                	fsw	fa0,104(a1)
    1eee:	ffff                	0xffff
    1ef0:	f474                	fsw	fa3,108(s0)
    1ef2:	ffff                	0xffff

00001ef4 <__clz_tab>:
    1ef4:	0100                	addi	s0,sp,128
    1ef6:	0202                	c.slli64	tp
    1ef8:	03030303          	lb	t1,48(t1)
    1efc:	0404                	addi	s1,sp,512
    1efe:	0404                	addi	s1,sp,512
    1f00:	0404                	addi	s1,sp,512
    1f02:	0404                	addi	s1,sp,512
    1f04:	0505                	addi	a0,a0,1
    1f06:	0505                	addi	a0,a0,1
    1f08:	0505                	addi	a0,a0,1
    1f0a:	0505                	addi	a0,a0,1
    1f0c:	0505                	addi	a0,a0,1
    1f0e:	0505                	addi	a0,a0,1
    1f10:	0505                	addi	a0,a0,1
    1f12:	0505                	addi	a0,a0,1
    1f14:	0606                	slli	a2,a2,0x1
    1f16:	0606                	slli	a2,a2,0x1
    1f18:	0606                	slli	a2,a2,0x1
    1f1a:	0606                	slli	a2,a2,0x1
    1f1c:	0606                	slli	a2,a2,0x1
    1f1e:	0606                	slli	a2,a2,0x1
    1f20:	0606                	slli	a2,a2,0x1
    1f22:	0606                	slli	a2,a2,0x1
    1f24:	0606                	slli	a2,a2,0x1
    1f26:	0606                	slli	a2,a2,0x1
    1f28:	0606                	slli	a2,a2,0x1
    1f2a:	0606                	slli	a2,a2,0x1
    1f2c:	0606                	slli	a2,a2,0x1
    1f2e:	0606                	slli	a2,a2,0x1
    1f30:	0606                	slli	a2,a2,0x1
    1f32:	0606                	slli	a2,a2,0x1
    1f34:	07070707          	0x7070707
    1f38:	07070707          	0x7070707
    1f3c:	07070707          	0x7070707
    1f40:	07070707          	0x7070707
    1f44:	07070707          	0x7070707
    1f48:	07070707          	0x7070707
    1f4c:	07070707          	0x7070707
    1f50:	07070707          	0x7070707
    1f54:	07070707          	0x7070707
    1f58:	07070707          	0x7070707
    1f5c:	07070707          	0x7070707
    1f60:	07070707          	0x7070707
    1f64:	07070707          	0x7070707
    1f68:	07070707          	0x7070707
    1f6c:	07070707          	0x7070707
    1f70:	07070707          	0x7070707
    1f74:	0808                	addi	a0,sp,16
    1f76:	0808                	addi	a0,sp,16
    1f78:	0808                	addi	a0,sp,16
    1f7a:	0808                	addi	a0,sp,16
    1f7c:	0808                	addi	a0,sp,16
    1f7e:	0808                	addi	a0,sp,16
    1f80:	0808                	addi	a0,sp,16
    1f82:	0808                	addi	a0,sp,16
    1f84:	0808                	addi	a0,sp,16
    1f86:	0808                	addi	a0,sp,16
    1f88:	0808                	addi	a0,sp,16
    1f8a:	0808                	addi	a0,sp,16
    1f8c:	0808                	addi	a0,sp,16
    1f8e:	0808                	addi	a0,sp,16
    1f90:	0808                	addi	a0,sp,16
    1f92:	0808                	addi	a0,sp,16
    1f94:	0808                	addi	a0,sp,16
    1f96:	0808                	addi	a0,sp,16
    1f98:	0808                	addi	a0,sp,16
    1f9a:	0808                	addi	a0,sp,16
    1f9c:	0808                	addi	a0,sp,16
    1f9e:	0808                	addi	a0,sp,16
    1fa0:	0808                	addi	a0,sp,16
    1fa2:	0808                	addi	a0,sp,16
    1fa4:	0808                	addi	a0,sp,16
    1fa6:	0808                	addi	a0,sp,16
    1fa8:	0808                	addi	a0,sp,16
    1faa:	0808                	addi	a0,sp,16
    1fac:	0808                	addi	a0,sp,16
    1fae:	0808                	addi	a0,sp,16
    1fb0:	0808                	addi	a0,sp,16
    1fb2:	0808                	addi	a0,sp,16
    1fb4:	0808                	addi	a0,sp,16
    1fb6:	0808                	addi	a0,sp,16
    1fb8:	0808                	addi	a0,sp,16
    1fba:	0808                	addi	a0,sp,16
    1fbc:	0808                	addi	a0,sp,16
    1fbe:	0808                	addi	a0,sp,16
    1fc0:	0808                	addi	a0,sp,16
    1fc2:	0808                	addi	a0,sp,16
    1fc4:	0808                	addi	a0,sp,16
    1fc6:	0808                	addi	a0,sp,16
    1fc8:	0808                	addi	a0,sp,16
    1fca:	0808                	addi	a0,sp,16
    1fcc:	0808                	addi	a0,sp,16
    1fce:	0808                	addi	a0,sp,16
    1fd0:	0808                	addi	a0,sp,16
    1fd2:	0808                	addi	a0,sp,16
    1fd4:	0808                	addi	a0,sp,16
    1fd6:	0808                	addi	a0,sp,16
    1fd8:	0808                	addi	a0,sp,16
    1fda:	0808                	addi	a0,sp,16
    1fdc:	0808                	addi	a0,sp,16
    1fde:	0808                	addi	a0,sp,16
    1fe0:	0808                	addi	a0,sp,16
    1fe2:	0808                	addi	a0,sp,16
    1fe4:	0808                	addi	a0,sp,16
    1fe6:	0808                	addi	a0,sp,16
    1fe8:	0808                	addi	a0,sp,16
    1fea:	0808                	addi	a0,sp,16
    1fec:	0808                	addi	a0,sp,16
    1fee:	0808                	addi	a0,sp,16
    1ff0:	0808                	addi	a0,sp,16
    1ff2:	0808                	addi	a0,sp,16

Disassembly of section .eh_frame:

00001ff4 <.eh_frame>:
    1ff4:	0010                	0x10
    1ff6:	0000                	unimp
    1ff8:	0000                	unimp
    1ffa:	0000                	unimp
    1ffc:	7a01                	lui	s4,0xfffe0
    1ffe:	0052                	c.slli	zero,0x14
    2000:	7c01                	lui	s8,0xfffe0
    2002:	0101                	addi	sp,sp,0
    2004:	00020d1b          	0x20d1b
    2008:	0024                	addi	s1,sp,8
    200a:	0000                	unimp
    200c:	0018                	0x18
    200e:	0000                	unimp
    2010:	e010                	fsw	fa2,0(s0)
    2012:	ffff                	0xffff
    2014:	0028                	addi	a0,sp,8
    2016:	0000                	unimp
    2018:	4400                	lw	s0,8(s0)
    201a:	100e                	c.slli	zero,0x23
    201c:	8148                	0x8148
    201e:	8801                	andi	s0,s0,0
    2020:	4402                	lw	s0,0(sp)
    2022:	080c                	addi	a1,sp,16
    2024:	4c00                	lw	s0,24(s0)
    2026:	44c1                	li	s1,16
    2028:	0cc8                	addi	a0,sp,596
    202a:	1002                	c.slli	zero,0x20
    202c:	0e44                	addi	s1,sp,788
    202e:	0000                	unimp
    2030:	0040                	addi	s0,sp,4
    2032:	0000                	unimp
    2034:	0040                	addi	s0,sp,4
    2036:	0000                	unimp
    2038:	e010                	fsw	fa2,0(s0)
    203a:	ffff                	0xffff
    203c:	0230                	addi	a2,sp,264
    203e:	0000                	unimp
    2040:	4400                	lw	s0,8(s0)
    2042:	300e                	fld	ft0,224(sp)
    2044:	8864                	0x8864
    2046:	8902                	jr	s2
    2048:	94059303          	lh	t1,-1728(a1)
    204c:	9506                	add	a0,a0,ra
    204e:	92018107          	0x92018107
    2052:	9604                	0x9604
    2054:	9708                	0x9708
    2056:	0309                	addi	t1,t1,2
    2058:	0198                	addi	a4,sp,192
    205a:	c10a                	sw	sp,128(sp)
    205c:	c844                	sw	s1,20(s0)
    205e:	c944                	sw	s1,20(a0)
    2060:	d244                	sw	s1,36(a2)
    2062:	d344                	sw	s1,36(a4)
    2064:	d444                	sw	s1,44(s0)
    2066:	d544                	sw	s1,44(a0)
    2068:	d644                	sw	s1,44(a2)
    206a:	d744                	sw	s1,44(a4)
    206c:	0e44                	addi	s1,sp,788
    206e:	4400                	lw	s0,8(s0)
    2070:	0000000b          	0xb
    2074:	0010                	0x10
    2076:	0000                	unimp
    2078:	0084                	addi	s1,sp,64
    207a:	0000                	unimp
    207c:	e1fc                	fsw	fa5,68(a1)
    207e:	ffff                	0xffff
    2080:	0010                	0x10
    2082:	0000                	unimp
    2084:	0000                	unimp
    2086:	0000                	unimp
    2088:	0010                	0x10
    208a:	0000                	unimp
    208c:	0098                	addi	a4,sp,64
    208e:	0000                	unimp
    2090:	e1f8                	fsw	fa4,68(a1)
    2092:	ffff                	0xffff
    2094:	0030                	addi	a2,sp,8
    2096:	0000                	unimp
    2098:	0000                	unimp
    209a:	0000                	unimp
    209c:	0010                	0x10
    209e:	0000                	unimp
    20a0:	00ac                	addi	a1,sp,72
    20a2:	0000                	unimp
    20a4:	e214                	fsw	fa3,0(a2)
    20a6:	ffff                	0xffff
    20a8:	000c                	0xc
    20aa:	0000                	unimp
    20ac:	0000                	unimp
    20ae:	0000                	unimp
    20b0:	0010                	0x10
    20b2:	0000                	unimp
    20b4:	00c0                	addi	s0,sp,68
    20b6:	0000                	unimp
    20b8:	e20c                	fsw	fa1,0(a2)
    20ba:	ffff                	0xffff
    20bc:	0024                	addi	s1,sp,8
    20be:	0000                	unimp
    20c0:	0000                	unimp
    20c2:	0000                	unimp
    20c4:	0010                	0x10
    20c6:	0000                	unimp
    20c8:	00d4                	addi	a3,sp,68
    20ca:	0000                	unimp
    20cc:	e21c                	fsw	fa5,0(a2)
    20ce:	ffff                	0xffff
    20d0:	0030                	addi	a2,sp,8
    20d2:	0000                	unimp
    20d4:	0000                	unimp
    20d6:	0000                	unimp
    20d8:	0040                	addi	s0,sp,4
    20da:	0000                	unimp
    20dc:	00e8                	addi	a0,sp,76
    20de:	0000                	unimp
    20e0:	e238                	fsw	fa4,64(a2)
    20e2:	ffff                	0xffff
    20e4:	024c                	addi	a1,sp,260
    20e6:	0000                	unimp
    20e8:	4400                	lw	s0,8(s0)
    20ea:	300e                	fld	ft0,224(sp)
    20ec:	9348                	0x9348
    20ee:	8105                	srli	a0,a0,0x1
    20f0:	6001                	0x6001
    20f2:	0288                	addi	a0,sp,320
    20f4:	0389                	addi	t2,t2,2
    20f6:	0492                	slli	s1,s1,0x4
    20f8:	0694                	addi	a3,sp,832
    20fa:	0795                	addi	a5,a5,5
    20fc:	0896                	slli	a7,a7,0x5
    20fe:	98030997          	auipc	s3,0x98030
    2102:	0a01                	addi	s4,s4,0
    2104:	44c1                	li	s1,16
    2106:	44c8                	lw	a0,12(s1)
    2108:	44c9                	li	s1,18
    210a:	44d2                	lw	s1,20(sp)
    210c:	44d444d3          	0x44d444d3
    2110:	44d5                	li	s1,21
    2112:	44d6                	lw	s1,84(sp)
    2114:	000e44d7          	0xe44d7
    2118:	0b44                	addi	s1,sp,404
    211a:	0000                	unimp
    211c:	002c                	addi	a1,sp,8
    211e:	0000                	unimp
    2120:	012c                	addi	a1,sp,136
    2122:	0000                	unimp
    2124:	e440                	fsw	fs0,12(s0)
    2126:	ffff                	0xffff
    2128:	009c                	addi	a5,sp,64
    212a:	0000                	unimp
    212c:	4400                	lw	s0,8(s0)
    212e:	200e                	fld	ft0,192(sp)
    2130:	8154                	0x8154
    2132:	8801                	andi	s0,s0,0
    2134:	8902                	jr	s2
    2136:	93049203          	lh	tp,-1744(s1)
    213a:	0205                	addi	tp,tp,1
    213c:	c164                	sw	s1,68(a0)
    213e:	c844                	sw	s1,20(s0)
    2140:	c948                	sw	a0,20(a0)
    2142:	d244                	sw	s1,36(a2)
    2144:	d344                	sw	s1,36(a4)
    2146:	0e48                	addi	a0,sp,788
    2148:	0000                	unimp
    214a:	0000                	unimp
    214c:	0034                	addi	a3,sp,8
    214e:	0000                	unimp
    2150:	015c                	addi	a5,sp,132
    2152:	0000                	unimp
    2154:	e4ac                	fsw	fa1,72(s1)
    2156:	ffff                	0xffff
    2158:	01a0                	addi	s0,sp,200
    215a:	0000                	unimp
    215c:	4400                	lw	s0,8(s0)
    215e:	400e                	0x400e
    2160:	815c                	0x815c
    2162:	8801                	andi	s0,s0,0
    2164:	9202                	jalr	tp
    2166:	8904                	0x8904
    2168:	94059303          	lh	t1,-1728(a1)
    216c:	9506                	add	a0,a0,ra
    216e:	01580307          	0x1580307
    2172:	44c1                	li	s1,16
    2174:	48c8                	lw	a0,20(s1)
    2176:	44c9                	li	s1,18
    2178:	44d2                	lw	s1,20(sp)
    217a:	44d444d3          	0x44d444d3
    217e:	48d5                	li	a7,21
    2180:	000e                	c.slli	zero,0x3
    2182:	0000                	unimp
    2184:	0044                	addi	s1,sp,4
    2186:	0000                	unimp
    2188:	0194                	addi	a3,sp,192
    218a:	0000                	unimp
    218c:	e614                	fsw	fa3,8(a2)
    218e:	ffff                	0xffff
    2190:	021c                	addi	a5,sp,256
    2192:	0000                	unimp
    2194:	4400                	lw	s0,8(s0)
    2196:	500e                	0x500e
    2198:	886c                	0x886c
    219a:	8902                	jr	s2
    219c:	93049203          	lh	tp,-1744(s1)
    21a0:	9405                	srai	s0,s0,0x21
    21a2:	9506                	add	a0,a0,ra
    21a4:	97089607          	0x97089607
    21a8:	9809                	andi	s0,s0,-30
    21aa:	990a                	add	s2,s2,sp
    21ac:	0201810b          	0x201810b
    21b0:	0a48                	addi	a0,sp,276
    21b2:	44c1                	li	s1,16
    21b4:	44c8                	lw	a0,12(s1)
    21b6:	44c9                	li	s1,18
    21b8:	44d2                	lw	s1,20(sp)
    21ba:	44d444d3          	0x44d444d3
    21be:	44d5                	li	s1,21
    21c0:	44d6                	lw	s1,84(sp)
    21c2:	44d844d7          	0x44d844d7
    21c6:	48d9                	li	a7,22
    21c8:	000e                	c.slli	zero,0x3
    21ca:	0b44                	addi	s1,sp,404
    21cc:	0048                	addi	a0,sp,4
    21ce:	0000                	unimp
    21d0:	01dc                	addi	a5,sp,196
    21d2:	0000                	unimp
    21d4:	e7e8                	fsw	fa0,76(a5)
    21d6:	ffff                	0xffff
    21d8:	0238                	addi	a4,sp,264
    21da:	0000                	unimp
    21dc:	4400                	lw	s0,8(s0)
    21de:	700e                	flw	ft0,224(sp)
    21e0:	8844                	0x8844
    21e2:	6c0a                	flw	fs8,128(sp)
    21e4:	0b89                	addi	s7,s7,2
    21e6:	0c92                	slli	s9,s9,0x4
    21e8:	0e940d93          	addi	s11,s0,233
    21ec:	0f95                	addi	t6,t6,5
    21ee:	1096                	slli	ra,ra,0x25
    21f0:	12981197          	auipc	gp,0x12981
    21f4:	1399                	addi	t2,t2,-26
    21f6:	0981                	addi	s3,s3,0
    21f8:	6002                	flw	ft0,0(sp)
    21fa:	c10a                	sw	sp,128(sp)
    21fc:	c844                	sw	s1,20(s0)
    21fe:	c944                	sw	s1,20(a0)
    2200:	d244                	sw	s1,36(a2)
    2202:	d344                	sw	s1,36(a4)
    2204:	d444                	sw	s1,44(s0)
    2206:	d544                	sw	s1,44(a0)
    2208:	d644                	sw	s1,44(a2)
    220a:	d744                	sw	s1,44(a4)
    220c:	d844                	sw	s1,52(s0)
    220e:	d944                	sw	s1,52(a0)
    2210:	0e48                	addi	a0,sp,788
    2212:	4400                	lw	s0,8(s0)
    2214:	0000000b          	0xb
    2218:	0044                	addi	s1,sp,4
    221a:	0000                	unimp
    221c:	0228                	addi	a0,sp,264
    221e:	0000                	unimp
    2220:	e9d4                	fsw	fa3,20(a1)
    2222:	ffff                	0xffff
    2224:	0234                	addi	a3,sp,264
    2226:	0000                	unimp
    2228:	4400                	lw	s0,8(s0)
    222a:	700e                	flw	ft0,224(sp)
    222c:	8844                	0x8844
    222e:	680a                	flw	fa6,128(sp)
    2230:	0b89                	addi	s7,s7,2
    2232:	0c92                	slli	s9,s9,0x4
    2234:	0e940d93          	addi	s11,s0,233
    2238:	0f95                	addi	t6,t6,5
    223a:	1096                	slli	ra,ra,0x25
    223c:	12981197          	auipc	gp,0x12981
    2240:	0981                	addi	s3,s3,0
    2242:	6002                	flw	ft0,0(sp)
    2244:	c10a                	sw	sp,128(sp)
    2246:	c844                	sw	s1,20(s0)
    2248:	c944                	sw	s1,20(a0)
    224a:	d244                	sw	s1,36(a2)
    224c:	d344                	sw	s1,36(a4)
    224e:	d444                	sw	s1,44(s0)
    2250:	d544                	sw	s1,44(a0)
    2252:	d644                	sw	s1,44(a2)
    2254:	d744                	sw	s1,44(a4)
    2256:	d844                	sw	s1,52(s0)
    2258:	0e48                	addi	a0,sp,788
    225a:	4400                	lw	s0,8(s0)
    225c:	0000000b          	0xb
    2260:	0018                	0x18
    2262:	0000                	unimp
    2264:	0270                	addi	a2,sp,268
    2266:	0000                	unimp
    2268:	ebc0                	fsw	fs0,20(a5)
    226a:	ffff                	0xffff
    226c:	0018                	0x18
    226e:	0000                	unimp
    2270:	4400                	lw	s0,8(s0)
    2272:	100e                	c.slli	zero,0x23
    2274:	8144                	0x8144
    2276:	4801                	li	a6,0
    2278:	44c1                	li	s1,16
    227a:	000e                	c.slli	zero,0x3
    227c:	0038                	addi	a4,sp,8
    227e:	0000                	unimp
    2280:	028c                	addi	a1,sp,320
    2282:	0000                	unimp
    2284:	ebbc                	fsw	fa5,80(a5)
    2286:	ffff                	0xffff
    2288:	010c                	addi	a1,sp,128
    228a:	0000                	unimp
    228c:	4800                	lw	s0,16(s0)
    228e:	200e                	fld	ft0,192(sp)
    2290:	8944                	0x8944
    2292:	06944c03          	lbu	s8,105(s0)
    2296:	8860                	0x8860
    2298:	9202                	jalr	tp
    229a:	9504                	0x9504
    229c:	93018107          	0x93018107
    22a0:	9605                	srai	a2,a2,0x21
    22a2:	0208                	addi	a0,sp,256
    22a4:	c1a8                	sw	a0,64(a1)
    22a6:	c844                	sw	s1,20(s0)
    22a8:	c944                	sw	s1,20(a0)
    22aa:	d244                	sw	s1,36(a2)
    22ac:	d344                	sw	s1,36(a4)
    22ae:	d444                	sw	s1,44(s0)
    22b0:	d544                	sw	s1,44(a0)
    22b2:	d644                	sw	s1,44(a2)
    22b4:	0e44                	addi	s1,sp,788
    22b6:	0000                	unimp
    22b8:	0020                	addi	s0,sp,8
    22ba:	0000                	unimp
    22bc:	02c8                	addi	a0,sp,324
    22be:	0000                	unimp
    22c0:	ed64                	fsw	fs1,92(a0)
    22c2:	ffff                	0xffff
    22c4:	00a4                	addi	s1,sp,72
    22c6:	0000                	unimp
    22c8:	4400                	lw	s0,8(s0)
    22ca:	f00e                	fsw	ft3,32(sp)
    22cc:	0288580f          	0x288580f
    22d0:	0389                	addi	t2,t2,2
    22d2:	0492                	slli	s1,s1,0x4
    22d4:	01810593          	addi	a1,sp,24
    22d8:	0e48                	addi	a0,sp,788
    22da:	17e0                	addi	s0,sp,1004

Disassembly of section .data:

000022dc <verify_data>:
    22dc:	45d27a17          	auipc	s4,0x45d27
    22e0:	52fe                	lw	t0,252(sp)
    22e2:	4686                	lw	a3,64(sp)
    22e4:	d905                	beqz	a0,2214 <__clz_tab+0x320>
    22e6:	48a5                	li	a7,9
    22e8:	f3c5                	bnez	a5,2288 <__clz_tab+0x394>
    22ea:	4631                	li	a2,12
    22ec:	7da8                	flw	fa0,120(a1)
    22ee:	4902                	lw	s2,0(sp)
    22f0:	ab12                	fsd	ft4,400(sp)
    22f2:	4485                	li	s1,1
    22f4:	8658                	0x8658
    22f6:	45b0                	lw	a2,72(a1)
    22f8:	ef14                	fsw	fa3,24(a4)
    22fa:	4961                	li	s2,24
    22fc:	adc6                	fsd	fa7,216(sp)
    22fe:	490c                	lw	a1,16(a0)
    2300:	d718                	sw	a4,40(a4)
    2302:	461a                	lw	a2,132(sp)
    2304:	2a79                	jal	24a2 <verify_data+0x1c6>
    2306:	4895                	li	a7,5
    2308:	5096                	lw	ra,100(sp)
    230a:	4746                	lw	a4,80(sp)
    230c:	8a5a                	mv	s4,s6
    230e:	1738466b          	0x1738466b
    2312:	46dd                	li	a3,23
    2314:	2664                	fld	fs1,200(a2)
    2316:	480a                	lw	a6,128(sp)
    2318:	5a41                	li	s4,-16
    231a:	ff78474b          	fnmsub.q	fa4,fa6,fs7,ft11,rmm
    231e:	470d                	li	a4,3
    2320:	955c                	0x955c
    2322:	4791                	li	a5,4
    2324:	47e7ad27          	fsw	ft10,1146(a5)
    2328:	ec3d                	bnez	s0,23a6 <verify_data+0xca>
    232a:	64924797          	auipc	a5,0x64924
    232e:	48fe                	lw	a7,220(sp)
    2330:	479657cb          	fnmsub.q	fa5,fa2,fs9,fs0,unknown
    2334:	8af6                	mv	s5,t4
    2336:	45ad                	li	a1,11
    2338:	7f09                	lui	t5,0xfffe2
    233a:	4905                	li	s2,1
    233c:	e702                	fsw	ft0,140(sp)
    233e:	48c4                	lw	s1,20(s1)
    2340:	3cf1                	jal	1e1c <__clzsi2+0x1c>
    2342:	4854                	lw	a3,20(s0)
    2344:	c128                	sw	a0,64(a0)
    2346:	47f5                	li	a5,29
    2348:	dbaa                	sw	a0,244(sp)
    234a:	4865                	li	a6,25
    234c:	0902                	c.slli64	s2
    234e:	47a2                	lw	a5,8(sp)
    2350:	495984a7          	0x495984a7
    2354:	8c5a                	mv	s8,s6
    2356:	490a                	lw	s2,128(sp)
    2358:	76a5                	lui	a3,0xfffe9
    235a:	475e                	lw	a4,212(sp)
    235c:	c6f5                	beqz	a3,2448 <verify_data+0x16c>
    235e:	4940                	lw	s0,20(a0)
    2360:	7c04                	flw	fs1,56(s0)
    2362:	457e                	lw	a0,220(sp)
    2364:	4773aecf          	fnmadd.q	ft9,ft7,fs7,fs0,rdn
    2368:	9c04                	0x9c04
    236a:	0cc74933          	0xcc74933
    236e:	4726                	lw	a4,72(sp)
    2370:	6a2d                	lui	s4,0xb
    2372:	4932                	lw	s2,12(sp)
    2374:	6518                	flw	fa4,8(a0)
    2376:	4832                	lw	a6,12(sp)
    2378:	5534                	lw	a3,104(a0)
    237a:	4878                	lw	a4,84(s0)
    237c:	467d                	li	a2,31
    237e:	484e                	lw	a6,208(sp)
    2380:	18c1                	addi	a7,a7,-16
    2382:	4802                	lw	a6,0(sp)
    2384:	34d1                	jal	1e48 <__clzsi2+0x48>
    2386:	4879                	li	a6,30
    2388:	7e28                	flw	fa0,120(a2)
    238a:	4848                	lw	a0,20(s0)
    238c:	967a                	add	a2,a2,t5
    238e:	a97f4913          	xori	s2,t5,-1385
    2392:	486e                	lw	a6,216(sp)
    2394:	4ec6                	lw	t4,80(sp)
    2396:	47f1                	li	a5,28
    2398:	7c80                	flw	fs0,56(s1)
    239a:	4885                	li	a7,1
    239c:	666d                	lui	a2,0x1b
    239e:	4806                	lw	a6,64(sp)
    23a0:	0446                	slli	s0,s0,0x11
    23a2:	48c9                	li	a7,18
    23a4:	2b62                	fld	fs6,24(sp)
    23a6:	4905                	li	s2,1
    23a8:	db16                	sw	t0,180(sp)
    23aa:	4712                	lw	a4,4(sp)
    23ac:	1ac0                	addi	s0,sp,372
    23ae:	481a                	lw	a6,132(sp)
    23b0:	4812c73f 4848771a 	0x4848771a4812c73f
    23b8:	7a4a                	flw	fs4,176(sp)
    23ba:	4895                	li	a7,5
    23bc:	48c2c92b          	0x48c2c92b
    23c0:	2c09                	jal	25d2 <verify_data+0x2f6>
    23c2:	4870                	lw	a2,84(s0)
    23c4:	04f2                	slli	s1,s1,0x1c
    23c6:	48d2                	lw	a7,20(sp)
    23c8:	dd98                	sw	a4,56(a1)
    23ca:	4820                	lw	s0,80(s0)
    23cc:	56d4                	lw	a3,44(a3)
    23ce:	9e4b48cf          	fnmadd.q	fa7,fs6,ft4,fs3,rmm
    23d2:	48e6                	lw	a7,88(sp)
    23d4:	962a                	add	a2,a2,a0
    23d6:	48f2                	lw	a7,28(sp)
    23d8:	48907177          	0x48907177
    23dc:	ccfc                	sw	a5,92(s1)
    23de:	481d                	li	a6,7
    23e0:	ce46                	sw	a7,28(sp)
    23e2:	478d                	li	a5,3
    23e4:	485cf333          	0x485cf333
    23e8:	e91e                	fsw	ft7,144(sp)
    23ea:	48e6                	lw	a7,88(sp)
    23ec:	824e                	mv	tp,s3
    23ee:	490c                	lw	a1,16(a0)
    23f0:	30b6                	fld	ft1,360(sp)
    23f2:	4920                	lw	s0,80(a0)
    23f4:	12b1                	addi	t0,t0,-20
    23f6:	4778                	lw	a4,76(a4)
    23f8:	3c32                	fld	fs8,296(sp)
    23fa:	4819                	li	a6,6
    23fc:	c184                	sw	s1,0(a1)
    23fe:	4848                	lw	a0,20(s0)
    2400:	a9e0                	fsd	fs0,208(a1)
    2402:	48b4                	lw	a3,80(s1)
    2404:	4823472b          	0x4823472b
    2408:	77f0                	flw	fa2,108(a5)
    240a:	4952                	lw	s2,20(sp)
    240c:	a092                	fsd	ft4,64(sp)
    240e:	76a8483b          	0x76a8483b
    2412:	48a4                	lw	s1,80(s1)
    2414:	30dc                	fld	fa5,160(s1)
    2416:	462e                	lw	a2,200(sp)
    2418:	0f44                	addi	s1,sp,916
    241a:	4edb48cf          	fnmadd.q	fa7,fs6,fa3,fs1,rmm
    241e:	483e                	lw	a6,204(sp)
    2420:	1320                	addi	s0,sp,424
    2422:	491a                	lw	s2,132(sp)
    2424:	c4b0                	sw	a2,72(s1)
    2426:	4802                	lw	a6,0(sp)
    2428:	47d972a3          	0x47d972a3
    242c:	0dea                	slli	s11,s11,0x1a
    242e:	31794883          	lbu	a7,791(s2)
    2432:	485c                	lw	a5,20(s0)
    2434:	48bf448f          	0x48bf448f
    2438:	4911ab47          	fmsub.s	fs6,ft3,fa7,fs1,rdn
    243c:	e3e9                	bnez	a5,24fe <verify_data+0x222>
    243e:	48e8                	lw	a0,84(s1)
    2440:	fd65                	bnez	a0,2438 <verify_data+0x15c>
    2442:	4778                	lw	a4,76(a4)
    2444:	0419                	addi	s0,s0,6
    2446:	62954827          	fsq	fs1,1584(a0)
    244a:	485a                	lw	a6,148(sp)
    244c:	0551                	addi	a0,a0,20
    244e:	3ac348f7          	0x3ac348f7
    2452:	b56547cb          	0xb56547cb
    2456:	4898                	lw	a4,16(s1)
    2458:	4760e503          	0x4760e503
    245c:	492eb51b          	0x492eb51b
    2460:	2ff5                	jal	2c5c <verify_data+0x980>
    2462:	488a                	lw	a7,128(sp)
    2464:	3532                	fld	fa0,296(sp)
    2466:	f6d3496b          	0xf6d3496b
    246a:	4794                	lw	a3,8(a5)
    246c:	4619                	li	a2,6
    246e:	4735                	li	a4,13
    2470:	6d58                	flw	fa4,28(a0)
    2472:	4854                	lw	a3,20(s0)
    2474:	2b00                	fld	fs0,16(a4)
    2476:	495e                	lw	s2,212(sp)
    2478:	488418f7          	0x488418f7
    247c:	9d82                	jalr	s11
    247e:	47fe                	lw	a5,220(sp)
    2480:	af99                	j	2bd6 <verify_data+0x8fa>
    2482:	4940                	lw	s0,20(a0)
    2484:	4762bcef          	jal	s9,2d8fa <input_data1+0x29eae>
    2488:	961a                	add	a2,a2,t1
    248a:	4972                	lw	s2,28(sp)
    248c:	48a04d03          	lbu	s10,1162(zero) # 48a <_Z4itoaijjjPcj+0x172>
    2490:	d0c5                	beqz	s1,2430 <verify_data+0x154>
    2492:	4856                	lw	a6,84(sp)
    2494:	4786e44b          	fnmsub.q	fs0,fa3,fs8,fs0,unknown
    2498:	964d                	srai	a2,a2,0x33
    249a:	49624763          	blt	tp,s6,2928 <verify_data+0x64c>
    249e:	47f9                	li	a5,30
    24a0:	e32c                	fsw	fa1,64(a4)
    24a2:	480d                	li	a6,3
    24a4:	47ae15ef          	jal	a1,e391e <input_data1+0xdfed2>
    24a8:	494938db          	0x494938db
    24ac:	7519                	lui	a0,0xfffe6
    24ae:	952d47eb          	0x952d47eb
    24b2:	48a2                	lw	a7,8(sp)
    24b4:	469b2ab7          	lui	s5,0x469b2
    24b8:	e5b6                	fsw	fa3,200(sp)
    24ba:	06294727          	fsq	ft2,110(s2)
    24be:	4860                	lw	s0,84(s0)
    24c0:	90ba                	add	ra,ra,a4
    24c2:	48d6                	lw	a7,84(sp)
    24c4:	afc1                	j	2c94 <verify_data+0x9b8>
    24c6:	4858                	lw	a4,20(s0)
    24c8:	d85c                	sw	a5,52(s0)
    24ca:	4902                	lw	s2,0(sp)
    24cc:	e889                	bnez	s1,24de <verify_data+0x202>
    24ce:	479a                	lw	a5,132(sp)
    24d0:	4378                	lw	a4,68(a4)
    24d2:	46ad                	li	a3,11
    24d4:	47d2bccf          	fnmadd.q	fs9,ft5,ft9,fs0,rup
    24d8:	484dc7ab          	0x484dc7ab
    24dc:	ad2d                	j	2b16 <verify_data+0x83a>
    24de:	31d345f7          	0x31d345f7
    24e2:	48b6                	lw	a7,76(sp)
    24e4:	480940bb          	0x480940bb
    24e8:	fc10                	fsw	fa2,56(s0)
    24ea:	4732                	lw	a4,12(sp)
    24ec:	48e54333          	0x48e54333
    24f0:	a13d                	j	291e <verify_data+0x642>
    24f2:	4851                	li	a6,20
    24f4:	fb96                	fsw	ft5,244(sp)
    24f6:	470e                	lw	a4,192(sp)
    24f8:	92c0                	0x92c0
    24fa:	4905                	li	s2,1
    24fc:	6a34                	flw	fa3,80(a2)
    24fe:	48d9                	li	a7,22
    2500:	0cd5                	addi	s9,s9,21
    2502:	228f4537          	lui	a0,0x228f4
    2506:	482e                	lw	a6,200(sp)
    2508:	47be                	lw	a5,204(sp)
    250a:	4835                	li	a6,13
    250c:	c9dc                	sw	a5,20(a1)
    250e:	4890                	lw	a2,16(s1)
    2510:	4adf 47b8 2974      	0x297447b84adf
    2516:	634548bb          	0x634548bb
    251a:	493d                	li	s2,15
    251c:	3346                	fld	ft6,112(sp)
    251e:	483c                	lw	a5,80(s0)
    2520:	b510                	fsd	fa2,40(a0)
    2522:	fe4948c7          	fmsub.q	fa7,fs2,ft4,ft11,rmm
    2526:	fae34647          	fmsub.d	fa2,ft6,fa4,ft11,rmm
    252a:	4690                	lw	a2,8(a3)
    252c:	db1a                	sw	t1,180(sp)
    252e:	170048cf          	fnmadd.q	fa7,ft0,fa6,ft2,rmm
    2532:	1a3047a7          	fsq	ft3,431(zero) # 1af <_Z4itoaijjjPcj.part.0+0x167>
    2536:	490a                	lw	s2,128(sp)
    2538:	0761                	addi	a4,a4,24
    253a:	486c                	lw	a1,84(s0)
    253c:	b375                	j	22e8 <verify_data+0xc>
    253e:	4922                	lw	s2,8(sp)
    2540:	48e13bb3          	0x48e13bb3
    2544:	488205eb          	0x488205eb
    2548:	e7b6                	fsw	fa3,204(sp)
    254a:	45f2                	lw	a1,28(sp)
    254c:	9b14                	0x9b14
    254e:	4786                	lw	a5,64(sp)
    2550:	6d01                	0x6d01
    2552:	d6be4833          	0xd6be4833
    2556:	4778                	lw	a4,76(a4)
    2558:	486a61b7          	lui	gp,0x486a6
    255c:	f50c                	fsw	fa1,40(a0)
    255e:	88014867          	0x88014867
    2562:	4888                	lw	a0,16(s1)
    2564:	9705                	srai	a4,a4,0x21
    2566:	47e8                	lw	a0,76(a5)
    2568:	3f34                	fld	fa3,120(a4)
    256a:	46dc                	lw	a5,12(a3)
    256c:	0728                	addi	a0,sp,904
    256e:	48e1                	li	a7,24
    2570:	48efd1d3          	0x48efd1d3
    2574:	1e64                	addi	s1,sp,828
    2576:	d2ab47cb          	fnmsub.d	fa5,fs6,fa0,fs10,rmm
    257a:	4602                	lw	a2,0(sp)
    257c:	2532                	fld	fa0,264(sp)
    257e:	489d                	li	a7,7
    2580:	8131                	srli	a0,a0,0xc
    2582:	284a48b3          	0x284a48b3
    2586:	4855                	li	a6,21
    2588:	9e6a                	add	t3,t3,s10
    258a:	487d                	li	a6,31
    258c:	06df 478a be57      	0xbe57478a06df
    2592:	6df7483f 90994860 	0x909948606df7483f
    259a:	3b44488b          	0x3b44488b
    259e:	4679                	li	a2,30
    25a0:	0e29                	addi	t3,t3,10
    25a2:	4878                	lw	a4,84(s0)
    25a4:	1a7f                	0x1a7f
    25a6:	ba104873          	0xba104873
    25aa:	47a1                	li	a5,8
    25ac:	4738d563          	bge	a7,s3,2a16 <verify_data+0x73a>
    25b0:	f659                	bnez	a2,253e <verify_data+0x262>
    25b2:	4818                	lw	a4,16(s0)
    25b4:	e30c                	fsw	fa1,0(a4)
    25b6:	cf054667          	0xcf054667
    25ba:	4732                	lw	a4,12(sp)
    25bc:	ddcd                	beqz	a1,2576 <verify_data+0x29a>
    25be:	cc9f4933          	0xcc9f4933
    25c2:	48b8                	lw	a4,80(s1)
    25c4:	908e                	add	ra,ra,gp
    25c6:	4892                	lw	a7,4(sp)
    25c8:	3278                	fld	fa4,224(a2)
    25ca:	4815                	li	a6,5
    25cc:	0bc1                	addi	s7,s7,16
    25ce:	47b4                	lw	a3,72(a5)
    25d0:	f35a                	fsw	fs6,164(sp)
    25d2:	506e48a3          	0x506e48a3
    25d6:	89a2477b          	0x89a2477b
    25da:	b7a4484b          	fnmsub.q	fa6,fs0,fs10,fs6,rmm
    25de:	c5c948c7          	0xc5c948c7
    25e2:	47f6                	lw	a5,92(sp)
    25e4:	dd75                	beqz	a0,25e0 <verify_data+0x304>
    25e6:	4950                	lw	a2,20(a0)
    25e8:	6ac0                	flw	fs0,20(a3)
    25ea:	4838                	lw	a4,80(s0)
    25ec:	2b1f 48a1 e5c9      	0xe5c948a12b1f
    25f2:	4781                	li	a5,0
    25f4:	90b4                	0x90b4
    25f6:	47b8                	lw	a4,72(a5)
    25f8:	1274                	addi	a3,sp,300
    25fa:	4849                	li	a6,18
    25fc:	9318                	0x9318
    25fe:	725a4873          	0x725a4873
    2602:	6c034843          	0x6c034843
    2606:	481d                	li	a6,7
    2608:	49289fbf 47985c3e 	0x47985c3e49289fbf
    2610:	478854d7          	0x478854d7
    2614:	fa94                	fsw	fa3,48(a3)
    2616:	46c9                	li	a3,18
    2618:	10c9                	addi	ra,ra,-14
    261a:	487c                	lw	a5,84(s0)
    261c:	47b7fda7          	0x47b7fda7
    2620:	e950                	fsw	fa2,20(a0)
    2622:	4780                	lw	s0,8(a5)
    2624:	7640                	flw	fs0,44(a2)
    2626:	4952                	lw	s2,20(sp)
    2628:	63b5                	lui	t2,0xd
    262a:	4906                	lw	s2,64(sp)
    262c:	675a                	flw	fa4,148(sp)
    262e:	3fbc4653          	0x3fbc4653
    2632:	452f4893          	xori	a7,t5,1106
    2636:	444c                	lw	a1,12(s0)
    2638:	a655                	j	29dc <verify_data+0x700>
    263a:	48b0                	lw	a2,80(s1)
    263c:	48f4b523          	0x48f4b523
    2640:	7535                	lui	a0,0xfffed
    2642:	46e8                	lw	a0,76(a3)
    2644:	bf9d                	j	25ba <verify_data+0x2de>
    2646:	48d1                	li	a7,20
    2648:	50c5                	li	ra,-15
    264a:	446a                	lw	s0,152(sp)
    264c:	49004b53          	0x49004b53
    2650:	1d94                	addi	a3,sp,752
    2652:	4882                	lw	a7,0(sp)
    2654:	6b3a                	flw	fs6,140(sp)
    2656:	4902                	lw	s2,0(sp)
    2658:	b066                	fsd	fs9,32(sp)
    265a:	48ad                	li	a7,11
    265c:	9469                	srai	s0,s0,0x3a
    265e:	4875                	li	a6,29
    2660:	da6a                	sw	s10,52(sp)
    2662:	4914                	lw	a3,16(a0)
    2664:	8595                	srai	a1,a1,0x5
    2666:	4694                	lw	a3,8(a3)
    2668:	14e0                	addi	s0,sp,620
    266a:	6c1748c7          	0x6c1748c7
    266e:	4661                	li	a2,24
    2670:	149f 4897 db2b      	0xdb2b4897149f
    2676:	072d472b          	0x72d472b
    267a:	4951                	li	s2,20
    267c:	2820                	fld	fs0,80(s0)
    267e:	4750                	lw	a2,12(a4)
    2680:	48dd1ad7          	0x48dd1ad7
    2684:	48d10b3f 48811860 	0x4881186048d10b3f
    268c:	9d94                	0x9d94
    268e:	4868                	lw	a0,84(s0)
    2690:	df12                	sw	tp,188(sp)
    2692:	049b46bf 6a9c48ae 	0x6a9c48ae049b46bf
    269a:	48e2                	lw	a7,24(sp)
    269c:	19d0                	addi	a2,sp,244
    269e:	3f1947db          	0x3f1947db
    26a2:	4851                	li	a6,20
    26a4:	d272                	sw	t3,36(sp)
    26a6:	4789                	li	a5,2
    26a8:	4607a387          	flw	ft7,1120(a5) # 6492678a <__stop_addr+0x64526782>
    26ac:	b93e                	fsd	fa5,176(sp)
    26ae:	804a4927          	fsq	ft4,-2030(s4) # a812 <input_data1+0x6dc6>
    26b2:	4502                	lw	a0,0(sp)
    26b4:	f7fc                	fsw	fa5,108(a5)
    26b6:	47f4                	lw	a3,76(a5)
    26b8:	4825e6c7          	fmsub.s	fa3,fa1,ft2,fs1,unknown
    26bc:	2d8d                	jal	2d2e <verify_data+0xa52>
    26be:	48b5                	li	a7,13
    26c0:	684a                	flw	fa6,144(sp)
    26c2:	4814                	lw	a3,16(s0)
    26c4:	1e92                	slli	t4,t4,0x24
    26c6:	4871                	li	a6,28
    26c8:	0911                	addi	s2,s2,4
    26ca:	8db04867          	0x8db04867
    26ce:	4718                	lw	a4,8(a4)
    26d0:	3994                	fld	fa3,48(a1)
    26d2:	e54247eb          	0xe54247eb
    26d6:	48a9                	li	a7,10
    26d8:	7939                	lui	s2,0xfffee
    26da:	4822                	lw	a6,8(sp)
    26dc:	5724                	lw	s1,104(a4)
    26de:	7d0d482b          	0x7d0d482b
    26e2:	48ed                	li	a7,27
    26e4:	47a39b53          	0x47a39b53
    26e8:	562e                	lw	a2,232(sp)
    26ea:	48d8                	lw	a4,20(s1)
    26ec:	4884ab8b          	0x4884ab8b
    26f0:	491c6dbf 492b0898 	0x492b0898491c6dbf
    26f8:	0b71                	addi	s6,s6,28
    26fa:	4844                	lw	s1,20(s0)
    26fc:	6fd8                	flw	fa4,28(a5)
    26fe:	48a8                	lw	a0,80(s1)
    2700:	9539                	srai	a0,a0,0x2e
    2702:	45a4                	lw	s1,72(a1)
    2704:	e6a0                	fsw	fs0,72(a3)
    2706:	44ad                	li	s1,11
    2708:	481d3133          	0x481d3133
    270c:	4950                	lw	a2,20(a0)
    270e:	3a2b485b          	0x3a2b485b
    2712:	4904                	lw	s1,16(a0)
    2714:	a419                	j	291a <verify_data+0x63e>
    2716:	b0f348ab          	0xb0f348ab
    271a:	47df 68f8 48b3      	0x48b368f847df
    2720:	b626                	fsd	fs1,296(sp)
    2722:	4695                	li	a3,5
    2724:	50df 4924 bd27      	0xbd27492450df
    272a:	4591                	li	a1,4
    272c:	46a56637          	lui	a2,0x46a56
    2730:	3bca                	fld	fs7,176(sp)
    2732:	47f0                	lw	a2,76(a5)
    2734:	e9f0                	fsw	fa2,84(a1)
    2736:	47e1                	li	a5,24
    2738:	85a1                	srai	a1,a1,0x8
    273a:	479c                	lw	a5,8(a5)
    273c:	d611                	beqz	a2,2648 <verify_data+0x36c>
    273e:	47b8                	lw	a4,72(a5)
    2740:	0f66                	slli	t5,t5,0x19
    2742:	490e                	lw	s2,192(sp)
    2744:	dc7c                	sw	a5,124(s0)
    2746:	4794                	lw	a3,8(a5)
    2748:	5f8e                	lw	t6,224(sp)
    274a:	47a4                	lw	s1,72(a5)
    274c:	7a5a                	flw	fs4,180(sp)
    274e:	47fe                	lw	a5,220(sp)
    2750:	48cbd0bb          	0x48cbd0bb
    2754:	0952                	slli	s2,s2,0x14
    2756:	46ce                	lw	a3,208(sp)
    2758:	46eca827          	fsw	fa4,1136(s9)
    275c:	14b4                	addi	a3,sp,616
    275e:	06b644eb          	0x6b644eb
    2762:	4759                	li	a4,22
    2764:	e38e                	fsw	ft3,196(sp)
    2766:	479f c9bc 4904      	0x4904c9bc479f
    276c:	780c                	flw	fa1,48(s0)
    276e:	481c                	lw	a5,16(s0)
    2770:	b738                	fsd	fa4,104(a4)
    2772:	493d                	li	s2,15
    2774:	1d11                	addi	s10,s10,-28
    2776:	46d8                	lw	a4,12(a3)
    2778:	ac00                	fsd	fs0,24(s0)
    277a:	4630                	lw	a2,72(a2)
    277c:	bc24                	fsd	fs1,120(s0)
    277e:	34364883          	lbu	a7,835(a2) # 46a56343 <__stop_addr+0x4665633b>
    2782:	490c                	lw	a1,16(a0)
    2784:	c67c                	sw	a5,76(a2)
    2786:	ab4d48a3          	0xab4d48a3
    278a:	491e                	lw	s2,196(sp)
    278c:	5e92                	lw	t4,36(sp)
    278e:	485d                	li	a6,23
    2790:	d454                	sw	a3,44(s0)
    2792:	47f8                	lw	a4,76(a5)
    2794:	6930                	flw	fa2,80(a0)
    2796:	4886                	lw	a7,64(sp)
    2798:	d0fe                	sw	t6,96(sp)
    279a:	45d2                	lw	a1,20(sp)
    279c:	5202                	lw	tp,32(sp)
    279e:	d946485b          	0xd946485b
    27a2:	890f47ab          	0x890f47ab
    27a6:	4831                	li	a6,12
    27a8:	5a1d                	li	s4,-25
    27aa:	4728                	lw	a0,72(a4)
    27ac:	d9d5                	beqz	a1,2760 <verify_data+0x484>
    27ae:	4904                	lw	s1,16(a0)
    27b0:	1ee1                	addi	t4,t4,-8
    27b2:	47c1                	li	a5,16
    27b4:	48bc9f67          	0x48bc9f67
    27b8:	1579                	addi	a0,a0,-2
    27ba:	4525                	li	a0,9
    27bc:	25de                	fld	fa1,464(sp)
    27be:	4834                	lw	a3,80(s0)
    27c0:	d77f                	0xd77f
    27c2:	2a6c476b          	0x2a6c476b
    27c6:	4878                	lw	a4,84(s0)
    27c8:	ed2d                	bnez	a0,2842 <verify_data+0x566>
    27ca:	b4f548bb          	0xb4f548bb
    27ce:	4881                	li	a7,0
    27d0:	a9d0                	fsd	fa2,144(a1)
    27d2:	479d                	li	a5,7
    27d4:	a366                	fsd	fs9,384(sp)
    27d6:	acc4482b          	0xacc4482b
    27da:	474d                	li	a4,19
    27dc:	4687f12f          	0x4687f12f
    27e0:	47c6b617          	auipc	a2,0x47c6b
    27e4:	4817973b          	0x4817973b
    27e8:	46f58d5b          	0x46f58d5b
    27ec:	9954                	0x9954
    27ee:	48d1                	li	a7,20
    27f0:	476ce103          	0x476ce103
    27f4:	14d8                	addi	a4,sp,612
    27f6:	ec7b483f f7e64839 	0xf7e64839ec7b483f
    27fe:	4810                	lw	a2,16(s0)
    2800:	777d                	lui	a4,0xfffff
    2802:	fdfa48ef          	jal	a7,fffa77e0 <__stop_addr+0xffba77d8>
    2806:	46b4                	lw	a3,72(a3)
    2808:	791e                	flw	fs2,228(sp)
    280a:	48de                	lw	a7,212(sp)
    280c:	2d42                	fld	fs10,16(sp)
    280e:	4752                	lw	a4,20(sp)
    2810:	8e10                	0x8e10
    2812:	47d2                	lw	a5,20(sp)
    2814:	6ded                	lui	s11,0x1b
    2816:	488c                	lw	a1,16(s1)
    2818:	46ac61b3          	0x46ac61b3
    281c:	48f22d3f 44c23cc5 	0x44c23cc548f22d3f
    2824:	a900                	fsd	fs0,16(a0)
    2826:	4866                	lw	a6,88(sp)
    2828:	48ad5af3          	csrrwi	s5,0x48a,26
    282c:	48af7cb3          	0x48af7cb3
    2830:	233e                	fld	ft6,456(sp)
    2832:	4808                	lw	a0,16(s0)
    2834:	89bc                	0x89bc
    2836:	29fe48bb          	0x29fe48bb
    283a:	47a1                	li	a5,8
    283c:	4858c0b7          	lui	ra,0x4858c
    2840:	ca5e                	sw	s7,20(sp)
    2842:	48b2                	lw	a7,12(sp)
    2844:	1949                	addi	s2,s2,-14
    2846:	f16a495b          	0xf16a495b
    284a:	f54e4647          	0xf54e4647
    284e:	47d8                	lw	a4,12(a5)
    2850:	47d97ea3          	0x47d97ea3
    2854:	42c4                	lw	s1,4(a3)
    2856:	4722                	lw	a4,8(sp)
    2858:	b79e                	fsd	ft7,488(sp)
    285a:	441a                	lw	s0,132(sp)
    285c:	46f15057          	0x46f15057
    2860:	579c                	lw	a5,40(a5)
    2862:	45ea                	lw	a1,152(sp)
    2864:	efd1                	bnez	a5,2900 <verify_data+0x624>
    2866:	48b6                	lw	a7,76(sp)
    2868:	488100a7          	0x488100a7
    286c:	f5e8                	fsw	fa0,108(a1)
    286e:	488e                	lw	a7,192(sp)
    2870:	9b0c                	0x9b0c
    2872:	47bd                	li	a5,15
    2874:	491f1fd3          	0x491f1fd3
    2878:	ea46                	fsw	fa7,20(sp)
    287a:	48d6                	lw	a7,84(sp)
    287c:	5550                	lw	a2,44(a0)
    287e:	47ec                	lw	a1,76(a5)
    2880:	7758                	flw	fa4,44(a4)
    2882:	4841                	li	a6,16
    2884:	2532                	fld	fa0,264(sp)
    2886:	4928                	lw	a0,80(a0)
    2888:	ac82                	fsd	ft0,88(sp)
    288a:	4941                	li	s2,16
    288c:	8d2d                	xor	a0,a0,a1
    288e:	d40f4807          	flq	fa6,-704(t5) # fffe1d40 <__stop_addr+0xffbe1d38>
    2892:	489d                	li	a7,7
    2894:	6fc1                	lui	t6,0x10
    2896:	d8a348e3          	blt	t1,a0,2626 <verify_data+0x34a>
    289a:	4908                	lw	a0,16(a0)
    289c:	9404                	0x9404
    289e:	198848e7          	0x198848e7
    28a2:	82994853          	0x82994853
    28a6:	4902                	lw	s2,0(sp)
    28a8:	258e                	fld	fa1,192(sp)
    28aa:	46a6                	lw	a3,72(sp)
    28ac:	5785                	li	a5,-31
    28ae:	019d47a7          	fsq	fs9,15(s10)
    28b2:	c14c460f          	0xc14c460f
    28b6:	6cf44843          	0x6cf44843
    28ba:	490d                	li	s2,3
    28bc:	725c                	flw	fa5,36(a2)
    28be:	401347b3          	0x401347b3
    28c2:	4859                	li	a6,22
    28c4:	f154                	fsw	fa3,36(a0)
    28c6:	45fa                	lw	a1,156(sp)
    28c8:	b282                	fsd	ft0,352(sp)
    28ca:	620547b3          	0x620547b3
    28ce:	7ab1484b          	fnmsub.d	fa6,ft2,fa1,fa5,rmm
    28d2:	47de                	lw	a5,212(sp)
    28d4:	6fa6                	flw	ft11,72(sp)
    28d6:	4910                	lw	a2,16(a0)
    28d8:	8596                	mv	a1,t0
    28da:	4794                	lw	a3,8(a5)
    28dc:	09dd                	addi	s3,s3,23
    28de:	492c                	lw	a1,80(a0)
    28e0:	2bc5                	jal	2ed0 <input_data2+0x3c>
    28e2:	4820                	lw	s0,80(s0)
    28e4:	e7c2                	fsw	fa6,204(sp)
    28e6:	d52147eb          	0xd52147eb
    28ea:	b6d14757          	0xb6d14757
    28ee:	48aa                	lw	a7,136(sp)
    28f0:	9b62                	add	s6,s6,s8
    28f2:	4612                	lw	a2,4(sp)
    28f4:	470a8e6f          	jal	t3,aad64 <input_data1+0xa7318>
    28f8:	d9dd                	beqz	a1,28ae <verify_data+0x5d2>
    28fa:	596f483b          	0x596f483b
    28fe:	45b4                	lw	a3,72(a1)
    2900:	088a                	slli	a7,a7,0x2
    2902:	48c8                	lw	a0,20(s1)
    2904:	39dc                	fld	fa5,176(a1)
    2906:	4748                	lw	a0,12(a4)
    2908:	60fc                	flw	fa5,68(s1)
    290a:	4731                	li	a4,12
    290c:	14e8                	addi	a0,sp,620
    290e:	47b8                	lw	a4,72(a5)
    2910:	f285                	bnez	a3,2830 <verify_data+0x554>
    2912:	4911                	li	s2,4
    2914:	3cea                	fld	fs9,184(sp)
    2916:	4692                	lw	a3,4(sp)
    2918:	489f189b          	0x489f189b
    291c:	675e                	flw	fa4,212(sp)
    291e:	474c                	lw	a1,12(a4)
    2920:	b815                	j	2154 <__clz_tab+0x260>
    2922:	c471494f          	0xc471494f
    2926:	48a2                	lw	a7,8(sp)
    2928:	48e4e7db          	0x48e4e7db
    292c:	daae                	sw	a1,116(sp)
    292e:	48c2                	lw	a7,16(sp)
    2930:	48a78e87          	0x48a78e87
    2934:	159f 4881 28cc      	0x28cc4881159f
    293a:	482e                	lw	a6,200(sp)
    293c:	caf4                	sw	a3,84(a3)
    293e:	4842                	lw	a6,16(sp)
    2940:	6d79                	lui	s10,0x1e
    2942:	479d                	li	a5,7
    2944:	2e96                	fld	ft9,320(sp)
    2946:	f3e0460f          	0xf3e0460f
    294a:	489a                	lw	a7,132(sp)
    294c:	21e5                	jal	2e34 <verify_data+0xb58>
    294e:	36db4803          	lbu	a6,877(s6)
    2952:	161c46c3          	fmadd.q	fa3,fs8,ft1,ft2,rmm
    2956:	eaa94733          	0xeaa94733
    295a:	87c04707          	flq	fa4,-1924(zero) # fffff87c <__stop_addr+0xffbff874>
    295e:	4719                	li	a4,6
    2960:	48cb1ebb          	0x48cb1ebb
    2964:	b4cc                	fsd	fa1,168(s1)
    2966:	75304713          	xori	a4,zero,1875
    296a:	4688                	lw	a0,8(a3)
    296c:	772a                	flw	fa4,168(sp)
    296e:	48c6                	lw	a7,80(sp)
    2970:	5618                	lw	a4,40(a2)
    2972:	48ea                	lw	a7,152(sp)
    2974:	25f0                	fld	fa2,200(a1)
    2976:	4862                	lw	a6,24(sp)
    2978:	a1f5                	j	2e64 <verify_data+0xb88>
    297a:	4681                	li	a3,0
    297c:	248a                	fld	fs1,128(sp)
    297e:	490a                	lw	s2,128(sp)
    2980:	25ba                	fld	fa1,392(sp)
    2982:	4825                	li	a6,9
    2984:	7628                	flw	fa0,104(a2)
    2986:	4709                	li	a4,2
    2988:	0bbc                	addi	a5,sp,472
    298a:	4846                	lw	a6,80(sp)
    298c:	7fc2                	flw	ft11,48(sp)
    298e:	4618                	lw	a4,8(a2)
    2990:	463131ef          	jal	gp,165f2 <input_data1+0x12ba6>
    2994:	f8bc                	fsw	fa5,112(s1)
    2996:	3f2346fb          	0x3f2346fb
    299a:	7417482f          	0x7417482f
    299e:	48cd                	li	a7,19
    29a0:	49066b13          	ori	s6,a2,1168
    29a4:	fd00                	fsw	fs0,56(a0)
    29a6:	489a                	lw	a7,132(sp)
    29a8:	5a04                	lw	s1,48(a2)
    29aa:	581b45af          	0x581b45af
    29ae:	47e0                	lw	s0,76(a5)
    29b0:	3c70                	fld	fa2,248(s0)
    29b2:	48de                	lw	a7,212(sp)
    29b4:	3294                	fld	fa3,32(a3)
    29b6:	4810                	lw	a2,16(s0)
    29b8:	30f2                	fld	ft1,312(sp)
    29ba:	4902                	lw	s2,0(sp)
    29bc:	cf18                	sw	a4,24(a4)
    29be:	4758                	lw	a4,12(a4)
    29c0:	47545763          	bge	s0,s5,2e2e <verify_data+0xb52>
    29c4:	c384                	sw	s1,0(a5)
    29c6:	48c5                	li	a7,17
    29c8:	1056                	c.slli	zero,0x35
    29ca:	4855                	li	a6,21
    29cc:	699a                	flw	fs3,132(sp)
    29ce:	070f48a3          	0x70f48a3
    29d2:	be9c492f          	0xbe9c492f
    29d6:	e7f2481b          	0xe7f2481b
    29da:	4872                	lw	a6,28(sp)
    29dc:	2228                	fld	fa0,64(a2)
    29de:	490d                	li	s2,3
    29e0:	d9d5                	beqz	a1,2994 <verify_data+0x6b8>
    29e2:	475d                	li	a4,23
    29e4:	7ba6                	flw	fs7,104(sp)
    29e6:	df0747b3          	0xdf0747b3
    29ea:	48aa                	lw	a7,136(sp)
    29ec:	40c5                	li	ra,17
    29ee:	d673478b          	0xd673478b
    29f2:	4716                	lw	a4,68(sp)
    29f4:	1765                	addi	a4,a4,-7
    29f6:	4615                	li	a2,5
    29f8:	86dc                	0x86dc
    29fa:	f9154787          	flq	fa5,-111(a0) # fffecf91 <__stop_addr+0xffbecf89>
    29fe:	492e                	lw	s2,200(sp)
    2a00:	4712                	lw	a4,4(sp)
    2a02:	4820                	lw	s0,80(s0)
    2a04:	a4e9                	j	2cce <verify_data+0x9f2>
    2a06:	4764                	lw	s1,76(a4)
    2a08:	781d                	lui	a6,0xfffe7
    2a0a:	46a2                	lw	a3,8(sp)
    2a0c:	b36d                	j	27b6 <verify_data+0x4da>
    2a0e:	48ea                	lw	a7,152(sp)
    2a10:	48d8313f 4710aedb 	0x4710aedb48d8313f
    2a18:	c949                	beqz	a0,2aaa <verify_data+0x7ce>
    2a1a:	7b26480b          	0x7b26480b
    2a1e:	482d                	li	a6,11
    2a20:	0310                	addi	a2,sp,384
    2a22:	b26c48af          	0xb26c48af
    2a26:	404a46b3          	0x404a46b3
    2a2a:	4610                	lw	a2,8(a2)
    2a2c:	47e20e23          	sb	t5,1148(tp) # 47c <_Z4itoaijjjPcj+0x164>
    2a30:	24ee                	fld	fs1,216(sp)
    2a32:	481e                	lw	a6,196(sp)
    2a34:	493e3b17          	auipc	s6,0x493e3
    2a38:	4782b6e7          	0x4782b6e7
    2a3c:	47a850a7          	0x47a850a7
    2a40:	ca8d                	beqz	a3,2a72 <verify_data+0x796>
    2a42:	47ae                	lw	a5,200(sp)
    2a44:	bf54                	fsd	fa3,184(a4)
    2a46:	4810                	lw	a2,16(s0)
    2a48:	eab2                	fsw	fa2,84(sp)
    2a4a:	4802                	lw	a6,0(sp)
    2a4c:	e0c9                	bnez	s1,2ace <verify_data+0x7f2>
    2a4e:	47a8                	lw	a0,72(a5)
    2a50:	47211c73          	csrrw	s8,0x472,sp
    2a54:	478d                	li	a5,3
    2a56:	4934                	lw	a3,80(a0)
    2a58:	50fc                	lw	a5,100(s1)
    2a5a:	47e2                	lw	a5,24(sp)
    2a5c:	073e                	slli	a4,a4,0xf
    2a5e:	495e                	lw	s2,212(sp)
    2a60:	48475b6b          	0x48475b6b
    2a64:	48698b3f 470a7197 	0x470a719748698b3f
    2a6c:	e564                	fsw	fs1,76(a0)
    2a6e:	4826                	lw	a6,72(sp)
    2a70:	2c39                	jal	2c8e <verify_data+0x9b2>
    2a72:	48c2                	lw	a7,16(sp)
    2a74:	4700                	lw	s0,8(a4)
    2a76:	483a                	lw	a6,140(sp)
    2a78:	475c5527          	0x475c5527
    2a7c:	c324                	sw	s1,64(a4)
    2a7e:	489a                	lw	a7,132(sp)
    2a80:	4946                	lw	s2,80(sp)
    2a82:	129d4743          	fmadd.d	fa4,fs10,fs1,ft2,rmm
    2a86:	48ee                	lw	a7,216(sp)
    2a88:	eec6                	fsw	fa7,92(sp)
    2a8a:	473c                	lw	a5,72(a4)
    2a8c:	473f1b7b          	0x473f1b7b
    2a90:	5f24                	lw	s1,120(a4)
    2a92:	48ce                	lw	a7,208(sp)
    2a94:	b75d                	j	2a3a <verify_data+0x75e>
    2a96:	486d                	li	a6,27
    2a98:	486e71c3          	fmadd.s	ft3,ft8,ft6,fs1
    2a9c:	ab9c                	fsd	fa5,16(a5)
    2a9e:	4714                	lw	a3,8(a4)
    2aa0:	54e9                	li	s1,-6
    2aa2:	4912                	lw	s2,4(sp)
    2aa4:	4891cc3f 491ed648 	0x491ed6484891cc3f
    2aac:	5a10                	lw	a2,48(a2)
    2aae:	4889                	li	a7,2
    2ab0:	0f3d                	addi	t5,t5,15
    2ab2:	2bc1484f          	fnmadd.d	fa6,ft2,ft8,ft5,rmm
    2ab6:	483c                	lw	a5,80(s0)
    2ab8:	489c8fbb          	0x489c8fbb
    2abc:	8584                	0x8584
    2abe:	e4fc462b          	0xe4fc462b
    2ac2:	4804                	lw	s1,16(s0)
    2ac4:	117d                	addi	sp,sp,-1
    2ac6:	42cd467b          	0x42cd467b
    2aca:	476a                	lw	a4,152(sp)
    2acc:	f914                	fsw	fa3,48(a0)
    2ace:	48c0                	lw	s0,20(s1)
    2ad0:	4529                	li	a0,10
    2ad2:	47c4                	lw	s1,12(a5)
    2ad4:	6a35                	lui	s4,0xd
    2ad6:	475e                	lw	a4,212(sp)
    2ad8:	74f4                	flw	fa3,108(s1)
    2ada:	488c                	lw	a1,16(s1)
    2adc:	4b66                	lw	s6,88(sp)
    2ade:	4809                	li	a6,2
    2ae0:	8308                	0x8308
    2ae2:	4842                	lw	a6,16(sp)
    2ae4:	cfd1                	beqz	a5,2b80 <verify_data+0x8a4>
    2ae6:	4852                	lw	a6,20(sp)
    2ae8:	481e874b          	fnmsub.s	fa4,ft9,ft1,fs1,rne
    2aec:	6f39                	lui	t5,0xe
    2aee:	3837487b          	0x3837487b
    2af2:	4851                	li	a6,20
    2af4:	62c9                	lui	t0,0x12
    2af6:	475c                	lw	a5,12(a4)
    2af8:	479c9e3f 47bd5c21 	0x47bd5c21479c9e3f
    2b00:	f5cc                	fsw	fa1,44(a1)
    2b02:	4910                	lw	a2,16(a0)
    2b04:	d9ae                	sw	a1,240(sp)
    2b06:	47a4                	lw	s1,72(a5)
    2b08:	9cfa                	add	s9,s9,t5
    2b0a:	488c                	lw	a1,16(s1)
    2b0c:	8c05                	sub	s0,s0,s1
    2b0e:	4886                	lw	a7,64(sp)
    2b10:	4810a7c3          	fmadd.s	fa5,ft1,ft1,fs1,rdn
    2b14:	db1f 48c9 dbed      	0xdbed48c9db1f
    2b1a:	47a8                	lw	a0,72(a5)
    2b1c:	48859c3b          	0x48859c3b
    2b20:	46de4af7          	0x46de4af7
    2b24:	4ca8                	lw	a0,88(s1)
    2b26:	4725                	li	a4,9
    2b28:	47c1d957          	0x47c1d957
    2b2c:	7262                	flw	ft4,56(sp)
    2b2e:	46b2                	lw	a3,12(sp)
    2b30:	afd2                	fsd	fs4,472(sp)
    2b32:	f6774693          	xori	a3,a4,-153
    2b36:	4788                	lw	a0,8(a5)
    2b38:	744a                	flw	fs0,176(sp)
    2b3a:	48c0                	lw	s0,20(s1)
    2b3c:	b855                	j	23f0 <verify_data+0x114>
    2b3e:	4876                	lw	a6,92(sp)
    2b40:	46d95e57          	0x46d95e57
    2b44:	8180                	0x8180
    2b46:	482e                	lw	a6,200(sp)
    2b48:	f590                	fsw	fa2,40(a1)
    2b4a:	4808                	lw	a0,16(s0)
    2b4c:	ed8c                	fsw	fa1,24(a1)
    2b4e:	4911                	li	s2,4
    2b50:	5418                	lw	a4,40(s0)
    2b52:	4892                	lw	a7,4(sp)
    2b54:	4c3d                	li	s8,15
    2b56:	4935                	li	s2,13
    2b58:	000d                	c.nop	3
    2b5a:	48a4                	lw	s1,80(s1)
    2b5c:	bd11                	j	2970 <verify_data+0x694>
    2b5e:	4812                	lw	a6,4(sp)
    2b60:	fb9a                	fsw	ft6,244(sp)
    2b62:	4691                	li	a3,4
    2b64:	c2f9                	beqz	a3,2c2a <verify_data+0x94e>
    2b66:	4791                	li	a5,4
    2b68:	488fddbf 4881ee07 	0x4881ee07488fddbf
    2b70:	22e6                	fld	ft5,88(sp)
    2b72:	481f 9cf7 48c4      	0x48c49cf7481f
    2b78:	d0d8                	sw	a4,36(s1)
    2b7a:	47f8                	lw	a4,76(a5)
    2b7c:	4722beaf          	0x4722beaf
    2b80:	db20                	sw	s0,112(a4)
    2b82:	48ad                	li	a7,11
    2b84:	7ed9                	lui	t4,0xffff6
    2b86:	4806                	lw	a6,64(sp)
    2b88:	1040                	addi	s0,sp,36
    2b8a:	3357490f          	0x3357490f
    2b8e:	51234953          	0x51234953
    2b92:	48a0                	lw	s0,80(s1)
    2b94:	13ad                	addi	t2,t2,-21
    2b96:	48d5                	li	a7,21
    2b98:	6400                	flw	fs0,8(s0)
    2b9a:	4756                	lw	a4,84(sp)
    2b9c:	12d0                	addi	a2,sp,356
    2b9e:	495d                	li	s2,23
    2ba0:	0612                	slli	a2,a2,0x4
    2ba2:	4831                	li	a6,12
    2ba4:	54d8                	lw	a4,44(s1)
    2ba6:	979347bb          	0x979347bb
    2baa:	4926                	lw	s2,72(sp)
    2bac:	2de2                	fld	fs11,24(sp)
    2bae:	483d                	li	a6,15
    2bb0:	2635                	jal	2edc <input_data2+0x48>
    2bb2:	49b744a3          	0x49b744a3
    2bb6:	4788                	lw	a0,8(a5)
    2bb8:	48f5a3f3          	csrrs	t2,0x48f,a1
    2bbc:	917f                	0x917f
    2bbe:	b755482f          	0xb755482f
    2bc2:	4815                	li	a6,5
    2bc4:	46304673          	0x46304673
    2bc8:	4750f45b          	0x4750f45b
    2bcc:	8606                	mv	a2,ra
    2bce:	4911                	li	s2,4
    2bd0:	4880c2db          	0x4880c2db
    2bd4:	0e06                	slli	t3,t3,0x1
    2bd6:	469c                	lw	a5,8(a3)
    2bd8:	6259                	lui	tp,0x16
    2bda:	47e6                	lw	a5,88(sp)
    2bdc:	9b68                	0x9b68
    2bde:	66e045bb          	0x66e045bb
    2be2:	d4ab4717          	auipc	a4,0xd4ab4
    2be6:	483e                	lw	a6,204(sp)
    2be8:	e419                	bnez	s0,2bf6 <verify_data+0x91a>
    2bea:	46bc                	lw	a5,72(a3)
    2bec:	f3bc                	fsw	fa5,96(a5)
    2bee:	9b8f489b          	0x9b8f489b
    2bf2:	4704                	lw	s1,8(a4)
    2bf4:	4851a76b          	0x4851a76b
    2bf8:	44fe                	lw	s1,220(sp)
    2bfa:	490d                	li	s2,3
    2bfc:	1606                	slli	a2,a2,0x21
    2bfe:	479a                	lw	a5,132(sp)
    2c00:	40b6                	lw	ra,76(sp)
    2c02:	4a3d470f          	0x4a3d470f
    2c06:	493c                	lw	a5,80(a0)
    2c08:	47de0523          	sb	t4,1130(t3)
    2c0c:	25b9                	jal	325a <input_data2+0x3c6>
    2c0e:	c3044903          	lbu	s2,-976(s0)
    2c12:	a69448f3          	0xa69448f3
    2c16:	488a                	lw	a7,128(sp)
    2c18:	70c2                	flw	ft1,48(sp)
    2c1a:	48a8                	lw	a0,80(s1)
    2c1c:	9f0e                	add	t5,t5,gp
    2c1e:	4910                	lw	a2,16(a0)
    2c20:	0062                	c.slli	zero,0x18
    2c22:	489a                	lw	a7,132(sp)
    2c24:	9be0                	0x9be0
    2c26:	484c                	lw	a1,20(s0)
    2c28:	48bd8883          	lb	a7,1163(s11) # 1b48b <input_data1+0x17a3f>
    2c2c:	901c                	0x901c
    2c2e:	4802                	lw	a6,0(sp)
    2c30:	d57e                	sw	t6,168(sp)
    2c32:	47b5                	li	a5,13
    2c34:	b080                	fsd	fs0,32(s1)
    2c36:	46c1                	li	a3,16
    2c38:	4835c383          	lbu	t2,1155(a1)
    2c3c:	4801cb3f 482f4354 	0x482f43544801cb3f
    2c44:	2605                	jal	2f64 <input_data2+0xd0>
    2c46:	4601                	li	a2,0
    2c48:	90ae                	add	ra,ra,a1
    2c4a:	47dc                	lw	a5,12(a5)
    2c4c:	cdfc                	sw	a5,92(a1)
    2c4e:	47b0                	lw	a2,72(a5)
    2c50:	4758a03b          	0x4758a03b
    2c54:	48ac                	lw	a1,80(s1)
    2c56:	47fc                	lw	a5,76(a5)
    2c58:	5d30                	lw	a2,120(a0)
    2c5a:	5ce548f7          	0x5ce548f7
    2c5e:	458e                	lw	a1,192(sp)
    2c60:	46067f33          	0x46067f33
    2c64:	aed6                	fsd	fs5,344(sp)
    2c66:	46e5                	li	a3,25
    2c68:	318d                	jal	28ca <verify_data+0x5ee>
    2c6a:	490d                	li	s2,3
    2c6c:	9572                	add	a0,a0,t3
    2c6e:	486d                	li	a6,27
    2c70:	3c39                	jal	268e <verify_data+0x3b2>
    2c72:	45b1                	li	a1,12
    2c74:	d6d9                	beqz	a3,2c02 <verify_data+0x926>
    2c76:	4701                	li	a4,0
    2c78:	1410                	addi	a2,sp,544
    2c7a:	491e                	lw	s2,196(sp)
    2c7c:	5f30                	lw	a2,120(a4)
    2c7e:	4812                	lw	a6,4(sp)
    2c80:	d614                	sw	a3,40(a2)
    2c82:	4881                	li	a7,0
    2c84:	969c                	0x969c
    2c86:	4685                	li	a3,1
    2c88:	9bdd                	andi	a5,a5,-9
    2c8a:	4914                	lw	a3,16(a0)
    2c8c:	e171                	bnez	a0,2d50 <verify_data+0xa74>
    2c8e:	34634697          	auipc	a3,0x34634
    2c92:	4708                	lw	a0,8(a4)
    2c94:	c4e5                	beqz	s1,2d7c <verify_data+0xaa0>
    2c96:	459d                	li	a1,7
    2c98:	d0d1                	beqz	s1,2c1c <verify_data+0x940>
    2c9a:	c860457b          	0xc860457b
    2c9e:	4905                	li	s2,1
    2ca0:	314d                	jal	2942 <verify_data+0x666>
    2ca2:	4919                	li	s2,6
    2ca4:	47db732b          	0x47db732b
    2ca8:	48eb8077          	0x48eb8077
    2cac:	6874                	flw	fa3,84(s0)
    2cae:	7194472f          	0x7194472f
    2cb2:	4876                	lw	a6,92(sp)
    2cb4:	4738e257          	0x4738e257
    2cb8:	c8b0                	sw	a2,80(s1)
    2cba:	f4cf48af          	0xf4cf48af
    2cbe:	4805                	li	a6,1
    2cc0:	491ba953          	0x491ba953
    2cc4:	4826bd0f          	0x4826bd0f
    2cc8:	7704                	flw	fs1,40(a4)
    2cca:	48a0                	lw	s0,80(s1)
    2ccc:	b5b1                	j	2b18 <verify_data+0x83c>
    2cce:	4820                	lw	s0,80(s0)
    2cd0:	48c9b867          	0x48c9b867
    2cd4:	f7f6                	fsw	ft9,236(sp)
    2cd6:	46c0                	lw	s0,12(a3)
    2cd8:	c264                	sw	s1,68(a2)
    2cda:	379b4703          	lbu	a4,889(s6) # 493e5dad <__stop_addr+0x48fe5da5>
    2cde:	4644                	lw	s1,12(a2)
    2ce0:	ba7e                	fsd	ft11,304(sp)
    2ce2:	47ae                	lw	a5,200(sp)
    2ce4:	b5da                	fsd	fs6,232(sp)
    2ce6:	4932                	lw	s2,12(sp)
    2ce8:	4a8a                	lw	s5,128(sp)
    2cea:	48ff                	0x48ff
    2cec:	9209                	srli	a2,a2,0x22
    2cee:	c02247db          	0xc02247db
    2cf2:	5c61480b          	0x5c61480b
    2cf6:	4609                	li	a2,2
    2cf8:	4869efeb          	0x4869efeb
    2cfc:	4743c5a7          	fsq	fs4,1131(t2) # d46b <input_data1+0x9a1f>
    2d00:	93e5                	srli	a5,a5,0x39
    2d02:	4804                	lw	s1,16(s0)
    2d04:	a7b0                	fsd	fa2,72(a5)
    2d06:	4891                	li	a7,4
    2d08:	791d                	lui	s2,0xfffe7
    2d0a:	c94048b3          	0xc94048b3
    2d0e:	7fb448ab          	0x7fb448ab
    2d12:	0b554913          	xori	s2,a0,181
    2d16:	4896                	lw	a7,68(sp)
    2d18:	48adf673          	csrrci	a2,0x48a,27
    2d1c:	01c0                	addi	s0,sp,196
    2d1e:	4888                	lw	a0,16(s1)
    2d20:	d9dc                	sw	a5,52(a1)
    2d22:	4741                	li	a4,16
    2d24:	62d2                	flw	ft5,20(sp)
    2d26:	4835                	li	a6,13
    2d28:	9c78                	0x9c78
    2d2a:	487a                	lw	a6,156(sp)
    2d2c:	c4fe                	sw	t6,72(sp)
    2d2e:	4646                	lw	a2,80(sp)
    2d30:	d9b9                	beqz	a1,2c86 <verify_data+0x9aa>
    2d32:	4792                	lw	a5,4(sp)
    2d34:	48b36f4f          	fnmadd.s	ft10,ft6,fa1,fs1,unknown
    2d38:	d638                	sw	a4,104(a2)
    2d3a:	4608                	lw	a0,8(a2)
    2d3c:	dd30                	sw	a2,120(a0)
    2d3e:	88e64733          	0x88e64733
    2d42:	490d                	li	s2,3
    2d44:	473208fb          	0x473208fb
    2d48:	7d78                	flw	fa4,124(a0)
    2d4a:	4744                	lw	s1,12(a4)
    2d4c:	35ba                	fld	fa1,424(sp)
    2d4e:	4886                	lw	a7,64(sp)
    2d50:	48b9b51b          	0x48b9b51b
    2d54:	9130                	0x9130
    2d56:	4905                	li	s2,1
    2d58:	4915d247          	fmsub.s	ft4,fa1,fa7,fs1,unknown
    2d5c:	8031                	srli	s0,s0,0xc
    2d5e:	4836                	lw	a6,76(sp)
    2d60:	47b981c7          	fmsub.q	ft3,fs3,fs11,fs0,rne
    2d64:	49432e3f 48d52320 	0x48d5232049432e3f
    2d6c:	e4a2                	fsw	fs0,72(sp)
    2d6e:	48dd                	li	a7,23
    2d70:	4db6                	lw	s11,76(sp)
    2d72:	491f 17f1 47b1      	0x47b117f1491f
    2d78:	473eb0db          	0x473eb0db
    2d7c:	484dea33          	0x484dea33
    2d80:	3101                	jal	2980 <verify_data+0x6a4>
    2d82:	482a                	lw	a6,136(sp)
    2d84:	1a0a                	slli	s4,s4,0x22
    2d86:	47ae                	lw	a5,200(sp)
    2d88:	f5e9                	bnez	a1,2d52 <verify_data+0xa76>
    2d8a:	86b3475b          	0x86b3475b
    2d8e:	4771                	li	a4,28
    2d90:	e33a                	fsw	fa4,132(sp)
    2d92:	48da                	lw	a7,148(sp)
    2d94:	5180                	lw	s0,32(a1)
    2d96:	4880                	lw	s0,16(s1)
    2d98:	5bbe                	lw	s7,236(sp)
    2d9a:	485d                	li	a6,23
    2d9c:	383d                	jal	25da <verify_data+0x2fe>
    2d9e:	4610                	lw	a2,8(a2)
    2da0:	0380                	addi	s0,sp,448
    2da2:	5b1d489b          	0x5b1d489b
    2da6:	4944                	lw	s1,20(a0)
    2da8:	74c1                	lui	s1,0xffff0
    2daa:	4529                	li	a0,10
    2dac:	cea2                	sw	s0,92(sp)
    2dae:	491a                	lw	s2,132(sp)
    2db0:	0c1f 46ab 31cf      	0x31cf46ab0c1f
    2db6:	6426484f          	0x6426484f
    2dba:	7643484b          	fnmsub.q	fa6,ft6,ft4,fa4,rmm
    2dbe:	f0e44807          	flq	fa6,-242(s0)
    2dc2:	4851                	li	a6,20
    2dc4:	f196                	fsw	ft5,224(sp)
    2dc6:	4541                	li	a0,16
    2dc8:	0d54                	addi	a3,sp,660
    2dca:	4840                	lw	s0,20(s0)
    2dcc:	48e295a7          	0x48e295a7
    2dd0:	a5d0                	fsd	fa2,136(a1)
    2dd2:	3b89490f          	0x3b89490f
    2dd6:	4910                	lw	a2,16(a0)
    2dd8:	6e22                	flw	ft8,8(sp)
    2dda:	48df bf2f 4888      	0x4888bf2f48df
    2de0:	48a3bc73          	csrrc	s8,0x48a,t2
    2de4:	284a                	fld	fa6,144(sp)
    2de6:	4875                	li	a6,29
    2de8:	48cfe90f          	0x48cfe90f
    2dec:	488faa13          	slti	s4,t6,1160
    2df0:	af70                	fsd	fa2,216(a4)
    2df2:	d0a04887          	flq	fa7,-758(zero) # fffffd0a <__stop_addr+0xffbffd02>
    2df6:	4ee046b7          	lui	a3,0x4ee04
    2dfa:	1eb747a7          	fsq	fa1,495(a4) # d4ab6dd1 <__stop_addr+0xd46b6dc9>
    2dfe:	014b4803          	lbu	a6,20(s6)
    2e02:	48e9                	li	a7,26
    2e04:	490787d3          	0x490787d3
    2e08:	3671                	jal	2994 <verify_data+0x6b8>
    2e0a:	509148d3          	0x509148d3
    2e0e:	48aa                	lw	a7,136(sp)
    2e10:	4821672f          	0x4821672f
    2e14:	489a95bf 45d1ca0c 	0x45d1ca0c489a95bf
    2e1c:	c364                	sw	s1,68(a4)
    2e1e:	4904                	lw	s1,16(a0)
    2e20:	491d6c43          	fmadd.s	fs8,fs10,fa7,fs1,unknown
    2e24:	001d                	c.nop	7
    2e26:	456a                	lw	a0,152(sp)
    2e28:	2c66                	fld	fs8,88(sp)
    2e2a:	4901                	li	s2,0
    2e2c:	9130                	0x9130
    2e2e:	4822                	lw	a6,8(sp)
    2e30:	3101                	jal	2a30 <verify_data+0x754>
    2e32:	488c                	lw	a1,16(s1)
    2e34:	d3a2                	sw	s0,228(sp)
    2e36:	481a                	lw	a6,132(sp)
    2e38:	96c5                	srai	a3,a3,0x31
    2e3a:	45be                	lw	a1,204(sp)
    2e3c:	c4c9                	beqz	s1,2ec6 <input_data2+0x32>
    2e3e:	185a47bf 73f447be 	0x73f447be185a47bf
    2e46:	1c3147e7          	0x1c3147e7
    2e4a:	48d2                	lw	a7,20(sp)
    2e4c:	90e0                	0x90e0
    2e4e:	4800                	lw	s0,16(s0)
    2e50:	26a8                	fld	fa0,72(a3)
    2e52:	5b8f46eb          	0x5b8f46eb
    2e56:	470c                	lw	a1,8(a4)
    2e58:	29fc                	fld	fa5,208(a1)
    2e5a:	4230                	lw	a2,64(a2)
    2e5c:	47d59e47          	fmsub.q	ft8,fa1,ft9,fs0,rtz
    2e60:	2fee                	fld	ft11,216(sp)
    2e62:	48a9                	li	a7,10
    2e64:	62c5                	lui	t0,0x11
    2e66:	4639                	li	a2,14
    2e68:	4761874f          	fnmadd.q	fa4,ft3,fs6,fs0,rne
    2e6c:	0f6c                	addi	a1,sp,924
    2e6e:	48c6                	lw	a7,80(sp)
    2e70:	47a88b57          	0x47a88b57
    2e74:	4755                	li	a4,21
    2e76:	9d774937          	lui	s2,0x9d774
    2e7a:	487c                	lw	a5,84(s0)
    2e7c:	8885                	andi	s1,s1,1
    2e7e:	47c9                	li	a5,18
    2e80:	b591                	j	2cc4 <verify_data+0x9e8>
    2e82:	56f9493f 44a14915 	0x44a1491556f9493f
    2e8a:	47f4                	lw	a3,76(a5)
    2e8c:	bdda                	fsd	fs6,248(sp)
    2e8e:	467e                	lw	a2,220(sp)
    2e90:	47946847          	fmsub.q	fa6,fs0,fs9,fs0,unknown

00002e94 <input_data2>:
    2e94:	f2f2                	fsw	ft8,100(sp)
    2e96:	4321                	li	t1,8
    2e98:	78d5                	lui	a7,0xffff5
    2e9a:	a28f4217          	auipc	tp,0xa28f4
    2e9e:	b95843cb          	fnmsub.s	ft7,fa6,fs5,fs7,rmm
    2ea2:	88314207          	flq	ft4,-1917(sp)
    2ea6:	446c                	lw	a1,76(s0)
    2ea8:	73f8                	flw	fa4,100(a5)
    2eaa:	24dd4417          	auipc	s0,0x24dd4
    2eae:	41f1                	li	gp,28
    2eb0:	4469d323          	0x4469d323
    2eb4:	2364                	fld	fs1,192(a4)
    2eb6:	4440                	lw	s0,12(s0)
    2eb8:	a9fc                	fsd	fa5,208(a1)
    2eba:	41d8                	lw	a4,4(a1)
    2ebc:	acbc                	fsd	fa5,88(s1)
    2ebe:	4459                	li	s0,22
    2ec0:	4625                	li	a2,9
    2ec2:	42b1                	li	t0,12
    2ec4:	ad0e                	fsd	ft3,152(sp)
    2ec6:	bcee42e3          	blt	t3,a4,2a8a <verify_data+0x7ae>
    2eca:	43dc                	lw	a5,4(a5)
    2ecc:	ed0e                	fsw	ft3,152(sp)
    2ece:	4314                	lw	a3,0(a4)
    2ed0:	43a9ac8b          	0x43a9ac8b
    2ed4:	f4bc                	fsw	fa5,104(s1)
    2ed6:	4278                	lw	a4,68(a2)
    2ed8:	43ac3f3b          	0x43ac3f3b
    2edc:	399a                	fld	fs3,416(sp)
    2ede:	925e4313          	xori	t1,t3,-1755
    2ee2:	440a                	lw	s0,128(sp)
    2ee4:	97f0                	0x97f0
    2ee6:	4451                	li	s0,20
    2ee8:	ae98                	fsd	fa4,24(a3)
    2eea:	43b6                	lw	t2,76(sp)
    2eec:	4604                	lw	s1,8(a2)
    2eee:	aefa4453          	0xaefa4453
    2ef2:	446e                	lw	s0,216(sp)
    2ef4:	66c9                	lui	a3,0x12
    2ef6:	43d8                	lw	a4,4(a5)
    2ef8:	441fcf2b          	0x441fcf2b
    2efc:	430d5917          	auipc	s2,0x430d5
    2f00:	5e14                	lw	a3,56(a2)
    2f02:	43c6                	lw	t2,80(sp)
    2f04:	5db2                	lw	s11,44(sp)
    2f06:	ebe74353          	0xebe74353
    2f0a:	572b4477          	0x572b4477
    2f0e:	444c                	lw	a1,12(s0)
    2f10:	5fbe                	lw	t6,236(sp)
    2f12:	4379                	li	t1,30
    2f14:	4f0a                	lw	t5,128(sp)
    2f16:	444d                	li	s0,19
    2f18:	1168                	addi	a0,sp,172
    2f1a:	43a9                	li	t2,10
    2f1c:	b25e                	fsd	fs7,288(sp)
    2f1e:	440c                	lw	a1,8(s0)
    2f20:	3d71                	jal	2dbc <verify_data+0xae0>
    2f22:	4450                	lw	a2,12(s0)
    2f24:	43b63937          	lui	s2,0x43b63
    2f28:	8a2d                	andi	a2,a2,11
    2f2a:	f4cd4473          	0xf4cd4473
    2f2e:	4419                	li	s0,6
    2f30:	ceb8                	sw	a4,88(a3)
    2f32:	43c4                	lw	s1,4(a5)
    2f34:	d419                	beqz	s0,2e42 <verify_data+0xb66>
    2f36:	1a1d43f7          	0x1a1d43f7
    2f3a:	4385                	li	t2,1
    2f3c:	444b0137          	lui	sp,0x444b0
    2f40:	40e5                	li	ra,25
    2f42:	339643eb          	0x339643eb
    2f46:	4465                	li	s0,25
    2f48:	43ae1b23          	sh	s10,1078(t3)
    2f4c:	9e35                	0x9e35
    2f4e:	431f 3e56 43a8      	0x43a83e56431f
    2f54:	6148                	flw	fa0,4(a0)
    2f56:	c10643d7          	0xc10643d7
    2f5a:	43d1                	li	t2,20
    2f5c:	d8c5                	beqz	s1,2f0c <input_data2+0x78>
    2f5e:	4448                	lw	a0,12(s0)
    2f60:	437943d7          	0x437943d7
    2f64:	50a4                	lw	s1,96(s1)
    2f66:	4334                	lw	a3,64(a4)
    2f68:	ee14                	fsw	fa3,24(a2)
    2f6a:	21064357          	0x21064357
    2f6e:	4408                	lw	a0,8(s0)
    2f70:	a189                	j	33b2 <input_data2+0x51e>
    2f72:	2c194407          	flq	fs0,705(s2) # 43b632c1 <__stop_addr+0x437632b9>
    2f76:	4452                	lw	s0,20(sp)
    2f78:	dcdd                	beqz	s1,2f36 <input_data2+0xa2>
    2f7a:	4461                	li	s0,24
    2f7c:	2e14                	fld	fa3,24(a2)
    2f7e:	43e5                	li	t2,25
    2f80:	441f1fcf          	0x441f1fcf
    2f84:	4444b7cf          	0x4444b7cf
    2f88:	7625                	lui	a2,0xfffe9
    2f8a:	4436                	lw	s0,76(sp)
    2f8c:	34dd                	jal	2a72 <verify_data+0x796>
    2f8e:	445a                	lw	s0,148(sp)
    2f90:	475c                	lw	a5,12(a4)
    2f92:	4411                	li	s0,4
    2f94:	e821                	bnez	s0,2fe4 <input_data2+0x150>
    2f96:	4446                	lw	s0,80(sp)
    2f98:	2052                	fld	ft0,272(sp)
    2f9a:	444d                	li	s0,19
    2f9c:	96a8                	0x96a8
    2f9e:	4449                	li	s0,18
    2fa0:	4427f1cb          	0x4427f1cb
    2fa4:	8646                	mv	a2,a7
    2fa6:	443d                	li	s0,15
    2fa8:	d8b4                	sw	a3,112(s1)
    2faa:	4474                	lw	a3,76(s0)
    2fac:	6c08                	flw	fa0,24(s0)
    2fae:	42d1                	li	t0,20
    2fb0:	149c                	addi	a5,sp,608
    2fb2:	43d1                	li	t2,20
    2fb4:	dc29                	beqz	s0,2f0e <input_data2+0x7a>
    2fb6:	43c8                	lw	a0,4(a5)
    2fb8:	ae56                	fsd	fs5,280(sp)
    2fba:	27ae4427          	fsq	fs10,616(t3)
    2fbe:	437e                	lw	t1,220(sp)
    2fc0:	0604                	addi	s1,sp,768
    2fc2:	4466                	lw	s0,88(sp)
    2fc4:	2560                	fld	fs0,200(a0)
    2fc6:	4476                	lw	s0,92(sp)
    2fc8:	440e15e3          	bnez	t3,3c12 <input_data1+0x1c6>
    2fcc:	5a5e                	lw	s4,244(sp)
    2fce:	4308                	lw	a0,0(a4)
    2fd0:	4439                	li	s0,14
    2fd2:	443a                	lw	s0,140(sp)
    2fd4:	44366093          	ori	ra,a2,1091
    2fd8:	4425b3d7          	0x4425b3d7
    2fdc:	1d60                	addi	s0,sp,700
    2fde:	4412                	lw	s0,4(sp)
    2fe0:	0000                	unimp
    2fe2:	a385430b          	0xa385430b
    2fe6:	4446                	lw	s0,80(sp)
    2fe8:	edb2                	fsw	fa2,216(sp)
    2fea:	43c0                	lw	s0,4(a5)
    2fec:	68f6                	flw	fa7,92(sp)
    2fee:	f25e43cf          	fnmadd.d	ft7,ft8,ft5,ft10,rmm
    2ff2:	25714467          	0x25714467
    2ff6:	4404                	lw	s1,8(s0)
    2ff8:	2ed9                	jal	33ce <input_data2+0x53a>
    2ffa:	432d                	li	t1,11
    2ffc:	da1d                	beqz	a2,2f32 <input_data2+0x9e>
    2ffe:	4430                	lw	a2,72(s0)
    3000:	a76d                	j	37aa <input_data2+0x916>
    3002:	43e4                	lw	s1,68(a5)
    3004:	8571                	srai	a0,a0,0x1c
    3006:	440a                	lw	s0,128(sp)
    3008:	34dd                	jal	2aee <verify_data+0x812>
    300a:	439e                	lw	t2,196(sp)
    300c:	43bd3893          	sltiu	a7,s10,1083
    3010:	eb85                	bnez	a5,3040 <input_data2+0x1ac>
    3012:	ba3d4337          	lui	t1,0xba3d4
    3016:	b99a443f 491743ee 	0x491743eeb99a443f
    301e:	4474                	lw	a3,76(s0)
    3020:	5581                	li	a1,-32
    3022:	4344                	lw	s1,4(a4)
    3024:	d6c9                	beqz	a3,2fae <input_data2+0x11a>
    3026:	436c                	lw	a1,68(a4)
    3028:	f1aa                	fsw	fa0,224(sp)
    302a:	ec0843c7          	0xec0843c7
    302e:	446c                	lw	a1,76(s0)
    3030:	3189                	jal	2c72 <verify_data+0x996>
    3032:	43d0                	lw	a2,4(a5)
    3034:	fa1d                	bnez	a2,2f6a <input_data2+0xd6>
    3036:	4365                	li	t1,25
    3038:	6ed9                	lui	t4,0x16
    303a:	4449                	li	s0,18
    303c:	6e14                	flw	fa3,24(a2)
    303e:	4325                	li	t1,9
    3040:	44791093          	0x44791093
    3044:	43fce47b          	0x43fce47b
    3048:	1168                	addi	a0,sp,172
    304a:	353f4387          	flq	ft7,851(t5) # e353 <input_data1+0xa907>
    304e:	42d2                	lw	t0,20(sp)
    3050:	e031                	bnez	s0,3094 <input_data2+0x200>
    3052:	39274437          	lui	s0,0x39274
    3056:	4430                	lw	a2,72(s0)
    3058:	2db2                	fld	fs11,264(sp)
    305a:	442e                	lw	s0,200(sp)
    305c:	122d                	addi	tp,tp,-21
    305e:	68314447          	fmsub.s	fs0,ft2,ft3,fa3,rmm
    3062:	444e                	lw	s0,208(sp)
    3064:	5646                	lw	a2,112(sp)
    3066:	430c                	lw	a1,0(a4)
    3068:	2831                	jal	3084 <input_data2+0x1f0>
    306a:	4404                	lw	s1,8(s0)
    306c:	4397e5e3          	bltu	a5,s9,3c96 <input_data1+0x24a>
    3070:	e45a                	fsw	fs6,8(sp)
    3072:	424a                	lw	tp,144(sp)
    3074:	d9ba                	sw	a4,240(sp)
    3076:	4446                	lw	s0,80(sp)
    3078:	f375                	bnez	a4,305c <input_data2+0x1c8>
    307a:	cc19441b          	0xcc19441b
    307e:	441e                	lw	s0,196(sp)
    3080:	60f6                	flw	ft1,92(sp)
    3082:	4406                	lw	s0,64(sp)
    3084:	0312                	slli	t1,t1,0x4
    3086:	440c                	lw	a1,8(s0)
    3088:	ee14                	fsw	fa3,24(a2)
    308a:	42ae                	lw	t0,200(sp)
    308c:	6042                	flw	ft0,16(sp)
    308e:	42ee                	lw	t0,216(sp)
    3090:	43934083          	lbu	ra,1081(t1) # ba3d4439 <__stop_addr+0xb9fd4431>
    3094:	1eb8                	addi	a4,sp,888
    3096:	e45a410f          	0xe45a410f
    309a:	4458                	lw	a4,12(s0)
    309c:	075c                	addi	a5,sp,900
    309e:	4405                	li	s0,1
    30a0:	85a2                	mv	a1,s0
    30a2:	42dc                	lw	a5,4(a3)
    30a4:	444b8bc7          	0x444b8bc7
    30a8:	4c6a                	lw	s8,152(sp)
    30aa:	75c343c7          	0x75c343c7
    30ae:	4215                	li	tp,5
    30b0:	4db2                	lw	s11,12(sp)
    30b2:	3f2b4443          	fmadd.q	fs0,fs6,fs2,ft7,rmm
    30b6:	4412                	lw	s0,4(sp)
    30b8:	a906                	fsd	ft1,144(sp)
    30ba:	4421                	li	s0,8
    30bc:	f810                	fsw	fa2,48(s0)
    30be:	4438                	lw	a4,72(s0)
    30c0:	9042                	c.add	zero,a6
    30c2:	d6a843bb          	0xd6a843bb
    30c6:	441a                	lw	s0,132(sp)
    30c8:	d591                	beqz	a1,2fd4 <input_data2+0x140>
    30ca:	d28f446b          	0xd28f446b
    30ce:	42a0443f 0df44460 	0xdf4446042a0443f
    30d6:	5ee943ef          	jal	t2,976c4 <input_data1+0x93c78>
    30da:	88314413          	xori	s0,sp,-1917
    30de:	4266                	lw	tp,88(sp)
    30e0:	2d0e                	fld	fs10,192(sp)
    30e2:	4232                	lw	tp,12(sp)
    30e4:	b042                	fsd	fa6,32(sp)
    30e6:	15e3446f          	jal	s0,37244 <input_data1+0x337f8>
    30ea:	4390                	lw	a2,0(a5)
    30ec:	1ae1                	addi	s5,s5,-8
    30ee:	4444                	lw	s1,12(s0)
    30f0:	5550                	lw	a2,44(a0)
    30f2:	6ab04453          	0x6ab04453
    30f6:	4476                	lw	s0,92(sp)
    30f8:	b560                	fsd	fs0,232(a0)
    30fa:	4439                	li	s0,14
    30fc:	5c19                	li	s8,-26
    30fe:	4451                	li	s0,20
    3100:	020c                	addi	a1,sp,256
    3102:	42c6                	lw	t0,80(sp)
    3104:	d24e                	sw	s3,36(sp)
    3106:	4399                	li	t2,6
    3108:	a46a                	fsd	fs10,8(sp)
    310a:	4402                	lw	s0,0(sp)
    310c:	d70a                	sw	sp,172(sp)
    310e:	de984287          	flq	ft5,-535(a6) # fffe6de9 <__stop_addr+0xffbe6de1>
    3112:	43dd                	li	t2,23
    3114:	12a0                	addi	s0,sp,360
    3116:	444e                	lw	s0,208(sp)
    3118:	2a3d                	jal	3256 <input_data2+0x3c2>
    311a:	43d8                	lw	a4,4(a5)
    311c:	275c                	fld	fa5,136(a4)
    311e:	4479                	li	s0,30
    3120:	e831                	bnez	s0,3174 <input_data2+0x2e0>
    3122:	4325                	li	t1,9
    3124:	443b4dd3          	0x443b4dd3
    3128:	4468b883          	0x4468b883
    312c:	432b9b23          	sh	s2,1078(s7)
    3130:	851f 41e7 8052      	0x805241e7851f
    3136:	444e                	lw	s0,208(sp)
    3138:	d51f 43e6 6354      	0x635443e6d51f
    313e:	fe14441b          	0xfe14441b
    3142:	43a1                	li	t2,8
    3144:	4ac1                	li	s5,16
    3146:	41cb431b          	0x41cb431b
    314a:	4388                	lw	a0,0(a5)
    314c:	8635                	srai	a2,a2,0xd
    314e:	444e                	lw	s0,208(sp)
    3150:	4fdf 43bc 6873      	0x687343bc4fdf
    3156:	422d                	li	tp,11
    3158:	5d71                	li	s10,-4
    315a:	43aa                	lw	t2,136(sp)
    315c:	86b8                	0x86b8
    315e:	442d                	li	s0,11
    3160:	88b4                	0x88b4
    3162:	4460                	lw	s0,76(s0)
    3164:	f6c9                	bnez	a3,30ee <input_data2+0x25a>
    3166:	42a1                	li	t0,8
    3168:	431e5f3b          	0x431e5f3b
    316c:	4a3d                	li	s4,15
    316e:	436c                	lw	a1,68(a4)
    3170:	bfbe                	fsd	fa5,504(sp)
    3172:	4328                	lw	a0,64(a4)
    3174:	ea7f                	0xea7f
    3176:	443a                	lw	s0,140(sp)
    3178:	c148                	sw	a0,4(a0)
    317a:	43dd                	li	t2,23
    317c:	1062                	c.slli	zero,0x38
    317e:	443a                	lw	s0,140(sp)
    3180:	4341bbe7          	0x4341bbe7
    3184:	f604                	fsw	fs1,40(a2)
    3186:	4384                	lw	s1,0(a5)
    3188:	cccd                	beqz	s1,3242 <input_data2+0x3ae>
    318a:	441d                	li	s0,7
    318c:	9375                	srli	a4,a4,0x3d
    318e:	42f8                	lw	a4,68(a3)
    3190:	4469f927          	0x4469f927
    3194:	d8c5                	beqz	s1,3144 <input_data2+0x2b0>
    3196:	4436                	lw	s0,76(sp)
    3198:	02f2                	slli	t0,t0,0x1c
    319a:	4389                	li	t2,2
    319c:	7cfe                	flw	fs9,252(sp)
    319e:	6958446b          	0x6958446b
    31a2:	ce144443          	fmadd.q	fs0,fs0,ft1,fs9,rmm
    31a6:	43d4                	lw	a3,4(a5)
    31a8:	4339926f          	jal	tp,9cdda <input_data1+0x9938e>
    31ac:	20c5                	jal	328c <input_data2+0x3f8>
    31ae:	43b9                	li	t2,14
    31b0:	f6e9                	bnez	a3,317a <input_data2+0x2e6>
    31b2:	441a                	lw	s0,132(sp)
    31b4:	23b6                	fld	ft7,328(sp)
    31b6:	43a0                	lw	s0,64(a5)
    31b8:	2ccd                	jal	34aa <input_data2+0x616>
    31ba:	4392                	lw	t2,4(sp)
    31bc:	9fdf 4386 553f      	0x553f43869fdf
    31c2:	4469                	li	s0,26
    31c4:	beb8                	fsd	fa4,120(a3)
    31c6:	67ae4407          	flq	fs0,1658(t3)
    31ca:	431c                	lw	a5,0(a4)
    31cc:	d74c                	sw	a1,44(a4)
    31ce:	443e                	lw	s0,204(sp)
    31d0:	d7be                	sw	a5,236(sp)
    31d2:	444e                	lw	s0,208(sp)
    31d4:	14fe                	slli	s1,s1,0x3f
    31d6:	443c                	lw	a5,72(s0)
    31d8:	86a8                	0x86a8
    31da:	42b1                	li	t0,12
    31dc:	4464f26f          	jal	tp,52622 <input_data1+0x4ebd6>
    31e0:	e2b0                	fsw	fa2,64(a3)
    31e2:	4476                	lw	s0,92(sp)
    31e4:	4167df3b          	0x4167df3b
    31e8:	441d5e87          	0x441d5e87
    31ec:	d0e5                	beqz	s1,31cc <input_data2+0x338>
    31ee:	3f82                	fld	ft11,32(sp)
    31f0:	4148                	lw	a0,4(a0)
    31f2:	4422                	lw	s0,8(sp)
    31f4:	44629083          	lh	ra,1094(t0) # 11446 <input_data1+0xd9fa>
    31f8:	9db2                	add	s11,s11,a2
    31fa:	4200                	lw	s0,0(a2)
    31fc:	4478e3e7          	0x4478e3e7
    3200:	a7f0                	fsd	fa2,200(a5)
    3202:	3f96                	fld	ft11,352(sp)
    3204:	7364                	flw	fs1,100(a4)
    3206:	444a                	lw	s0,144(sp)
    3208:	443a3927          	fsd	ft3,1106(s4) # d452 <input_data1+0x9a06>
    320c:	440c3e87          	fld	ft9,1088(s8) # fffe0440 <__stop_addr+0xffbe0438>
    3210:	9aa0                	0x9aa0
    3212:	706243c7          	fmsub.s	ft7,ft4,ft6,fa4,rmm
    3216:	445a                	lw	s0,148(sp)
    3218:	d78d                	beqz	a5,3142 <input_data2+0x2ae>
    321a:	4464                	lw	s1,76(s0)
    321c:	20c5                	jal	32fc <input_data2+0x468>
    321e:	fd814473          	0xfd814473
    3222:	4445                	li	s0,17
    3224:	4390b3d7          	0x4390b3d7
    3228:	a581                	j	3868 <input_data2+0x9d4>
    322a:	440a                	lw	s0,128(sp)
    322c:	43fec9db          	0x43fec9db
    3230:	0625                	addi	a2,a2,9
    3232:	4476                	lw	s0,92(sp)
    3234:	440bb083          	0x440bb083
    3238:	aa5e                	fsd	fs7,272(sp)
    323a:	4404                	lw	s1,8(s0)
    323c:	8550                	0x8550
    323e:	4472                	lw	s0,28(sp)
    3240:	250e                	fld	fa0,192(sp)
    3242:	4416                	lw	s0,68(sp)
    3244:	43cacdd3          	0x43cacdd3
    3248:	e1ec                	fsw	fa1,68(a1)
    324a:	43c8                	lw	a0,4(a5)
    324c:	4410e333          	0x4410e333
    3250:	442ac893          	xori	a7,s5,1090
    3254:	c646                	sw	a7,12(sp)
    3256:	4392                	lw	t2,4(sp)
    3258:	4407172b          	0x4407172b
    325c:	437b2dd3          	0x437b2dd3
    3260:	fc19                	bnez	s0,317e <input_data2+0x2ea>
    3262:	4461                	li	s0,24
    3264:	6f4c                	flw	fa1,28(a4)
    3266:	4454                	lw	a3,12(s0)
    3268:	b1aa                	fsd	fa0,224(sp)
    326a:	42f1                	li	t0,28
    326c:	174c                	addi	a1,sp,932
    326e:	4301                	li	t1,0
    3270:	f7ae                	fsw	fa1,236(sp)
    3272:	4478                	lw	a4,76(s0)
    3274:	6eb8                	flw	fa4,88(a3)
    3276:	43e2                	lw	t2,24(sp)
    3278:	76d9                	lui	a3,0xffff6
    327a:	4402                	lw	s0,0(sp)
    327c:	0c9c                	addi	a5,sp,592
    327e:	89ec4433          	0x89ec4433
    3282:	3852441b          	0x3852441b
    3286:	42ad                	li	t0,11
    3288:	a6a8                	fsd	fa0,72(a3)
    328a:	4360                	lw	s0,68(a4)
    328c:	4429b117          	auipc	sp,0x4429b
    3290:	d44a                	sw	s2,40(sp)
    3292:	445f c5a2 4335      	0x4335c5a2445f
    3298:	94ee                	add	s1,s1,s11
    329a:	4404                	lw	s1,8(s0)
    329c:	dcee                	sw	s11,120(sp)
    329e:	4370                	lw	a2,68(a4)
    32a0:	33b6                	fld	ft7,360(sp)
    32a2:	444d                	li	s0,19
    32a4:	fefa                	fsw	ft10,124(sp)
    32a6:	ed2f43a7          	fsq	fs2,-313(t5)
    32aa:	4422                	lw	s0,8(sp)
    32ac:	77ae                	flw	fa5,232(sp)
    32ae:	4446                	lw	s0,80(sp)
    32b0:	2979                	jal	374e <input_data2+0x8ba>
    32b2:	4362                	lw	t1,24(sp)
    32b4:	6e04                	flw	fs1,24(a2)
    32b6:	4420                	lw	s0,72(s0)
    32b8:	449c                	lw	a5,8(s1)
    32ba:	42c0                	lw	s0,4(a3)
    32bc:	28f6                	fld	fa7,344(sp)
    32be:	3fbc                	fld	fa5,120(a5)
    32c0:	438373d7          	0x438373d7
    32c4:	43a01b23          	sh	s10,1078(zero) # 436 <_Z4itoaijjjPcj+0x11e>
    32c8:	4cdd                	li	s9,23
    32ca:	440e                	lw	s0,192(sp)
    32cc:	4476d117          	auipc	sp,0x4476d
    32d0:	a666                	fsd	fs9,264(sp)
    32d2:	436e                	lw	t1,216(sp)
    32d4:	bb54                	fsd	fa3,176(a4)
    32d6:	4421                	li	s0,8
    32d8:	fae1                	bnez	a3,32a8 <input_data2+0x414>
    32da:	42fc                	lw	a5,68(a3)
    32dc:	b7ae                	fsd	fa1,488(sp)
    32de:	443c                	lw	a5,72(s0)
    32e0:	b6c9                	j	2ea2 <input_data2+0xe>
    32e2:	4418                	lw	a4,8(s0)
    32e4:	b581                	j	3124 <input_data2+0x290>
    32e6:	9917446f          	jal	s0,fff77c76 <__stop_addr+0xffb77c6e>
    32ea:	9efa433f eac1434b 	0xeac1434b9efa433f
    32f2:	436e                	lw	t1,216(sp)
    32f4:	1cac                	addi	a1,sp,632
    32f6:	430e                	lw	t1,192(sp)
    32f8:	3df4                	fld	fa3,248(a1)
    32fa:	28734447          	fmsub.s	fs0,ft6,ft7,ft5,rmm
    32fe:	4334                	lw	a3,64(a4)
    3300:	2591                	jal	3944 <input_data2+0xab0>
    3302:	445d                	li	s0,23
    3304:	4395fd2f          	0x4395fd2f
    3308:	440f45c3          	0x440f45c3
    330c:	ec08                	fsw	fa0,24(s0)
    330e:	4325                	li	t1,9
    3310:	42d8028f          	0x42d8028f
    3314:	5d71                	li	s10,-4
    3316:	443e                	lw	s0,204(sp)
    3318:	974c                	0x974c
    331a:	430c                	lw	a1,0(a4)
    331c:	9948                	0x9948
    331e:	70624473          	0x70624473
    3322:	4445                	li	s0,17
    3324:	b604                	fsd	fs1,40(a2)
    3326:	4421                	li	s0,8
    3328:	44553d3f 440bf396 	0x440bf39644553d3f
    3330:	ae14                	fsd	fa3,24(a2)
    3332:	41bd                	li	gp,15
    3334:	f44a                	fsw	fs2,40(sp)
    3336:	441a                	lw	s0,132(sp)
    3338:	24ee                	fld	fs1,216(sp)
    333a:	4430                	lw	a2,72(s0)
    333c:	7eb8                	flw	fa4,120(a3)
    333e:	b0b443d3          	0xb0b443d3
    3342:	445e                	lw	s0,212(sp)
    3344:	68b4                	flw	fa3,80(s1)
    3346:	4382                	lw	t2,0(sp)
    3348:	40e5                	li	ra,25
    334a:	43f0                	lw	a2,68(a5)
    334c:	7989                	lui	s3,0xfffe2
    334e:	440d                	li	s0,3
    3350:	20c5                	jal	3430 <input_data2+0x59c>
    3352:	8a4e4253          	0x8a4e4253
    3356:	374c4407          	flq	fs0,884(s8)
    335a:	43ba                	lw	t2,140(sp)
    335c:	3efa                	fld	ft9,440(sp)
    335e:	43f6                	lw	t2,92(sp)
    3360:	0312                	slli	t1,t1,0x4
    3362:	4349                	li	t1,18
    3364:	ecfe                	fsw	ft11,88(sp)
    3366:	a6d94477          	0xa6d94477
    336a:	4408                	lw	a0,8(s0)
    336c:	6831                	lui	a6,0xc
    336e:	443a                	lw	s0,140(sp)
    3370:	43cc6d2f          	0x43cc6d2f
    3374:	a666                	fsd	fs9,264(sp)
    3376:	c9ba434f          	fnmadd.s	ft6,fs4,fs11,fs9,rmm
    337a:	3b6442ef          	jal	t0,47730 <input_data1+0x43ce4>
    337e:	43ba                	lw	t2,140(sp)
    3380:	6842                	flw	fa6,16(sp)
    3382:	4421                	li	s0,8
    3384:	270a                	fld	fa4,128(sp)
    3386:	4469                	li	s0,26
    3388:	43e86b23          	0x43e86b23
    338c:	442619cb          	0x442619cb
    3390:	9aa0                	0x9aa0
    3392:	5a1d42a3          	0x5a1d42a3
    3396:	a0c5420b          	0xa0c5420b
    339a:	4392                	lw	t2,4(sp)
    339c:	7cac                	flw	fa1,120(s1)
    339e:	4405                	li	s0,1
    33a0:	9db2                	add	s11,s11,a2
    33a2:	4251                	li	tp,20
    33a4:	43ef3bc7          	fmsub.d	fs7,ft10,ft10,fs0,rup
    33a8:	06c9                	addi	a3,a3,18
    33aa:	445c                	lw	a5,12(s0)
    33ac:	3d1f 4463 0560      	0x56044633d1f
    33b2:	4360                	lw	s0,68(a4)
    33b4:	0c08                	addi	a0,sp,528
    33b6:	35d3434b          	0x35d3434b
    33ba:	443a                	lw	s0,140(sp)
    33bc:	4206926f          	jal	tp,6c7dc <input_data1+0x68d90>
    33c0:	4437e1db          	0x4437e1db
    33c4:	2f9e                	fld	ft11,448(sp)
    33c6:	4356                	lw	t1,84(sp)
    33c8:	8010                	0x8010
    33ca:	445d                	li	s0,23
    33cc:	e419                	bnez	s0,33da <input_data2+0x546>
    33ce:	43b6                	lw	t2,76(sp)
    33d0:	58d5                	li	a7,-11
    33d2:	1a3d4327          	fsq	ft3,422(s10) # 1e1a6 <input_data1+0x1a75a>
    33d6:	445f 0000 3ff0      	0x3ff00000445f
    33dc:	44435b33          	0x44435b33
    33e0:	0c4a                	slli	s8,s8,0x12
    33e2:	4405                	li	s0,1
    33e4:	0d1f 442a b1aa      	0xb1aa442a0d1f
    33ea:	43a0                	lw	s0,64(a5)
    33ec:	44304d2f          	0x44304d2f
    33f0:	1a5e                	slli	s4,s4,0x37
    33f2:	4329                	li	t1,10
    33f4:	28f6                	fld	fa7,344(sp)
    33f6:	442c                	lw	a1,72(s0)
    33f8:	da3d                	beqz	a2,336e <input_data2+0x4da>
    33fa:	43f2                	lw	t2,28(sp)
    33fc:	cab0                	sw	a2,80(a3)
    33fe:	446c                	lw	a1,76(s0)
    3400:	42cb7333          	0x42cb7333
    3404:	43c131cb          	fnmsub.d	ft3,ft2,ft8,fs0,rup
    3408:	4331ac8b          	0x4331ac8b
    340c:	9ba6                	add	s7,s7,s1
    340e:	4249                	li	tp,18
    3410:	b22d                	j	2d3a <verify_data+0xa5e>
    3412:	9aa0422b          	0x9aa0422b
    3416:	42ca                	lw	t0,144(sp)
    3418:	44310b33          	0x44310b33
    341c:	7c4a                	flw	fs8,176(sp)
    341e:	43ed                	li	t2,27
    3420:	a4bc                	fsd	fa5,72(s1)
    3422:	8b644423          	0x8b644423
    3426:	f2e143c7          	fmsub.d	ft7,ft2,fa4,ft10,rmm
    342a:	4464                	lw	s1,76(s0)
    342c:	4429c093          	xori	ra,s3,1090
    3430:	441c6c7b          	0x441c6c7b
    3434:	1042                	c.slli	zero,0x30
    3436:	43a5                	li	t2,9
    3438:	2396                	fld	ft7,320(sp)
    343a:	4372                	lw	t1,28(sp)
    343c:	3ec9                	jal	300e <input_data2+0x17a>
    343e:	446e                	lw	s0,216(sp)
    3440:	b581                	j	3280 <input_data2+0x3ec>
    3442:	444d                	li	s0,19
    3444:	d4dd                	beqz	s1,33f2 <input_data2+0x55e>
    3446:	d60443eb          	0xd60443eb
    344a:	4446                	lw	s0,80(sp)
    344c:	43eebbe7          	0x43eebbe7
    3450:	4420426f          	jal	tp,7892 <input_data1+0x3e46>
    3454:	7168                	flw	fa0,100(a0)
    3456:	4435                	li	s0,13
    3458:	6b44                	flw	fs1,20(a4)
    345a:	437c                	lw	a5,68(a4)
    345c:	70e5                	lui	ra,0xffff9
    345e:	4432                	lw	s0,12(sp)
    3460:	4375a28f          	0x4375a28f
    3464:	70d5                	lui	ra,0xffff5
    3466:	446a                	lw	s0,152(sp)
    3468:	570a                	lw	a4,160(sp)
    346a:	4a8f4317          	auipc	t1,0x4a8f4
    346e:	4404                	lw	s1,8(s0)
    3470:	1b64                	addi	s1,sp,444
    3472:	9a2d445b          	0x9a2d445b
    3476:	4459                	li	s0,22
    3478:	86a8                	0x86a8
    347a:	43a6                	lw	t2,72(sp)
    347c:	429bfbe7          	0x429bfbe7
    3480:	4396                	lw	t2,68(sp)
    3482:	4416                	lw	s0,68(sp)
    3484:	5604                	lw	s1,40(a2)
    3486:	4408                	lw	a0,8(s0)
    3488:	baf2                	fsd	ft8,368(sp)
    348a:	446a                	lw	s0,152(sp)
    348c:	ecfe                	fsw	ft11,88(sp)
    348e:	4462                	lw	s0,24(sp)
    3490:	4441c333          	0x4441c333
    3494:	6429                	lui	s0,0xa
    3496:	4455                	li	s0,21
    3498:	bfbe                	fsd	fa5,504(sp)
    349a:	43c6                	lw	t2,80(sp)
    349c:	430fadd3          	0x430fadd3
    34a0:	c9ba                	sw	a4,208(sp)
    34a2:	4369                	li	t1,26
    34a4:	4474e48b          	0x4474e48b
    34a8:	f20c                	fsw	fa1,32(a2)
    34aa:	443c                	lw	a5,72(s0)
    34ac:	436f35c3          	fmadd.d	fa1,ft10,fs6,fs0,rup
    34b0:	07ae                	slli	a5,a5,0xb
    34b2:	989343e3          	blt	t1,s1,2e38 <verify_data+0xb5c>
    34b6:	37cf42d3          	0x37cf42d3
    34ba:	43d4                	lw	a3,4(a5)
    34bc:	43b6d1cb          	fnmsub.d	ft3,fa3,fs11,fs0,unknown
    34c0:	0312                	slli	t1,t1,0x4
    34c2:	4352                	lw	t1,20(sp)
    34c4:	42c54937          	lui	s2,0x42c54
    34c8:	97ae                	add	a5,a5,a1
    34ca:	4470                	lw	a2,76(s0)
    34cc:	3b64                	fld	fs1,240(a4)
    34ce:	425a                	lw	tp,148(sp)
    34d0:	3b85                	jal	3240 <input_data2+0x3ac>
    34d2:	4461                	li	s0,24
    34d4:	13f8                	addi	a4,sp,492
    34d6:	42c4                	lw	s1,4(a3)
    34d8:	4466c137          	lui	sp,0x4466c
    34dc:	43dc0687          	0x43dc0687
    34e0:	dd91                	beqz	a1,33fc <input_data2+0x568>
    34e2:	3c8b4423          	0x3c8b4423
    34e6:	776d443f cfdf4404 	0xcfdf4404776d443f
    34ee:	439d                	li	t2,7
    34f0:	c0e5                	beqz	s1,35d0 <input_data2+0x73c>
    34f2:	4414                	lw	a3,8(s0)
    34f4:	43a8626f          	jal	tp,8992e <input_data1+0x85ee2>
    34f8:	42b5c72b          	0x42b5c72b
    34fc:	47be                	lw	a5,204(sp)
    34fe:	442e                	lw	s0,200(sp)
    3500:	722d                	lui	tp,0xfffeb
    3502:	43e8                	lw	a0,68(a5)
    3504:	4441be77          	0x4441be77
    3508:	64cd                	lui	s1,0x13
    350a:	977d442b          	0x977d442b
    350e:	4435                	li	s0,13
    3510:	e042                	fsw	fa6,0(sp)
    3512:	428c                	lw	a1,0(a3)
    3514:	4f9e                	lw	t6,196(sp)
    3516:	43a2                	lw	t2,8(sp)
    3518:	b99a                	fsd	ft6,240(sp)
    351a:	443c                	lw	a5,72(s0)
    351c:	438d5d2f          	0x438d5d2f
    3520:	0c4a                	slli	s8,s8,0x12
    3522:	4202                	lw	tp,0(sp)
    3524:	440603e7          	jalr	t2,1088(a2) # fffe9440 <__stop_addr+0xffbe9438>
    3528:	678d                	lui	a5,0x3
    352a:	9e5643f7          	0x9e5643f7
    352e:	6873441b          	0x6873441b
    3532:	41ce                	lw	gp,208(sp)
    3534:	a2e1                	j	36fc <input_data2+0x868>
    3536:	4414                	lw	a3,8(s0)
    3538:	b0a4                	fsd	fs1,96(s1)
    353a:	43c2                	lw	t2,16(sp)
    353c:	af5c                	fsd	fa5,152(a4)
    353e:	445e                	lw	s0,212(sp)
    3540:	1b02                	slli	s6,s6,0x20
    3542:	43f4                	lw	a3,68(a5)
    3544:	4296428f          	0x4296428f
    3548:	9db2                	add	s11,s11,a2
    354a:	4215                	li	tp,5
    354c:	4e98                	lw	a4,24(a3)
    354e:	4391                	li	t2,4
    3550:	8ac1                	andi	a3,a3,16
    3552:	43cc                	lw	a1,4(a5)
    3554:	21ec                	fld	fa1,192(a1)
    3556:	43f8                	lw	a4,68(a5)
    3558:	441ff73b          	0x441ff73b
    355c:	44359137          	lui	sp,0x44359
    3560:	020c                	addi	a1,sp,256
    3562:	41dd                	li	gp,23
    3564:	c625                	beqz	a2,35cc <input_data2+0x738>
    3566:	43e0                	lw	s0,68(a5)
    3568:	b77d                	j	3516 <input_data2+0x682>
    356a:	446d                	li	s0,27
    356c:	02a0                	addi	s0,sp,328
    356e:	4409                	li	s0,2
    3570:	4406e083          	0x4406e083
    3574:	82d1                	srli	a3,a3,0x14
    3576:	04194307          	flq	ft6,65(s2) # 42c54041 <__stop_addr+0x42854039>
    357a:	42a1                	li	t0,8
    357c:	270a                	fld	fa4,128(sp)
    357e:	4421                	li	s0,8
    3580:	ac08                	fsd	fa0,24(s0)
    3582:	9bd74397          	auipc	t2,0x9bd74
    3586:	4451                	li	s0,20
    3588:	4434ebe7          	0x4434ebe7
    358c:	1eb8                	addi	a4,sp,888
    358e:	4391                	li	t2,4
    3590:	b862                	fsd	fs8,48(sp)
    3592:	d1274437          	lui	s0,0xd1274
    3596:	f6c9443f e72b42fb 	0xe72b42fbf6c9443f
    359e:	4322                	lw	t1,8(sp)
    35a0:	2c08                	fld	fa0,24(s0)
    35a2:	440a                	lw	s0,128(sp)
    35a4:	eeb8                	fsw	fa4,88(a3)
    35a6:	97cf43cf          	fnmadd.q	ft7,ft10,ft8,fs2,rmm
    35aa:	4378                	lw	a4,68(a4)
    35ac:	db64                	sw	s1,116(a4)
    35ae:	43f5                	li	t2,29
    35b0:	42d6947b          	0x42d6947b
    35b4:	4ea8                	lw	a0,88(a3)
    35b6:	4476                	lw	s0,92(sp)
    35b8:	43b527cf          	fnmadd.d	fa5,fa0,fs11,fs0,rdn
    35bc:	42e965e3          	bltu	s2,a4,41e6 <input_data1+0x79a>
    35c0:	4242b53f 441a7a0c 	0x441a7a0c4242b53f
    35c8:	64bc                	flw	fa5,72(s1)
    35ca:	4459                	li	s0,22
    35cc:	e8e5                	bnez	s1,36bc <input_data2+0x828>
    35ce:	4456                	lw	s0,84(sp)
    35d0:	bc29                	j	2fea <input_data2+0x156>
    35d2:	4310                	lw	a2,0(a4)
    35d4:	436b9b23          	sh	s6,1078(s7)
    35d8:	44524bc7          	0x44524bc7
    35dc:	438d4be7          	0x438d4be7
    35e0:	38e5                	jal	2ed8 <input_data2+0x44>
    35e2:	4435                	li	s0,13
    35e4:	e906                	fsw	ft1,144(sp)
    35e6:	440e                	lw	s0,192(sp)
    35e8:	8cac                	0x8cac
    35ea:	4d0e43a7          	fsq	fa6,1223(t3)
    35ee:	4464                	lw	s1,76(s0)
    35f0:	4439                	li	s0,14
    35f2:	23a643eb          	0x23a643eb
    35f6:	440c                	lw	a1,8(s0)
    35f8:	b062                	fsd	fs8,32(sp)
    35fa:	f1274383          	lbu	t2,-238(a4)
    35fe:	4342                	lw	t1,16(sp)
    3600:	43ab8333          	0x43ab8333
    3604:	0e14                	addi	a3,sp,784
    3606:	4372                	lw	t1,28(sp)
    3608:	444a5f2b          	0x444a5f2b
    360c:	b23d                	j	2f3a <input_data2+0xa6>
    360e:	40734443          	fmadd.s	fs0,ft6,ft7,fs0,rmm
    3612:	4429                	li	s0,10
    3614:	6a2d                	lui	s4,0xb
    3616:	4476                	lw	s0,92(sp)
    3618:	aeb8                	fsd	fa4,88(a3)
    361a:	43a9                	li	t2,10
    361c:	1429                	addi	s0,s0,-22
    361e:	4436                	lw	s0,76(sp)
    3620:	0439                	addi	s0,s0,14
    3622:	43a8                	lw	a0,64(a5)
    3624:	074c                	addi	a1,sp,900
    3626:	43ac                	lw	a1,64(a5)
    3628:	378d                	jal	358a <input_data2+0x6f6>
    362a:	43cd                	li	t2,19
    362c:	6eb8                	flw	fa4,88(a3)
    362e:	931243d7          	0x931243d7
    3632:	43e8                	lw	a0,68(a5)
    3634:	44194927          	fsq	ft1,1106(s2)
    3638:	3f7d                	jal	35f6 <input_data2+0x762>
    363a:	f9cb4263          	blt	s6,t3,2dbe <verify_data+0xae2>
    363e:	443d                	li	s0,15
    3640:	aa5e                	fsd	fs7,272(sp)
    3642:	ce984413          	xori	s0,a6,-791
    3646:	4330                	lw	a2,64(a4)
    3648:	d042                	sw	a6,32(sp)
    364a:	43f2                	lw	t2,28(sp)
    364c:	d148                	sw	a0,36(a0)
    364e:	439a                	lw	t2,132(sp)
    3650:	48f6                	lw	a7,92(sp)
    3652:	fc0843cb          	0xfc0843cb
    3656:	43a6                	lw	t2,72(sp)
    3658:	6062                	flw	ft0,24(sp)
    365a:	4478                	lw	a4,76(s0)
    365c:	43b1347b          	0x43b1347b
    3660:	94fe                	add	s1,s1,t6
    3662:	443a                	lw	s0,140(sp)
    3664:	0e35                	addi	t3,t3,13
    3666:	e831439b          	0xe831439b
    366a:	436e                	lw	t1,216(sp)
    366c:	442eea8f          	0x442eea8f
    3670:	4a0c                	lw	a1,16(a2)
    3672:	2b024403          	lbu	s0,688(tp) # fffeb2b0 <__stop_addr+0xffbeb2a8>
    3676:	4239                	li	tp,14
    3678:	2646                	fld	fa2,80(sp)
    367a:	43a8                	lw	a0,64(a5)
    367c:	9ba6                	add	s7,s7,s1
    367e:	0d7143f3          	0xd7143f3
    3682:	4380                	lw	s0,0(a5)
    3684:	43fbdf3b          	0x43fbdf3b
    3688:	c2d1                	beqz	a3,370c <input_data2+0x878>
    368a:	4306                	lw	t1,64(sp)
    368c:	42c97be7          	0x42c97be7
    3690:	44089a6f          	jal	s4,8cad0 <input_data1+0x89084>
    3694:	b51f 43c4 bdb2      	0xbdb243c4b51f
    369a:	4434                	lw	a3,72(s0)
    369c:	4df4                	lw	a3,92(a1)
    369e:	4386                	lw	t2,64(sp)
    36a0:	cfdf 43b7 2873      	0x287343b7cfdf
    36a6:	439d                	li	t2,7
    36a8:	fc6a                	fsw	fs10,56(sp)
    36aa:	3646446b          	0x3646446b
    36ae:	4296                	lw	t0,68(sp)
    36b0:	05a2                	slli	a1,a1,0x8
    36b2:	42d5                	li	t0,21
    36b4:	fe56                	fsw	fs5,60(sp)
    36b6:	43ac                	lw	a1,64(a5)
    36b8:	441d553f 4476f25e 	0x4476f25e441d553f
    36c0:	43c64083          	lbu	ra,1084(a2)
    36c4:	2666                	fld	fa2,88(sp)
    36c6:	4416                	lw	s0,68(sp)
    36c8:	bcac                	fsd	fa1,120(s1)
    36ca:	4350                	lw	a2,4(a4)
    36cc:	44632f2b          	0x44632f2b
    36d0:	43d6cc8b          	0x43d6cc8b
    36d4:	7958                	flw	fa4,52(a0)
    36d6:	43c0                	lw	s0,4(a5)
    36d8:	f46a                	fsw	fs10,40(sp)
    36da:	4402                	lw	s0,0(sp)
    36dc:	42b82f1b          	0x42b82f1b
    36e0:	de35                	beqz	a2,365c <input_data2+0x7c8>
    36e2:	4302                	lw	t1,0(sp)
    36e4:	44084b33          	0x44084b33
    36e8:	ea1d                	bnez	a2,371e <input_data2+0x88a>
    36ea:	43b1                	li	t2,12
    36ec:	9000                	0x9000
    36ee:	438a                	lw	t2,128(sp)
    36f0:	b560                	fsd	fs0,232(a0)
    36f2:	23854477          	0x23854477
    36f6:	56c94427          	fsq	fa2,1384(s2)
    36fa:	4428                	lw	a0,72(s0)
    36fc:	bd91                	j	3550 <input_data2+0x6bc>
    36fe:	d1aa43af          	0xd1aa43af
    3702:	6e984477          	0x6e984477
    3706:	4455                	li	s0,21
    3708:	4433fdd3          	0x4433fdd3
    370c:	c6b8                	sw	a4,72(a3)
    370e:	922d4457          	0x922d4457
    3712:	43e0                	lw	s0,68(a5)
    3714:	6189                	lui	gp,0x2
    3716:	439c                	lw	a5,0(a5)
    3718:	e354                	fsw	fa3,4(a4)
    371a:	42a9                	li	t0,10
    371c:	5eb8                	lw	a4,120(a3)
    371e:	42c9                	li	t0,18
    3720:	1062                	c.slli	zero,0x38
    3722:	441a                	lw	s0,132(sp)
    3724:	1fae                	slli	t6,t6,0x2b
    3726:	4405                	li	s0,1
    3728:	4353672b          	0x4353672b
    372c:	f20c                	fsw	fa1,32(a2)
    372e:	440d                	li	s0,3
    3730:	e0a4                	fsw	fs1,64(s1)
    3732:	4430                	lw	a2,72(s0)
    3734:	1052                	c.slli	zero,0x34
    3736:	4451                	li	s0,20
    3738:	56e9                	li	a3,-6
    373a:	4438                	lw	a4,72(s0)
    373c:	64fe                	flw	fs1,220(sp)
    373e:	43b9                	li	t2,14
    3740:	d625                	beqz	a2,36a8 <input_data2+0x814>
    3742:	7e464453          	0x7e464453
    3746:	672b4477          	0x672b4477
    374a:	43e2                	lw	t2,24(sp)
    374c:	43e6b53f 439e0df4 	0x439e0df443e6b53f
    3754:	44642333          	0x44642333
    3758:	8c6a                	mv	s8,s10
    375a:	0a7f4473          	0xa7f4473
    375e:	4336                	lw	t1,76(sp)
    3760:	443a95c3          	0x443a95c3
    3764:	2fdf 4386 24bc      	0x24bc43862fdf
    376a:	445a4447          	0x445a4447
    376e:	4320                	lw	s0,64(a4)
    3770:	93a6                	add	t2,t2,s1
    3772:	4402                	lw	s0,0(sp)
    3774:	f302                	fsw	ft0,164(sp)
    3776:	4440                	lw	s0,12(s0)
    3778:	8c4a                	mv	s8,s2
    377a:	441a                	lw	s0,132(sp)
    377c:	851f 41b5 3958      	0x395841b5851f
    3782:	42e6                	lw	t0,88(sp)
    3784:	89ec                	0x89ec
    3786:	4455                	li	s0,21
    3788:	e604                	fsw	fs1,8(a2)
    378a:	4435                	li	s0,13
    378c:	3ba6                	fld	fs7,104(sp)
    378e:	4421                	li	s0,8
    3790:	0042                	c.slli	zero,0x10
    3792:	4362                	lw	t1,24(sp)
    3794:	4189c28f          	0x4189c28f
    3798:	4325dd2f          	0x4325dd2f
    379c:	dbb6                	sw	a3,244(sp)
    379e:	4442                	lw	s0,16(sp)
    37a0:	13f8                	addi	a4,sp,492
    37a2:	4348                	lw	a0,4(a4)
    37a4:	db02                	sw	zero,180(sp)
    37a6:	8e874463          	blt	a4,s0,288e <verify_data+0x5b2>
    37aa:	e189444f          	fnmadd.s	fs0,fs2,fs8,ft8,rmm
    37ae:	4455                	li	s0,21
    37b0:	9e35                	0x9e35
    37b2:	4439                	li	s0,14
    37b4:	8b02                	jr	s6
    37b6:	4309                	li	t1,2
    37b8:	a666                	fsd	fs9,264(sp)
    37ba:	ec9c433b          	0xec9c433b
    37be:	4475                	li	s0,29
    37c0:	44304117          	auipc	sp,0x44304
    37c4:	47ae                	lw	a5,200(sp)
    37c6:	f0f64433          	0xf0f64433
    37ca:	50b44427          	fsq	fa1,1288(s0) # d1274508 <__stop_addr+0xd0e74500>
    37ce:	440d                	li	s0,3
    37d0:	4e46                	lw	t3,80(sp)
    37d2:	4444                	lw	s1,12(s0)
    37d4:	ce04                	sw	s1,24(a2)
    37d6:	94fe4433          	0x94fe4433
    37da:	445d                	li	s0,23
    37dc:	7c29                	lui	s8,0xfffea
    37de:	437d                	li	t1,31
    37e0:	a4ac                	fsd	fa1,72(s1)
    37e2:	4470                	lw	a2,76(s0)
    37e4:	6375                	lui	t1,0x1d
    37e6:	4444                	lw	s1,12(s0)
    37e8:	4424771b          	0x4424771b
    37ec:	89fc                	0x89fc
    37ee:	431a                	lw	t1,132(sp)
    37f0:	fcac                	fsw	fa1,120(s1)
    37f2:	4392                	lw	t2,4(sp)
    37f4:	eac1                	bnez	a3,3884 <input_data2+0x9f0>
    37f6:	4344                	lw	s1,4(a4)
    37f8:	04dd                	addi	s1,s1,23
    37fa:	cfdf441b          	0xcfdf441b
    37fe:	437d                	li	t1,31
    3800:	43105687          	0x43105687
    3804:	43df85c3          	fmadd.d	fa1,ft11,ft9,fs0,rne
    3808:	432d4937          	lui	s2,0x432d4
    380c:	de25                	beqz	a2,3784 <input_data2+0x8f0>
    380e:	4460                	lw	s0,76(s0)
    3810:	44470dc3          	0x44470dc3
    3814:	40aad917          	auipc	s2,0x40aad
    3818:	ff7d                	bnez	a4,3816 <input_data2+0x982>
    381a:	4290                	lw	a2,0(a3)
    381c:	fccd                	bnez	s1,37d6 <input_data2+0x942>
    381e:	43a2                	lw	t2,8(sp)
    3820:	8062                	c.mv	zero,s8
    3822:	4429                	li	s0,10
    3824:	1b12                	slli	s6,s6,0x24
    3826:	441a                	lw	s0,132(sp)
    3828:	2148                	fld	fa0,128(a0)
    382a:	42a0                	lw	s0,64(a3)
    382c:	88f6                	mv	a7,t4
    382e:	439a                	lw	t2,132(sp)
    3830:	5571                	li	a0,-4
    3832:	4446                	lw	s0,80(sp)
    3834:	46e9                	li	a3,26
    3836:	420c432f          	0x420c432f
    383a:	e148442b          	0xe148442b
    383e:	431f 6419 441f      	0x441f6419431f
    3844:	e45a                	fsw	fs6,8(sp)
    3846:	42f6                	lw	t0,92(sp)
    3848:	d7be                	sw	a5,236(sp)
    384a:	4471                	li	s0,28
    384c:	b550                	fsd	fa2,168(a0)
    384e:	4451                	li	s0,20
    3850:	86e9                	srai	a3,a3,0x1a
    3852:	4371                	li	t1,28
    3854:	4432e9cb          	0x4432e9cb
    3858:	a168                	fsd	fa0,192(a0)
    385a:	4460                	lw	s0,76(s0)
    385c:	a2b0                	fsd	fa2,64(a3)
    385e:	4409                	li	s0,2
    3860:	4021                	c.li	zero,8
    3862:	442d                	li	s0,11
    3864:	43665127          	0x43665127
    3868:	524e                	lw	tp,240(sp)
    386a:	43ba                	lw	t2,140(sp)
    386c:	c625                	beqz	a2,38d4 <input_data2+0xa40>
    386e:	42a4                	lw	s1,64(a3)
    3870:	4e66                	lw	t3,88(sp)
    3872:	4416                	lw	s0,68(sp)
    3874:	441cd083          	lhu	ra,1089(s9)
    3878:	5312                	lw	t1,36(sp)
    387a:	4434                	lw	a3,72(s0)
    387c:	47ae                	lw	a5,200(sp)
    387e:	43a2                	lw	t2,8(sp)
    3880:	3f7d                	jal	383e <input_data2+0x9aa>
    3882:	c6d943c7          	fmsub.q	ft7,fs2,fa3,fs8,rmm
    3886:	4bb64467          	0x4bb64467
    388a:	440a                	lw	s0,128(sp)
    388c:	3b64                	fld	fs1,240(a4)
    388e:	42ce                	lw	t0,208(sp)
    3890:	4291d917          	auipc	s2,0x4291d
    3894:	ba5e                	fsd	fs7,304(sp)
    3896:	d99a418f          	0xd99a418f
    389a:	432e                	lw	t1,200(sp)
    389c:	bb02                	fsd	ft0,432(sp)
    389e:	4471                	li	s0,28
    38a0:	9ab0                	0x9ab0
    38a2:	4474                	lw	a3,76(s0)
    38a4:	174c                	addi	a1,sp,932
    38a6:	431f 81cb 43a2      	0x43a281cb431f
    38ac:	48b4                	lw	a3,80(s1)
    38ae:	4331                	li	t1,12
    38b0:	b158                	fsd	fa4,160(a0)
    38b2:	56d9440b          	0x56d9440b
    38b6:	4414                	lw	a3,8(s0)
    38b8:	3efa                	fld	ft9,440(sp)
    38ba:	4339                	li	t1,14
    38bc:	73f8                	flw	fa4,100(a5)
    38be:	43ba                	lw	t2,140(sp)
    38c0:	f6a8                	fsw	fa0,104(a3)
    38c2:	43fc                	lw	a5,68(a5)
    38c4:	43c4edd3          	0x43c4edd3
    38c8:	ffdf 4456 c5f4      	0xc5f44456ffdf
    38ce:	4415                	li	s0,5
    38d0:	d3a6                	sw	s1,228(sp)
    38d2:	4422                	lw	s0,8(sp)
    38d4:	7a1d                	lui	s4,0xfffe7
    38d6:	443a                	lw	s0,140(sp)
    38d8:	6635                	lui	a2,0xd
    38da:	8646440f          	0x8646440f
    38de:	43bc                	lw	a5,64(a5)
    38e0:	43a0a873          	csrrs	a6,0x43a,ra
    38e4:	44585de3          	bge	a6,t0,453e <input_data1+0xaf2>
    38e8:	9852                	add	a6,a6,s4
    38ea:	43ae                	lw	t2,200(sp)
    38ec:	4413dbe7          	0x4413dbe7
    38f0:	1e35                	addi	t3,t3,-19
    38f2:	43c8                	lw	a0,4(a5)
    38f4:	440a5127          	0x440a5127
    38f8:	9666                	add	a2,a2,s9
    38fa:	445e                	lw	s0,212(sp)
    38fc:	22f2                	fld	ft5,280(sp)
    38fe:	43dc                	lw	a5,4(a5)
    3900:	2148                	fld	fa0,128(a0)
    3902:	f4194453          	0xf4194453
    3906:	43ac                	lw	a1,64(a5)
    3908:	423d                	li	tp,15
    390a:	445d                	li	s0,23
    390c:	44146bd7          	0x44146bd7
    3910:	4158                	lw	a4,4(a0)
    3912:	4469                	li	s0,26
    3914:	48b4                	lw	a3,80(s1)
    3916:	4391                	li	t2,4
    3918:	3591                	jal	375c <input_data2+0x8c8>
    391a:	4475                	li	s0,29
    391c:	44630937          	lui	s2,0x44630
    3920:	4e35                	li	t3,13
    3922:	43e0                	lw	s0,68(a5)
    3924:	44083127          	fsd	ft0,1090(a6) # c442 <input_data1+0x89f6>
    3928:	5d0e                	lw	s10,224(sp)
    392a:	efbe4477          	0xefbe4477
    392e:	43bc                	lw	a5,64(a5)
    3930:	424a21cb          	fnmsub.d	ft3,fs4,ft4,fs0,rdn
    3934:	1c08                	addi	a0,sp,560
    3936:	43e4                	lw	s1,68(a5)
    3938:	2e56                	fld	ft8,336(sp)
    393a:	43a6                	lw	t2,72(sp)
    393c:	4312                	lw	t1,4(sp)
    393e:	11ec4443          	fmadd.s	fs0,fs8,ft10,ft2,rmm
    3942:	4461                	li	s0,24
    3944:	42dc5d2f          	0x42dc5d2f
    3948:	3b64                	fld	fs1,240(a4)
    394a:	f3d74433          	0xf3d74433
    394e:	f72b43f7          	0xf72b43f7
    3952:	443a                	lw	s0,140(sp)
    3954:	1344                	addi	s1,sp,420
    3956:	4460                	lw	s0,76(s0)
    3958:	1e14                	addi	a3,sp,816
    395a:	43de                	lw	t2,212(sp)
    395c:	a906                	fsd	ft1,144(sp)
    395e:	4449                	li	s0,18
    3960:	40d3f7cf          	fnmadd.s	fa5,ft7,fa3,fs0
    3964:	3ac1                	jal	3334 <input_data2+0x4a0>
    3966:	46a8442f          	0x46a8442f
    396a:	43c5                	li	t2,17
    396c:	440907cf          	0x440907cf
    3970:	438eddd3          	0x438eddd3
    3974:	2b85                	jal	3ee4 <input_data1+0x498>
    3976:	43aa                	lw	t2,136(sp)
    3978:	dc19                	beqz	s0,3896 <input_data2+0xa02>
    397a:	5e35442f          	0x5e35442f
    397e:	5a1d41eb          	0x5a1d41eb
    3982:	43e1                	li	t2,24
    3984:	444f7883          	0x444f7883
    3988:	22f2                	fld	ft5,280(sp)
    398a:	a1684423          	0xa1684423
    398e:	441d                	li	s0,7
    3990:	f4ac                	fsw	fa1,104(s1)
    3992:	4440                	lw	s0,12(s0)
    3994:	85a2                	mv	a1,s0
    3996:	4408                	lw	a0,8(s0)
    3998:	9604                	0x9604
    399a:	43f2                	lw	t2,28(sp)
    399c:	6302                	flw	ft6,0(sp)
    399e:	4419                	li	s0,6
    39a0:	a408                	fsd	fa0,8(s0)
    39a2:	4405                	li	s0,1
    39a4:	1158                	addi	a4,sp,164
    39a6:	c0734473          	0xc0734473
    39aa:	9e35440b          	0x9e35440b
    39ae:	42e8                	lw	a0,68(a3)
    39b0:	c1aa                	sw	a0,192(sp)
    39b2:	43f0                	lw	a2,68(a5)
    39b4:	e7f0                	fsw	fa2,76(a5)
    39b6:	439c                	lw	a5,0(a5)
    39b8:	43fd9f1b          	0x43fd9f1b
    39bc:	0b64                	addi	s1,sp,412
    39be:	4462                	lw	s0,24(sp)
    39c0:	420c                	lw	a1,0(a2)
    39c2:	43d9                	li	t2,22
    39c4:	caf2                	sw	t3,84(sp)
    39c6:	4472                	lw	s0,28(sp)
    39c8:	d0e5                	beqz	s1,39a8 <input_data2+0xb14>
    39ca:	c73b43ab          	0xc73b43ab
    39ce:	a8f64417          	auipc	s0,0xa8f64
    39d2:	4229                	li	tp,10
    39d4:	a6a8                	fsd	fa0,72(a3)
    39d6:	4446                	lw	s0,80(sp)
    39d8:	10e5                	addi	ra,ra,-7
    39da:	4444                	lw	s1,12(s0)
    39dc:	9ae1                	andi	a3,a3,-8
    39de:	4329                	li	t1,10
    39e0:	445869db          	0x445869db
    39e4:	2698                	fld	fa4,8(a3)
    39e6:	4460                	lw	s0,76(s0)
    39e8:	f168                	fsw	fa0,100(a0)
    39ea:	43d2                	lw	t2,20(sp)
    39ec:	43fda26f          	jal	tp,de62a <input_data1+0xdabde>
    39f0:	9c6a                	add	s8,s8,s10
    39f2:	13c743cf          	fnmadd.d	ft7,fa4,ft8,ft2,rmm
    39f6:	4465                	li	s0,25
    39f8:	f27f                	0xf27f
    39fa:	4459                	li	s0,22
    39fc:	a106                	fsd	ft1,128(sp)
    39fe:	e51f43d7          	0xe51f43d7
    3a02:	4406                	lw	s0,64(sp)
    3a04:	dd91                	beqz	a1,3920 <input_data2+0xa8c>
    3a06:	43a9                	li	t2,10
    3a08:	7810                	flw	fa2,48(s0)
    3a0a:	4322                	lw	t1,8(sp)
    3a0c:	ec4a                	fsw	fs2,24(sp)
    3a0e:	2f1b4313          	xori	t1,s6,753
    3a12:	42d2                	lw	t0,20(sp)
    3a14:	4360d9db          	0x4360d9db
    3a18:	f604                	fsw	fs1,40(a2)
    3a1a:	43f0                	lw	a2,68(a5)
    3a1c:	b958                	fsd	fa4,176(a0)
    3a1e:	42e0                	lw	s0,68(a3)
    3a20:	dc4a                	sw	s2,56(sp)
    3a22:	4414                	lw	a3,8(s0)
    3a24:	441115c3          	0x441115c3
    3a28:	38d5                	jal	331c <input_data2+0x488>
    3a2a:	42e6                	lw	t0,88(sp)
    3a2c:	9c6a                	add	s8,s8,s10
    3a2e:	4450                	lw	a2,12(s0)
    3a30:	0106                	slli	sp,sp,0x1
    3a32:	008343af          	0x8343af
    3a36:	4306                	lw	t1,64(sp)
    3a38:	24cd                	jal	3d1a <input_data1+0x2ce>
    3a3a:	4471                	li	s0,28
    3a3c:	446d228f          	0x446d228f
    3a40:	b106                	fsd	ft1,160(sp)
    3a42:	9f3b438f          	0x9f3b438f
    3a46:	4349                	li	t1,18
    3a48:	8ccd                	or	s1,s1,a1
    3a4a:	4368                	lw	a0,68(a4)

00003a4c <input_data1>:
    3a4c:	42265b23          	0x42265b23
    3a50:	04dd                	addi	s1,s1,23
    3a52:	7ed943e3          	blt	s2,a3,4a38 <input_data1+0xfec>
    3a56:	4450                	lw	a2,12(s0)
    3a58:	43a7d333          	0x43a7d333
    3a5c:	440d3b23          	0x440d3b23
    3a60:	eb85                	bnez	a5,3a90 <input_data1+0x44>
    3a62:	3fe1                	jal	3a3a <input_data2+0xba6>
    3a64:	66e9                	lui	a3,0x1a
    3a66:	5c6a433b          	0x5c6a433b
    3a6a:	6fcf4477          	0x6fcf4477
    3a6e:	f419443b          	0xf419443b
    3a72:	43b6                	lw	t2,76(sp)
    3a74:	43af6dd3          	0x43af6dd3
    3a78:	3168                	fld	fa0,224(a0)
    3a7a:	6c08440f          	0x6c08440f
    3a7e:	4304                	lw	s1,0(a4)
    3a80:	3439                	jal	348e <input_data2+0x5fa>
    3a82:	4280                	lw	s0,0(a3)
    3a84:	446d79cb          	0x446d79cb
    3a88:	6831                	lui	a6,0xc
    3a8a:	4319                	li	t1,6
    3a8c:	0429                	addi	s0,s0,10
    3a8e:	4412                	lw	s0,4(sp)
    3a90:	43585f3b          	0x43585f3b
    3a94:	44496c7b          	0x44496c7b
    3a98:	430c553f 441b5bf8 	0x441b5bf8430c553f
    3aa0:	ae98                	fsd	fa4,24(a3)
    3aa2:	4352                	lw	t1,20(sp)
    3aa4:	45a2                	lw	a1,8(sp)
    3aa6:	40d2                	lw	ra,20(sp)
    3aa8:	2e66                	fld	ft8,88(sp)
    3aaa:	eed9440f          	0xeed9440f
    3aae:	4468                	lw	a0,76(s0)
    3ab0:	fe35                	bnez	a2,3a2c <input_data2+0xb98>
    3ab2:	43a9                	li	t2,10
    3ab4:	8c29                	xor	s0,s0,a0
    3ab6:	445e                	lw	s0,212(sp)
    3ab8:	441451db          	0x441451db
    3abc:	43c44083          	lbu	ra,1084(s0) # a8f67e0a <__stop_addr+0xa8b67e02>
    3ac0:	44609b23          	sh	t1,1110(ra) # ffff5456 <__stop_addr+0xffbf544e>
    3ac4:	442d9323          	sh	sp,1094(s11)
    3ac8:	5fbe                	lw	t6,236(sp)
    3aca:	4364                	lw	s1,68(a4)
    3acc:	44705fcf          	0x44705fcf
    3ad0:	ac08                	fsd	fa0,24(s0)
    3ad2:	4140                	lw	s0,4(a0)
    3ad4:	42ddb127          	fsd	fa3,1058(s11)
    3ad8:	cd91                	beqz	a1,3af4 <input_data1+0xa8>
    3ada:	445c                	lw	a5,12(s0)
    3adc:	42e9472b          	0x42e9472b
    3ae0:	8b02                	jr	s6
    3ae2:	5189443b          	0x5189443b
    3ae6:	4394                	lw	a3,0(a5)
    3ae8:	82e1                	srli	a3,a3,0x18
    3aea:	4421                	li	s0,8
    3aec:	1396                	slli	t2,t2,0x25
    3aee:	43d5                	li	t2,21
    3af0:	3852                	fld	fa6,304(sp)
    3af2:	43fa                	lw	t2,156(sp)
    3af4:	21aa                	fld	ft3,136(sp)
    3af6:	439d                	li	t2,7
    3af8:	43da2c8b          	0x43da2c8b
    3afc:	d810                	sw	a2,48(s0)
    3afe:	4424                	lw	s1,72(s0)
    3b00:	75f4                	flw	fa3,108(a1)
    3b02:	822d442f          	0x822d442f
    3b06:	4441                	li	s0,16
    3b08:	1cfe                	slli	s9,s9,0x3f
    3b0a:	bf5c444b          	fnmsub.q	fs0,fs8,fs5,fs7,rmm
    3b0e:	439f 5604 4475      	0x44755604439f
    3b14:	bcfe                	fsd	ft11,120(sp)
    3b16:	4429                	li	s0,10
    3b18:	d2f2                	sw	t3,100(sp)
    3b1a:	4316                	lw	t1,68(sp)
    3b1c:	c9aa                	sw	a0,208(sp)
    3b1e:	445a                	lw	s0,148(sp)
    3b20:	03f8                	addi	a4,sp,460
    3b22:	442e                	lw	s0,200(sp)
    3b24:	7e98                	flw	fa4,56(a3)
    3b26:	43bc                	lw	a5,64(a5)
    3b28:	1148                	addi	a0,sp,164
    3b2a:	440d                	li	s0,3
    3b2c:	422d                	li	tp,11
    3b2e:	43ed                	li	t2,27
    3b30:	43881be7          	0x43881be7
    3b34:	98e5                	andi	s1,s1,-7
    3b36:	446a                	lw	s0,152(sp)
    3b38:	43816687          	0x43816687
    3b3c:	4406e937          	lui	s2,0x4406e
    3b40:	4421c873          	0x4421c873
    3b44:	440e4d2f          	0x440e4d2f
    3b48:	43fe872b          	0x43fe872b
    3b4c:	1852                	slli	a6,a6,0x34
    3b4e:	f9db434b          	fnmsub.s	ft6,fs6,ft9,ft11,rmm
    3b52:	42b0                	lw	a2,64(a3)
    3b54:	438c4b23          	0x438c4b23
    3b58:	fd71                	bnez	a0,3b34 <input_data1+0xe8>
    3b5a:	cad1442f          	0xcad1442f
    3b5e:	443d                	li	s0,15
    3b60:	7cbc                	flw	fa5,120(s1)
    3b62:	9f7d4427          	fsq	fs7,-1560(s10)
    3b66:	9f5c4417          	auipc	s0,0x9f5c4
    3b6a:	ddf443bb          	0xddf443bb
    3b6e:	43ff                	0x43ff
    3b70:	e906                	fsw	ft1,144(sp)
    3b72:	4409                	li	s0,2
    3b74:	44247687          	0x44247687
    3b78:	446a3c8b          	0x446a3c8b
    3b7c:	2354                	fld	fa3,128(a4)
    3b7e:	28e54343          	fmadd.s	ft6,fa0,fa4,ft5,rmm
    3b82:	4414                	lw	a3,8(s0)
    3b84:	851f 42a3 49ec      	0x49ec42a3851f
    3b8a:	440e                	lw	s0,192(sp)
    3b8c:	90e5                	srli	s1,s1,0x39
    3b8e:	4385                	li	t2,1
    3b90:	446e0937          	lui	s2,0x446e0
    3b94:	1cac                	addi	a1,sp,632
    3b96:	4365                	li	t1,25
    3b98:	3d60                	fld	fs0,248(a0)
    3b9a:	4448                	lw	a0,12(s0)
    3b9c:	e625                	bnez	a2,3c04 <input_data1+0x1b8>
    3b9e:	43a8                	lw	a0,64(a5)
    3ba0:	16c9                	addi	a3,a3,-14
    3ba2:	4412                	lw	s0,4(sp)
    3ba4:	1385                	addi	t2,t2,-31
    3ba6:	446c                	lw	a1,76(s0)
    3ba8:	c666                	sw	s9,12(sp)
    3baa:	4420                	lw	s0,72(s0)
    3bac:	4461953f 43b8074c 	0x43b8074c4461953f
    3bb4:	c312                	sw	tp,132(sp)
    3bb6:	4371                	li	t1,28
    3bb8:	80c5                	srli	s1,s1,0x11
    3bba:	43f4                	lw	a3,68(a5)
    3bbc:	423d                	li	tp,15
    3bbe:	4464                	lw	s1,76(s0)
    3bc0:	43a46d2f          	0x43a46d2f
    3bc4:	9a0c                	0x9a0c
    3bc6:	444e                	lw	s0,208(sp)
    3bc8:	8439                	srai	s0,s0,0xe
    3bca:	439c                	lw	a5,0(a5)
    3bcc:	4635                	li	a2,13
    3bce:	4469                	li	s0,26
    3bd0:	2fdf 4414 7cac      	0x7cac44142fdf
    3bd6:	4476                	lw	s0,92(sp)
    3bd8:	43c23be7          	0x43c23be7
    3bdc:	f0a4                	fsw	fs1,96(s1)
    3bde:	fdd34343          	0xfdd34343
    3be2:	0ec94407          	flq	fs0,236(s2) # 446e00ec <__stop_addr+0x442e00e4>
    3be6:	4470                	lw	a2,76(s0)
    3be8:	6e25                	lui	t3,0x9
    3bea:	4422                	lw	s0,8(sp)
    3bec:	440db677          	0x440db677
    3bf0:	e22d                	bnez	a2,3c52 <input_data1+0x206>
    3bf2:	4474                	lw	a3,76(s0)
    3bf4:	6f9e                	flw	ft11,196(sp)
    3bf6:	575c43af          	0x575c43af
    3bfa:	4479                	li	s0,30
    3bfc:	4550                	lw	a2,12(a0)
    3bfe:	4422                	lw	s0,8(sp)
    3c00:	444b9323          	sh	tp,1094(s7)
    3c04:	46e9                	li	a3,26
    3c06:	4424                	lw	s1,72(s0)
    3c08:	6d91                	lui	s11,0x4
    3c0a:	429e                	lw	t0,196(sp)
    3c0c:	11ec                	addi	a1,sp,236
    3c0e:	4335                	li	t1,13
    3c10:	8a3d                	andi	a2,a2,15
    3c12:	4350                	lw	a2,4(a4)
    3c14:	deb8                	sw	a4,120(a3)
    3c16:	42df 91cb 4479      	0x447991cb42df
    3c1c:	c21d                	beqz	a2,3c42 <input_data1+0x1f6>
    3c1e:	4456                	lw	s0,84(sp)
    3c20:	7800                	flw	fs0,48(s0)
    3c22:	441d                	li	s0,7
    3c24:	c106                	sw	ra,128(sp)
    3c26:	4282                	lw	t0,0(sp)
    3c28:	4453d873          	csrrwi	a6,0x445,7
    3c2c:	3439                	jal	363a <input_data2+0x7a6>
    3c2e:	4390                	lw	a2,0(a5)
    3c30:	44301be7          	0x44301be7
    3c34:	a979                	j	40d2 <input_data1+0x686>
    3c36:	43ae                	lw	t2,200(sp)
    3c38:	44bc                	lw	a5,72(s1)
    3c3a:	4479                	li	s0,30
    3c3c:	9e35                	0x9e35
    3c3e:	430d                	li	t1,3
    3c40:	8fdf 437d 5179      	0x5179437d8fdf
    3c46:	4462                	lw	s0,24(sp)
    3c48:	e031                	bnez	s0,3c8c <input_data1+0x240>
    3c4a:	4432                	lw	s0,12(sp)
    3c4c:	445d85d3          	0x445d85d3
    3c50:	43d70be7          	jalr	s7,1085(a4)
    3c54:	43841083          	lh	ra,1080(s0) # 9f5c7f9e <__stop_addr+0x9f1c7f96>
    3c58:	43cfc7cf          	fnmadd.d	fa5,ft11,ft8,fs0,rmm
    3c5c:	2bf8                	fld	fa4,208(a5)
    3c5e:	4410                	lw	a2,8(s0)
    3c60:	a2b0                	fsd	fa2,64(a3)
    3c62:	4406                	lw	s0,64(sp)
    3c64:	e76d                	bnez	a4,3d4e <input_data1+0x302>
    3c66:	4474                	lw	a3,76(s0)
    3c68:	442f15c3          	0x442f15c3
    3c6c:	49ec                	lw	a1,84(a1)
    3c6e:	443e                	lw	s0,204(sp)
    3c70:	ed91                	bnez	a1,3c8c <input_data1+0x240>
    3c72:	4090                	lw	a2,0(s1)
    3c74:	0189                	addi	gp,gp,2
    3c76:	4371                	li	t1,28
    3c78:	6cac                	flw	fa1,88(s1)
    3c7a:	624e43f7          	0x624e43f7
    3c7e:	0ccd43ef          	jal	t2,d7d4a <input_data1+0xd42fe>
    3c82:	42c8                	lw	a0,4(a3)
    3c84:	c7ae                	sw	a1,204(sp)
    3c86:	43f9                	li	t2,30
    3c88:	44583127          	fsd	ft5,1090(a6) # c442 <input_data1+0x89f6>
    3c8c:	8a7f                	0x8a7f
    3c8e:	43c9                	li	t2,18
    3c90:	750e                	flw	fa0,224(sp)
    3c92:	442d                	li	s0,11
    3c94:	435e1687          	0x435e1687
    3c98:	4e56                	lw	t3,84(sp)
    3c9a:	43d0                	lw	a2,4(a5)
    3c9c:	0042                	c.slli	zero,0x10
    3c9e:	43de                	lw	t2,212(sp)
    3ca0:	6fbe                	flw	ft11,204(sp)
    3ca2:	4394                	lw	a3,0(a5)
    3ca4:	4821                	li	a6,8
    3ca6:	4434                	lw	a3,72(s0)
    3ca8:	f51f 438e 074c      	0x74c438ef51f
    3cae:	4429                	li	s0,10
    3cb0:	3e14                	fld	fa3,56(a2)
    3cb2:	fd2f441b          	0xfd2f441b
    3cb6:	439e                	lw	t2,196(sp)
    3cb8:	0625                	addi	a2,a2,9
    3cba:	429d                	li	t0,7
    3cbc:	051f 4360 cc08      	0xcc084360051f
    3cc2:	7a3d43af          	0x7a3d43af
    3cc6:	446a                	lw	s0,152(sp)
    3cc8:	37df 4407 13f8      	0x13f8440737df
    3cce:	4390                	lw	a2,0(a5)
    3cd0:	b0f6                	fsd	ft9,96(sp)
    3cd2:	4421                	li	s0,8
    3cd4:	fae1                	bnez	a3,3ca4 <input_data1+0x258>
    3cd6:	42ee                	lw	t0,216(sp)
    3cd8:	4329ec8b          	0x4329ec8b
    3cdc:	c79e                	sw	t2,204(sp)
    3cde:	4419                	li	s0,6
    3ce0:	e78d                	bnez	a5,3d0a <input_data1+0x2be>
    3ce2:	81684403          	lbu	s0,-2026(a6)
    3ce6:	a8524417          	auipc	s0,0xa8524
    3cea:	4390                	lw	a2,0(a5)
    3cec:	d042                	sw	a6,32(sp)
    3cee:	43c2                	lw	t2,16(sp)
    3cf0:	1375                	addi	t1,t1,-3
    3cf2:	96664447          	fmsub.q	fs0,fa2,ft6,fs2,rmm
    3cf6:	665643af          	0x665643af
    3cfa:	4448                	lw	a0,12(s0)
    3cfc:	89ba                	mv	s3,a4
    3cfe:	1fcf43e3          	blt	t5,t3,46e4 <input_data1+0xc98>
    3d02:	4434                	lw	a3,72(s0)
    3d04:	18f6                	slli	a7,a7,0x3d
    3d06:	bb12438b          	0xbb12438b
    3d0a:	443d                	li	s0,15
    3d0c:	f7f0                	fsw	fa2,108(a5)
    3d0e:	5efa43b7          	lui	t2,0x5efa4
    3d12:	443a                	lw	s0,140(sp)
    3d14:	52b0                	lw	a2,96(a3)
    3d16:	645a43b3          	0x645a43b3
    3d1a:	42b8                	lw	a4,64(a3)
    3d1c:	12c1                	addi	t0,t0,-16
    3d1e:	4412                	lw	s0,4(sp)
    3d20:	4148                	lw	a0,4(a0)
    3d22:	3a5e4477          	0x3a5e4477
    3d26:	a168427b          	0xa168427b
    3d2a:	58424387          	flq	ft7,1412(tp) # 584 <_Z4ftoifRiS_+0x20>
    3d2e:	4476                	lw	s0,92(sp)
    3d30:	5656                	lw	a2,116(sp)
    3d32:	4455                	li	s0,21
    3d34:	a76d                	j	44de <input_data1+0xa92>
    3d36:	43c9                	li	t2,18
    3d38:	2625                	jal	4060 <input_data1+0x614>
    3d3a:	4445                	li	s0,17
    3d3c:	53f8                	lw	a4,100(a5)
    3d3e:	43ad                	li	t2,11
    3d40:	4404fd3f 440168d5 	0x440168d54404fd3f
    3d48:	b2f2                	fsd	ft8,352(sp)
    3d4a:	435e                	lw	t1,212(sp)
    3d4c:	cf6d                	beqz	a4,3e46 <input_data1+0x3fa>
    3d4e:	8aa0440b          	0x8aa0440b
    3d52:	43e6                	lw	t2,88(sp)
    3d54:	0ec9                	addi	t4,t4,18
    3d56:	98d54463          	blt	a0,a3,2ede <input_data2+0x4a>
    3d5a:	4371                	li	t1,28
    3d5c:	4441e1db          	0x4441e1db
    3d60:	324e                	fld	ft4,240(sp)
    3d62:	38d543b3          	0x38d543b3
    3d66:	437f                	0x437f
    3d68:	15a2                	slli	a1,a1,0x28
    3d6a:	43a6                	lw	t2,72(sp)
    3d6c:	4442b093          	sltiu	ra,t0,1092
    3d70:	442b252f          	amoor.w.aq	a0,sp,(s6)
    3d74:	acee                	fsd	fs11,88(sp)
    3d76:	4415                	li	s0,5
    3d78:	0148                	addi	a0,sp,132
    3d7a:	4439                	li	s0,14
    3d7c:	aac1                	j	3f4c <input_data1+0x500>
    3d7e:	24bc430f          	0x24bc430f
    3d82:	43df 78d5 4207      	0x420778d543df
    3d88:	fc29                	bnez	s0,3ce2 <input_data1+0x296>
    3d8a:	6e98439b          	0x6e98439b
    3d8e:	42fa                	lw	t0,156(sp)
    3d90:	e581                	bnez	a1,3d98 <input_data1+0x34c>
    3d92:	4439                	li	s0,14
    3d94:	54ac                	lw	a1,104(s1)
    3d96:	59cb446b          	0x59cb446b
    3d9a:	652f440b          	0x652f440b
    3d9e:	4469                	li	s0,26
    3da0:	8979                	andi	a0,a0,30
    3da2:	eb4443ef          	jal	t2,fff48456 <__stop_addr+0xffb4844e>
    3da6:	5b124447          	fmsub.d	fs0,ft4,fa7,fa1,rmm
    3daa:	4010440b          	0x4010440b
    3dae:	440a                	lw	s0,128(sp)
    3db0:	58b4                	lw	a3,112(s1)
    3db2:	bd714467          	0xbd714467
    3db6:	139643d7          	0x139643d7
    3dba:	3a8f4447          	fmsub.d	fs0,ft10,fs0,ft7,rmm
    3dbe:	4422                	lw	s0,8(sp)
    3dc0:	43b2de77          	0x43b2de77
    3dc4:	446e1093          	0x446e1093
    3dc8:	c354                	sw	a3,4(a4)
    3dca:	445e                	lw	s0,212(sp)
    3dcc:	e76d                	bnez	a4,3eb6 <input_data1+0x46a>
    3dce:	84bc438f          	0x84bc438f
    3dd2:	4426                	lw	s0,72(sp)
    3dd4:	624e                	flw	ft4,208(sp)
    3dd6:	419c                	lw	a5,0(a1)
    3dd8:	b49c                	fsd	fa5,40(s1)
    3dda:	4400                	lw	s0,8(s0)
    3ddc:	676d                	lui	a4,0x1b
    3dde:	7ab04247          	fmsub.d	ft4,ft0,fa1,fa5,rmm
    3de2:	ac8b440b          	0xac8b440b
    3de6:	42ac                	lw	a1,64(a3)
    3de8:	80f6                	mv	ra,t4
    3dea:	4459                	li	s0,22
    3dec:	bcee                	fsd	fs11,120(sp)
    3dee:	42be                	lw	t0,204(sp)
    3df0:	544a                	lw	s0,176(sp)
    3df2:	4455                	li	s0,21
    3df4:	a99a                	fsd	ft6,208(sp)
    3df6:	43dc                	lw	a5,4(a5)
    3df8:	1c29                	addi	s8,s8,-22
    3dfa:	43dc                	lw	a5,4(a5)
    3dfc:	d0d5                	beqz	s1,3da0 <input_data1+0x354>
    3dfe:	4412                	lw	s0,4(sp)
    3e00:	8419                	srai	s0,s0,0x6
    3e02:	4274                	lw	a3,68(a2)
    3e04:	bc39                	j	3822 <input_data2+0x98e>
    3e06:	4419                	li	s0,6
    3e08:	b23d                	j	3736 <input_data2+0x8a2>
    3e0a:	4429                	li	s0,10
    3e0c:	43bf1333          	0x43bf1333
    3e10:	4375                	li	t1,29
    3e12:	43c6                	lw	t2,80(sp)
    3e14:	77ae                	flw	fa5,232(sp)
    3e16:	438c                	lw	a1,0(a5)
    3e18:	4119a5e3          	0x4119a5e3
    3e1c:	1e98                	addi	a4,sp,880
    3e1e:	444a                	lw	s0,144(sp)
    3e20:	3958                	fld	fa4,176(a0)
    3e22:	418a                	lw	gp,128(sp)
    3e24:	e635                	bnez	a2,3e90 <input_data1+0x444>
    3e26:	4472                	lw	s0,28(sp)
    3e28:	432a9687          	0x432a9687
    3e2c:	d604                	sw	s1,40(a2)
    3e2e:	444c                	lw	a1,12(s0)
    3e30:	9ac1                	andi	a3,a3,-16
    3e32:	4391                	li	t2,4
    3e34:	5f7d                	li	t5,-1
    3e36:	43ac                	lw	a1,64(a5)
    3e38:	43be2127          	fsw	fs11,1058(t3) # 9422 <input_data1+0x59d6>
    3e3c:	7560                	flw	fs0,108(a0)
    3e3e:	43e1                	li	t2,24
    3e40:	0656                	slli	a2,a2,0x15
    3e42:	4406                	lw	s0,64(sp)
    3e44:	275c                	fld	fa5,136(a4)
    3e46:	4400                	lw	s0,8(s0)
    3e48:	d375                	beqz	a4,3e2c <input_data1+0x3e0>
    3e4a:	4339                	li	t1,14
    3e4c:	4ee9                	li	t4,26
    3e4e:	4471                	li	s0,28
    3e50:	4810                	lw	a2,16(s0)
    3e52:	4465                	li	s0,25
    3e54:	e375                	bnez	a4,3f38 <input_data1+0x4ec>
    3e56:	43ad                	li	t2,11
    3e58:	f20c                	fsw	fa1,32(a2)
    3e5a:	4406                	lw	s0,64(sp)
    3e5c:	444a2b23          	sw	tp,1110(s4) # fffe7456 <__stop_addr+0xffbe744e>
    3e60:	ca4e                	sw	s3,20(sp)
    3e62:	4475                	li	s0,29
    3e64:	9d0e                	add	s10,s10,gp
    3e66:	445c                	lw	a5,12(s0)
    3e68:	e8c5                	bnez	s1,3f18 <input_data1+0x4cc>
    3e6a:	445d                	li	s0,23
    3e6c:	6375                	lui	t1,0x1d
    3e6e:	4406                	lw	s0,64(sp)
    3e70:	22d1                	jal	4034 <input_data1+0x5e8>
    3e72:	a429425b          	0xa429425b
    3e76:	446c                	lw	a1,76(s0)
    3e78:	1042                	c.slli	zero,0x30
    3e7a:	4419                	li	s0,6
    3e7c:	5010                	lw	a2,32(s0)
    3e7e:	e0f6442f          	0xe0f6442f
    3e82:	446d                	li	s0,27
    3e84:	06e9                	addi	a3,a3,26
    3e86:	43b2                	lw	t2,12(sp)
    3e88:	f419                	bnez	s0,3d96 <input_data1+0x34a>
    3e8a:	fdb243ef          	jal	t2,fff28e64 <__stop_addr+0xffb28e5c>
    3e8e:	440d                	li	s0,3
    3e90:	7fbe                	flw	ft11,236(sp)
    3e92:	e6144317          	auipc	t1,0xe6144
    3e96:	445e                	lw	s0,212(sp)
    3e98:	51ec                	lw	a1,100(a1)
    3e9a:	40f4                	lw	a3,68(s1)
    3e9c:	41b0a3d7          	0x41b0a3d7
    3ea0:	7df4                	flw	fa3,124(a1)
    3ea2:	4420                	lw	s0,72(s0)
    3ea4:	0375                	addi	t1,t1,29
    3ea6:	440e                	lw	s0,192(sp)
    3ea8:	b6c9                	j	3a6a <input_data1+0x1e>
    3eaa:	7b2343a7          	fsq	fs2,1959(t1) # e6148639 <__stop_addr+0xe5d48631>
    3eae:	4426                	lw	s0,72(sp)
    3eb0:	875c                	0x875c
    3eb2:	4436                	lw	s0,76(sp)
    3eb4:	43d3872b          	0x43d3872b
    3eb8:	42be472b          	0x42be472b
    3ebc:	2ba6                	fld	fs7,72(sp)
    3ebe:	43d9                	li	t2,22
    3ec0:	16d9                	addi	a3,a3,-10
    3ec2:	4436                	lw	s0,76(sp)
    3ec4:	f22d                	bnez	a2,3e26 <input_data1+0x3da>
    3ec6:	431e                	lw	t1,196(sp)
    3ec8:	3c29                	jal	38e2 <input_data2+0xa4e>
    3eca:	438c                	lw	a1,0(a5)
    3ecc:	401e147b          	0x401e147b
    3ed0:	96e9                	srai	a3,a3,0x3a
    3ed2:	43c5                	li	t2,17
    3ed4:	42a8072b          	0x42a8072b
    3ed8:	2c5a                	fld	fs8,400(sp)
    3eda:	442c                	lw	a1,72(s0)
    3edc:	b375                	j	3c88 <input_data1+0x23c>
    3ede:	c26f4377          	0xc26f4377
    3ee2:	a8f64463          	blt	a2,a5,316a <input_data2+0x2d6>
    3ee6:	4245                	li	tp,17
    3ee8:	70a4                	flw	fs1,96(s1)
    3eea:	43ee                	lw	t2,216(sp)
    3eec:	a3b6                	fsd	fa3,448(sp)
    3eee:	43d9                	li	t2,22
    3ef0:	c419                	beqz	s0,3efe <input_data1+0x4b2>
    3ef2:	3d0e444b          	0x3d0e444b
    3ef6:	4446                	lw	s0,80(sp)
    3ef8:	4436671b          	0x4436671b
    3efc:	47ae                	lw	a5,200(sp)
    3efe:	4459                	li	s0,22
    3f00:	91aa                	add	gp,gp,a0
    3f02:	4384                	lw	s1,0(a5)
    3f04:	43f337cf          	fnmadd.d	fa5,ft6,ft11,fs0,rup
    3f08:	42ff9f3b          	0x42ff9f3b
    3f0c:	1e98                	addi	a4,sp,880
    3f0e:	3fbe43cf          	fnmadd.q	ft7,ft8,fs11,ft7,rmm
    3f12:	436c                	lw	a1,68(a4)
    3f14:	9148                	0x9148
    3f16:	43b8                	lw	a4,64(a5)
    3f18:	67ae                	flw	fa5,200(sp)
    3f1a:	4356                	lw	t1,84(sp)
    3f1c:	2d71                	jal	45b8 <input_data1+0xb6c>
    3f1e:	4409                	li	s0,2
    3f20:	e4dd                	bnez	s1,3fce <input_data1+0x582>
    3f22:	4334                	lw	a3,64(a4)
    3f24:	8571                	srai	a0,a0,0x1c
    3f26:	4401                	li	s0,0
    3f28:	b852                	fsd	fs4,48(sp)
    3f2a:	40ce                	lw	ra,208(sp)
    3f2c:	1800                	addi	s0,sp,48
    3f2e:	445e                	lw	s0,212(sp)
    3f30:	c979                	beqz	a0,4006 <input_data1+0x5ba>
    3f32:	915843fb          	0x915843fb
    3f36:	442a                	lw	s0,136(sp)
    3f38:	441507cf          	0x441507cf
    3f3c:	6ae1                	lui	s5,0x18
    3f3e:	438e                	lw	t2,192(sp)
    3f40:	a8f6                	fsd	ft9,80(sp)
    3f42:	432d                	li	t1,11
    3f44:	445a                	lw	s0,148(sp)
    3f46:	4384                	lw	s1,0(a5)
    3f48:	ea7f                	0xea7f
    3f4a:	4420                	lw	s0,72(s0)
    3f4c:	43f9bd2f          	0x43f9bd2f
    3f50:	776d                	lui	a4,0xffffb
    3f52:	43ad                	li	t2,11
    3f54:	5c08                	lw	a0,56(s0)
    3f56:	4391                	li	t2,4
    3f58:	f1ec                	fsw	fa1,100(a1)
    3f5a:	4415                	li	s0,5
    3f5c:	446049cb          	0x446049cb
    3f60:	4289cdd3          	0x4289cdd3
    3f64:	4419                	li	s0,6
    3f66:	76d94357          	0x76d94357
    3f6a:	4454                	lw	a3,12(s0)
    3f6c:	4436c677          	0x4436c677
    3f70:	9bb6                	add	s7,s7,a3
    3f72:	4424                	lw	s1,72(s0)
    3f74:	277d                	jal	4722 <input_data1+0xcd6>
    3f76:	442c                	lw	a1,72(s0)
    3f78:	dcee                	sw	s11,120(sp)
    3f7a:	441a                	lw	s0,132(sp)
    3f7c:	3581                	jal	3dbc <input_data1+0x370>
    3f7e:	599a437b          	0x599a437b
    3f82:	909342f3          	0x909342f3
    3f86:	4444                	lw	s1,12(s0)
    3f88:	4303d9db          	0x4303d9db
    3f8c:	f179                	bnez	a0,3f52 <input_data1+0x506>
    3f8e:	440a                	lw	s0,128(sp)
    3f90:	444f27cf          	0x444f27cf
    3f94:	21aa                	fld	ft3,136(sp)
    3f96:	c72b4397          	auipc	t2,0xc72b4
    3f9a:	4426                	lw	s0,72(sp)
    3f9c:	176d                	addi	a4,a4,-5
    3f9e:	4404                	lw	s1,8(s0)
    3fa0:	e148                	fsw	fa0,4(a0)
    3fa2:	43d8                	lw	a4,4(a5)
    3fa4:	44082873          	csrrs	a6,0x440,a6
    3fa8:	fb64                	fsw	fs1,116(a4)
    3faa:	278d43f3          	0x278d43f3
    3fae:	43a1                	li	t2,8
    3fb0:	7842                	flw	fa6,48(sp)
    3fb2:	443c                	lw	a5,72(s0)
    3fb4:	446cdf2b          	0x446cdf2b
    3fb8:	42fb9687          	0x42fb9687
    3fbc:	be98                	fsd	fa4,56(a3)
    3fbe:	b010438f          	0xb010438f
    3fc2:	441c                	lw	a5,8(s0)
    3fc4:	0968                	addi	a0,sp,156
    3fc6:	444e                	lw	s0,208(sp)
    3fc8:	b021                	j	37d0 <input_data2+0x93c>
    3fca:	4166                	lw	sp,88(sp)
    3fcc:	749c                	flw	fa5,40(s1)
    3fce:	4398                	lw	a4,0(a5)
    3fd0:	41296c8b          	0x41296c8b
    3fd4:	32d1                	jal	3998 <input_data2+0xb04>
    3fd6:	4445                	li	s0,17
    3fd8:	cefa                	sw	t5,92(sp)
    3fda:	43c9                	li	t2,18
    3fdc:	6852                	flw	fa6,20(sp)
    3fde:	020c4437          	lui	s0,0x20c4
    3fe2:	42d4                	lw	a3,4(a3)
    3fe4:	f8e5                	bnez	s1,3fd4 <input_data1+0x588>
    3fe6:	dcee446f          	jal	s0,fffe85b4 <__stop_addr+0xffbe85ac>
    3fea:	445a442f          	0x445a442f
    3fee:	8a5e43b7          	lui	t2,0x8a5e4
    3ff2:	444c                	lw	a1,12(s0)
    3ff4:	ad0e                	fsd	ft3,152(sp)
    3ff6:	4434                	lw	a3,72(s0)
    3ff8:	447105c3          	0x447105c3
    3ffc:	24dd                	jal	42e2 <input_data1+0x896>
    3ffe:	33f84393          	xori	t2,a6,831
    4002:	e2b043cb          	fnmsub.d	ft7,ft0,fa1,ft8,rmm
    4006:	99794473          	0x99794473
    400a:	445a                	lw	s0,148(sp)
    400c:	5e46                	lw	t3,112(sp)
    400e:	18214423          	0x18214423
    4012:	4456                	lw	s0,84(sp)
    4014:	3c6a                	fld	fs8,184(sp)
    4016:	2873443b          	0x2873443b
    401a:	42ad                	li	t0,11
    401c:	bae1                	j	39f4 <input_data2+0xb60>
    401e:	42b6                	lw	t0,76(sp)
    4020:	e76d                	bnez	a4,410a <input_data1+0x6be>
    4022:	4271                	li	tp,28
    4024:	67ae                	flw	fa5,200(sp)
    4026:	43bd                	li	t2,15
    4028:	3d1f 4425 1cac      	0x1cac44253d1f
    402e:	fd2f42d3          	0xfd2f42d3
    4032:	4426                	lw	s0,72(sp)
    4034:	42cdec8b          	0x42cdec8b
    4038:	4319126f          	jal	tp,95c68 <input_data1+0x9221c>
    403c:	43bef28f          	0x43bef28f
    4040:	a354                	fsd	fa3,128(a4)
    4042:	42f2                	lw	t0,28(sp)
    4044:	f106                	fsw	ft1,160(sp)
    4046:	4422                	lw	s0,8(sp)
    4048:	3a5e                	fld	fs4,496(sp)
    404a:	42c4                	lw	s1,4(a3)
    404c:	444e63d7          	0x444e63d7
    4050:	43ce4f1b          	0x43ce4f1b
    4054:	2979                	jal	44f2 <input_data1+0xaa6>
    4056:	4452                	lw	s0,20(sp)
    4058:	56c9                	li	a3,-14
    405a:	436c                	lw	a1,68(a4)
    405c:	74fe                	flw	fs1,252(sp)
    405e:	43b2                	lw	t2,12(sp)
    4060:	4146a3d7          	0x4146a3d7
    4064:	47f0                	lw	a2,76(a5)
    4066:	4314                	lw	a3,0(a4)
    4068:	d24e                	sw	s3,36(sp)
    406a:	322d43d3          	0x322d43d3
    406e:	425a                	lw	tp,148(sp)
    4070:	44714d3f 430c2fdf 	0x430c2fdf44714d3f
    4078:	43583893          	sltiu	a7,a6,1077
    407c:	446eddc3          	0x446eddc3
    4080:	441b4b33          	0x441b4b33
    4084:	8b85                	andi	a5,a5,1
    4086:	d45a43ab          	0xd45a43ab
    408a:	43b4                	lw	a3,64(a5)
    408c:	44056f3b          	0x44056f3b
    4090:	71ba                	flw	ft3,172(sp)
    4092:	4466                	lw	s0,88(sp)
    4094:	6148                	flw	fa0,4(a0)
    4096:	443d                	li	s0,15
    4098:	ce04                	sw	s1,24(a2)
    409a:	4432                	lw	s0,12(sp)
    409c:	44026be7          	0x44026be7
    40a0:	e831                	bnez	s0,40f4 <input_data1+0x6a8>
    40a2:	4421                	li	s0,8
    40a4:	6614                	flw	fa3,8(a2)
    40a6:	4451                	li	s0,20
    40a8:	4395dc8b          	0x4395dc8b
    40ac:	1312                	slli	t1,t1,0x24
    40ae:	4414                	lw	a3,8(s0)
    40b0:	b4bc                	fsd	fa5,104(s1)
    40b2:	445d                	li	s0,23
    40b4:	51ec                	lw	a1,100(a1)
    40b6:	4152                	lw	sp,20(sp)
    40b8:	a77d                	j	4866 <input_data1+0xe1a>
    40ba:	442a                	lw	s0,136(sp)
    40bc:	44dd                	li	s1,23
    40be:	432d                	li	t1,11
    40c0:	c9ba                	sw	a4,208(sp)
    40c2:	4211                	li	tp,4
    40c4:	427c77cf          	fnmadd.d	fa5,fs8,ft7,fs0
    40c8:	fccd                	bnez	s1,4082 <input_data1+0x636>
    40ca:	43f6                	lw	t2,92(sp)
    40cc:	26e9                	jal	4496 <input_data1+0xa4a>
    40ce:	42f2                	lw	t0,28(sp)
    40d0:	c364                	sw	s1,68(a4)
    40d2:	4409                	li	s0,2
    40d4:	be35                	j	3c10 <input_data1+0x1c4>
    40d6:	4305                	li	t1,1
    40d8:	4e98                	lw	a4,24(a3)
    40da:	4406                	lw	s0,64(sp)
    40dc:	8ea8                	0x8ea8
    40de:	443d                	li	s0,15
    40e0:	7a4e                	flw	fs4,240(sp)
    40e2:	4472                	lw	s0,28(sp)
    40e4:	43ba0333          	0x43ba0333
    40e8:	c810                	sw	a2,16(s0)
    40ea:	4420                	lw	s0,72(s0)
    40ec:	446ded3f 43d9276d 	0x43d9276d446ded3f
    40f4:	421e072b          	0x421e072b
    40f8:	b22d                	j	3a22 <input_data2+0xb8e>
    40fa:	e83143cf          	fnmadd.s	ft7,ft2,ft3,ft9,rmm
    40fe:	4301                	li	t1,0
    4100:	43979893          	0x43979893
    4104:	42ddf5c3          	fmadd.d	fa1,fs11,fa3,fs0
    4108:	55a2                	lw	a1,40(sp)
    410a:	f7be43db          	0xf7be43db
    410e:	1d814453          	0x1d814453
    4112:	86664457          	0x86664457
    4116:	43da                	lw	t2,148(sp)
    4118:	434b1e77          	0x434b1e77
    411c:	82d1                	srli	a3,a3,0x14
    411e:	437f                	0x437f
    4120:	5419                	li	s0,-26
    4122:	b70a43ef          	jal	t2,fffa8492 <__stop_addr+0xffba848a>
    4126:	4386                	lw	t2,64(sp)
    4128:	44771b23          	sh	t2,1110(a4) # ffffb456 <__stop_addr+0xffbfb44e>
    412c:	cae1                	beqz	a3,41fc <input_data1+0x7b0>
    412e:	43cc                	lw	a1,4(a5)
    4130:	cd1f 4428 145a      	0x145a4428cd1f
    4136:	441d                	li	s0,7
    4138:	cf6d                	beqz	a4,4232 <input_data1+0x7e6>
    413a:	945a4433          	0x945a4433
    413e:	a8f643c7          	fmsub.s	ft7,fa2,fa5,fs5,rmm
    4142:	5f0a4477          	0x5f0a4477
    4146:	4409                	li	s0,2
    4148:	3c4a                	fld	fs8,176(sp)
    414a:	43a9                	li	t2,10
    414c:	5b85                	li	s7,-31
    414e:	443c                	lw	a5,72(s0)
    4150:	67ae                	flw	fa5,200(sp)
    4152:	43e1                	li	t2,24
    4154:	06fa                	slli	a3,a3,0x1e
    4156:	440d                	li	s0,3
    4158:	4ac1                	li	s5,16
    415a:	441e                	lw	s0,196(sp)
    415c:	71aa                	flw	ft3,168(sp)
    415e:	54fe432b          	0x54fe432b
    4162:	3d71431b          	0x3d71431b
    4166:	b000419b          	0xb000419b
    416a:	4421                	li	s0,8
    416c:	4435dbd7          	0x4435dbd7
    4170:	43e27f1b          	0x43e27f1b
    4174:	c958                	sw	a4,20(a0)
    4176:	43fa                	lw	t2,156(sp)
    4178:	9cee                	add	s9,s9,s11
    417a:	43d5                	li	t2,21
    417c:	7968                	flw	fa0,116(a0)
    417e:	4442                	lw	s0,16(sp)
    4180:	43fe95e3          	bne	t4,t6,4daa <input_data1+0x135e>
    4184:	422c5917          	auipc	s2,0x422c5
    4188:	44773f2b          	0x44773f2b
    418c:	7f6d                	lui	t5,0xffffb
    418e:	443c                	lw	a5,72(s0)
    4190:	0c29                	addi	s8,s8,10
    4192:	43d5                	li	t2,21
    4194:	42a2c937          	lui	s2,0x42a2c
    4198:	c6a8                	sw	a0,72(a3)
    419a:	7852414b          	fnmsub.s	ft2,ft4,ft5,fa5,rmm
    419e:	434a                	lw	t1,144(sp)
    41a0:	43f1a127          	fsw	ft11,1058(gp) # 2422 <verify_data+0x146>
    41a4:	4f9e                	lw	t6,196(sp)
    41a6:	4455                	li	s0,21
    41a8:	430e3be7          	0x430e3be7
    41ac:	bc29                	j	3bc6 <input_data1+0x17a>
    41ae:	4319                	li	t1,6
    41b0:	e4fe                	fsw	ft11,72(sp)
    41b2:	43a9                	li	t2,10
    41b4:	1591                	addi	a1,a1,-28
    41b6:	443e                	lw	s0,204(sp)
    41b8:	6831                	lui	a6,0xc
    41ba:	9b8543c3          	fmadd.d	ft7,fa0,fs8,fs3,rmm
    41be:	43b2                	lw	t2,12(sp)
    41c0:	424bcdd3          	0x424bcdd3
    41c4:	d51f 446b 27f0      	0x27f0446bd51f
    41ca:	aa3d432b          	0xaa3d432b
    41ce:	4466                	lw	s0,88(sp)
    41d0:	62a0                	flw	fs0,64(a3)
    41d2:	4416                	lw	s0,68(sp)
    41d4:	2df4                	fld	fa3,216(a1)
    41d6:	43a4                	lw	s1,64(a5)
    41d8:	42d2f127          	0x42d2f127
    41dc:	5ccd                	li	s9,-13
    41de:	43f8                	lw	a4,68(a5)
    41e0:	3906                	fld	fs2,96(sp)
    41e2:	4472                	lw	s0,28(sp)
    41e4:	5ae1                	li	s5,-8
    41e6:	43dd                	li	t2,23
    41e8:	86a8                	0x86a8
    41ea:	42f2                	lw	t0,28(sp)
    41ec:	3ba6                	fld	fs7,104(sp)
    41ee:	4401                	li	s0,0
    41f0:	fe98                	fsw	fa4,56(a3)
    41f2:	6800445b          	0x6800445b
    41f6:	4420                	lw	s0,72(s0)
    41f8:	c5a2                	sw	s0,200(sp)
    41fa:	5a3d42a3          	0x5a3d42a3
    41fe:	438a                	lw	t2,128(sp)
    4200:	9439                	srai	s0,s0,0x2e
    4202:	4459                	li	s0,22
    4204:	89fc                	0x89fc
    4206:	4444                	lw	s1,12(s0)
    4208:	2364                	fld	fs1,192(a4)
    420a:	4416                	lw	s0,68(sp)
    420c:	ec08                	fsw	fa0,24(s0)
    420e:	d2b042e3          	bgtz	a1,3f32 <input_data1+0x4e6>
    4212:	4416                	lw	s0,68(sp)
    4214:	a0a4                	fsd	fs1,64(s1)
    4216:	4452                	lw	s0,20(sp)
    4218:	eeb8                	fsw	fa4,88(a3)
    421a:	4459                	li	s0,22
    421c:	c550                	sw	a2,12(a0)
    421e:	4462                	lw	s0,24(sp)
    4220:	445ddfcf          	0x445ddfcf
    4224:	b312                	fsd	ft4,416(sp)
    4226:	4389                	li	t2,2
    4228:	a396                	fsd	ft5,448(sp)
    422a:	4418                	lw	a4,8(s0)
    422c:	2189                	jal	466e <input_data1+0xc22>
    422e:	436d                	li	t1,27
    4230:	5375                	li	t1,-3
    4232:	43ca                	lw	t2,144(sp)
    4234:	eb85                	bnez	a5,4264 <input_data1+0x818>
    4236:	2a3d4203          	lbu	tp,675(s10)
    423a:	436a                	lw	t1,152(sp)
    423c:	22c1                	jal	43fc <input_data1+0x9b0>
    423e:	4444                	lw	s1,12(s0)
    4240:	6c6a                	flw	fs8,152(sp)
    4242:	443a                	lw	s0,140(sp)
    4244:	4c29                	li	s8,10
    4246:	440d                	li	s0,3
    4248:	9c6a                	add	s8,s8,s10
    424a:	adb24403          	lbu	s0,-1317(tp) # fffffadb <__stop_addr+0xffbffad3>
    424e:	43b2                	lw	t2,12(sp)
    4250:	c0a4                	sw	s1,64(s1)
    4252:	4389                	li	t2,2
    4254:	ea7f                	0xea7f
    4256:	4448                	lw	a0,12(s0)
    4258:	c979                	beqz	a0,432e <input_data1+0x8e2>
    425a:	43dc                	lw	a5,4(a5)
    425c:	c8f6                	sw	t4,80(sp)
    425e:	444c                	lw	a1,12(s0)
    4260:	4362f687          	0x4362f687
    4264:	cc19                	beqz	s0,4282 <input_data1+0x836>
    4266:	373b443b          	0x373b443b
    426a:	443c                	lw	a5,72(s0)
    426c:	1c08                	addi	a0,sp,560
    426e:	438c                	lw	a1,0(a5)
    4270:	de25                	beqz	a2,41e8 <input_data1+0x79c>
    4272:	e4dd446b          	0xe4dd446b
    4276:	42aa                	lw	t0,136(sp)
    4278:	925e                	add	tp,tp,s7
    427a:	4435                	li	s0,13
    427c:	43e565c3          	fmadd.d	fa1,fa0,ft10,fs0,unknown
    4280:	44316883          	0x44316883
    4284:	7581                	lui	a1,0xfffe0
    4286:	3f7d43e3          	blt	s10,s7,4e6c <input_data1+0x1420>
    428a:	4349                	li	t1,18
    428c:	b550                	fsd	fa2,168(a0)
    428e:	4431                	li	s0,12
    4290:	46a8                	lw	a0,72(a3)
    4292:	4259                	li	tp,22
    4294:	c042                	sw	a6,0(sp)
    4296:	43e5                	li	t2,25
    4298:	99ec                	0x99ec
    429a:	443d                	li	s0,15
    429c:	42279687          	0x42279687
    42a0:	8106                	mv	sp,ra
    42a2:	4254                	lw	a3,4(a2)
    42a4:	0b44                	addi	s1,sp,404
    42a6:	437d                	li	t1,31
    42a8:	e560                	fsw	fs0,76(a0)
    42aa:	43c6                	lw	t2,80(sp)
    42ac:	f22d                	bnez	a2,420e <input_data1+0x7c2>
    42ae:	43bc                	lw	a5,64(a5)
    42b0:	47ae                	lw	a5,200(sp)
    42b2:	4225                	li	tp,9
    42b4:	3396                	fld	ft7,352(sp)
    42b6:	43fe                	lw	t2,220(sp)
    42b8:	430d7b23          	0x430d7b23
    42bc:	0852                	slli	a6,a6,0x14
    42be:	1f1b442f          	0x1f1b442f
    42c2:	43d0                	lw	a2,4(a5)
    42c4:	1821                	addi	a6,a6,-24
    42c6:	f3c74457          	0xf3c74457
    42ca:	443a                	lw	s0,140(sp)
    42cc:	370a                	fld	fa4,160(sp)
    42ce:	43f0                	lw	a2,68(a5)
    42d0:	fa5e                	fsw	fs7,52(sp)
    42d2:	4e56435b          	0x4e56435b
    42d6:	4439                	li	s0,14
    42d8:	0e14                	addi	a3,sp,784
    42da:	dba643ef          	jal	t2,fff68894 <__stop_addr+0xffb6888c>
    42de:	43f9                	li	t2,30
    42e0:	b51f 4440 4bf8      	0x4bf84440b51f
    42e6:	4431                	li	s0,12
    42e8:	43340f1b          	0x43340f1b
    42ec:	48b4                	lw	a3,80(s1)
    42ee:	70e54247          	fmsub.s	ft4,fa0,fa4,fa4,rmm
    42f2:	43f1                	li	t2,28
    42f4:	b76d                	j	429e <input_data1+0x852>
    42f6:	43b9                	li	t2,14
    42f8:	e3a6                	fsw	fs1,196(sp)
    42fa:	442c                	lw	a1,72(s0)
    42fc:	445a75c3          	0x445a75c3
    4300:	4646                	lw	a2,80(sp)
    4302:	4435                	li	s0,13
    4304:	6f9e                	flw	ft11,196(sp)
    4306:	446c                	lw	a1,76(s0)
    4308:	9f7d                	0x9f7d
    430a:	432d                	li	t1,11
    430c:	12c1                	addi	t0,t0,-16
    430e:	4478                	lw	a4,76(s0)
    4310:	12f2                	slli	t0,t0,0x3c
    4312:	433a                	lw	t1,140(sp)
    4314:	b842                	fsd	fa6,48(sp)
    4316:	91aa4403          	lbu	s0,-1766(s4)
    431a:	4464                	lw	s1,76(s0)
    431c:	74dd                	lui	s1,0xffff7
    431e:	4434                	lw	a3,72(s0)
    4320:	cac1                	beqz	a3,43b0 <input_data1+0x964>
    4322:	3fd1                	jal	42f6 <input_data1+0x8aa>
    4324:	43d9b28f          	0x43d9b28f
    4328:	cb02                	sw	zero,148(sp)
    432a:	4470                	lw	a2,76(s0)
    432c:	f0a4                	fsw	fs1,96(s1)
    432e:	4368                	lw	a0,68(a4)
    4330:	fefa                	fsw	ft10,124(sp)
    4332:	999a4377          	0x999a4377
    4336:	43f8                	lw	a4,68(a5)
    4338:	5979                	li	s2,-2
    433a:	43e8                	lw	a0,68(a5)
    433c:	442e75d3          	0x442e75d3
    4340:	43b5372b          	0x43b5372b
    4344:	c6a8                	sw	a0,72(a3)
    4346:	7b9641f7          	0x7b9641f7
    434a:	4402                	lw	s0,0(sp)
    434c:	5000                	lw	s0,32(s0)
    434e:	43ae                	lw	t2,200(sp)
    4350:	4369add3          	0x4369add3
    4354:	b581                	j	4194 <input_data1+0x748>
    4356:	437a                	lw	t1,156(sp)
    4358:	af9e                	fsd	ft7,472(sp)
    435a:	42f1                	li	t0,28
    435c:	370a                	fld	fa4,160(sp)
    435e:	8f5c43af          	0x8f5c43af
    4362:	f0a44223          	0xf0a44223
    4366:	437a                	lw	t1,156(sp)
    4368:	4442d5e3          	bge	t0,tp,4fb2 <input_data1+0x1566>
    436c:	6550                	flw	fa2,12(a0)
    436e:	6e98440f          	0x6e98440f
    4372:	01274343          	fmadd.s	ft6,fa4,fs2,ft0,rmm
    4376:	4444                	lw	s1,12(s0)
    4378:	3c6a                	fld	fs8,184(sp)
    437a:	4321                	li	t1,8
    437c:	450e                	lw	a0,192(sp)
    437e:	c9cb443b          	0xc9cb443b
    4382:	4439                	li	s0,14
    4384:	2c4a                	fld	fs8,144(sp)
    4386:	a93743fb          	0xa93743fb
    438a:	e83143db          	0xe83143db
    438e:	444d                	li	s0,19
    4390:	ec29                	bnez	s0,43ea <input_data1+0x99e>
    4392:	43b1                	li	t2,12
    4394:	a3a6                	fsd	fs1,448(sp)
    4396:	444e                	lw	s0,208(sp)
    4398:	a0e5                	j	4480 <input_data1+0xa34>
    439a:	43c9                	li	t2,18
    439c:	31aa                	fld	ft3,168(sp)
    439e:	432a                	lw	t1,136(sp)
    43a0:	849c                	0x849c
    43a2:	430d                	li	t1,3
    43a4:	6d50                	flw	fa2,28(a0)
    43a6:	4320                	lw	s0,64(a4)
    43a8:	48c5                	li	a7,17
    43aa:	441e                	lw	s0,196(sp)
    43ac:	bcbc                	fsd	fa5,120(s1)
    43ae:	4428                	lw	a0,72(s0)
    43b0:	4390b72b          	0x4390b72b
    43b4:	4202428f          	0x4202428f
    43b8:	9968                	0x9968
    43ba:	7e774443          	fmadd.q	fs0,fa4,ft7,fa5,rmm
    43be:	434a                	lw	t1,144(sp)
    43c0:	0375                	addi	t1,t1,29
    43c2:	43a0                	lw	s0,64(a5)
    43c4:	430f9b23          	sh	a6,1078(t6) # 10436 <input_data1+0xc9ea>
    43c8:	10d5                	addi	ra,ra,-11
    43ca:	441f 5354 4455      	0x44555354441f
    43d0:	42ed75c3          	fmadd.d	fa1,fs10,fa4,fs0
    43d4:	60c5                	lui	ra,0x11
    43d6:	42b4                	lw	a3,64(a3)
    43d8:	3efa                	fld	ft9,440(sp)
    43da:	4455                	li	s0,21
    43dc:	5625                	li	a2,-23
    43de:	43c5                	li	t2,17
    43e0:	428dac8b          	0x428dac8b
    43e4:	170a                	slli	a4,a4,0x22
    43e6:	0a4e42d7          	0xa4e42d7
    43ea:	444c                	lw	a1,12(s0)
    43ec:	c862                	sw	s8,16(sp)
    43ee:	4455                	li	s0,21
    43f0:	14fe                	slli	s1,s1,0x3f
    43f2:	43c2                	lw	t2,16(sp)
    43f4:	e6e9                	bnez	a3,44be <input_data1+0xa72>
    43f6:	42d5                	li	t0,21
    43f8:	aec9                	j	47ca <input_data1+0xd7e>
    43fa:	446e                	lw	s0,216(sp)
    43fc:	431d7be7          	0x431d7be7
    4400:	2d0e                	fld	fs10,192(sp)
    4402:	4210                	lw	a2,0(a2)
    4404:	9ba6                	add	s7,s7,s1
    4406:	40c0                	lw	s0,4(s1)
    4408:	74bc                	flw	fa5,104(s1)
    440a:	4185                	li	gp,1
    440c:	6cac                	flw	fa1,88(s1)
    440e:	95f4443f 1646442e 	0x1646442e95f4443f
    4416:	434c                	lw	a1,4(a4)
    4418:	fe04                	fsw	fs1,56(a2)
    441a:	442d                	li	s0,11
    441c:	4342f7cf          	fnmadd.d	fa5,ft5,fs4,fs0
    4420:	4d91                	li	s11,4
    4422:	4429                	li	s0,10
    4424:	9f6d                	0x9f6d
    4426:	b24e440f          	0xb24e440f
    442a:	4415                	li	s0,5
    442c:	435aaf1b          	0x435aaf1b
    4430:	fc9c                	fsw	fa5,56(s1)
    4432:	445c                	lw	a5,12(s0)
    4434:	844a                	mv	s0,s2
    4436:	2b854403          	lbu	s0,696(a0)
    443a:	444e                	lw	s0,208(sp)
    443c:	8189                	srli	a1,a1,0x2
    443e:	4331                	li	t1,12
    4440:	443ab3e7          	0x443ab3e7
    4444:	436f8937          	lui	s2,0x436f8
    4448:	451f 43e7 bee9      	0xbee943e7451f
    444e:	442e                	lw	s0,200(sp)
    4450:	43ffd26f          	jal	tp,10208e <input_data1+0xfe642>
    4454:	427f                	0x427f
    4456:	443d                	li	s0,15
    4458:	97ae                	add	a5,a5,a1
    445a:	4405                	li	s0,1
    445c:	a8f6                	fsd	ft9,80(sp)
    445e:	4430                	lw	a2,72(s0)
    4460:	26c9                	jal	4822 <input_data1+0xdd6>
    4462:	43dc                	lw	a5,4(a5)
    4464:	5a1d                	li	s4,-25
    4466:	4246                	lw	tp,80(sp)
    4468:	43d65b23          	0x43d65b23
    446c:	ee14                	fsw	fa3,24(a2)
    446e:	42a8                	lw	a0,64(a3)
    4470:	370a                	fld	fa4,160(sp)
    4472:	fc084437          	lui	s0,0xfc084
    4476:	a0a44447          	fmsub.s	fs0,fs0,fa0,fs4,rmm
    447a:	4435                	li	s0,13
    447c:	50b4                	lw	a3,96(s1)
    447e:	445f a073 442f      	0x442fa073445f
    4484:	3b44                	fld	fs1,176(a4)
    4486:	4400                	lw	s0,8(s0)
    4488:	4408c117          	auipc	sp,0x4408c
    448c:	b6a8                	fsd	fa0,104(a3)
    448e:	43ba                	lw	t2,140(sp)
    4490:	08b4                	addi	a3,sp,88
    4492:	42ad                	li	t0,11
    4494:	43f64e77          	0x43f64e77
    4498:	ab12                	fsd	ft4,400(sp)
    449a:	2f1b4447          	fmsub.q	fs0,fs6,fa7,ft5,rmm
    449e:	51aa416b          	0x51aa416b
    44a2:	55c34357          	0x55c34357
    44a6:	0c4a441b          	0xc4a441b
    44aa:	72b041af          	0x72b041af
    44ae:	42a6                	lw	t0,72(sp)
    44b0:	4422c7cf          	0x4422c7cf
    44b4:	0a3d                	addi	s4,s4,15
    44b6:	3f7d42cf          	fnmadd.q	ft5,fs10,fs7,ft7,rmm
    44ba:	426e                	lw	tp,216(sp)
    44bc:	4446a73b          	0x4446a73b
    44c0:	43d6ddd3          	0x43d6ddd3
    44c4:	44666117          	auipc	sp,0x44666
    44c8:	6e35                	lui	t3,0xd
    44ca:	4424                	lw	s1,72(s0)
    44cc:	ca0c                	sw	a1,16(a2)
    44ce:	4420                	lw	s0,72(s0)
    44d0:	ab85                	j	4a40 <input_data1+0xff4>
    44d2:	42c1                	li	t0,16
    44d4:	149c                	addi	a5,sp,608
    44d6:	445c                	lw	a5,12(s0)
    44d8:	40f6                	lw	ra,92(sp)
    44da:	8bd74473          	0x8bd74473
    44de:	4450                	lw	a2,12(s0)
    44e0:	dd91                	beqz	a1,43fc <input_data1+0x9b0>
    44e2:	4424                	lw	s1,72(s0)
    44e4:	f3f8                	fsw	fa4,100(a5)
    44e6:	81fc436f          	jal	t1,fffc8d04 <__stop_addr+0xffbc8cfc>
    44ea:	4471                	li	s0,28
    44ec:	178d                	addi	a5,a5,-29
    44ee:	16c943e7          	0x16c943e7
    44f2:	420c4403          	lbu	s0,1056(s8) # fffea420 <__stop_addr+0xffbea418>
    44f6:	42e4                	lw	s1,68(a3)
    44f8:	3021                	jal	3d00 <input_data1+0x2b4>
    44fa:	427a                	lw	tp,156(sp)
    44fc:	4ab0                	lw	a2,80(a3)
    44fe:	440c                	lw	a1,8(s0)
    4500:	51fc                	lw	a5,100(a1)
    4502:	441c                	lw	a5,8(s0)
    4504:	7ba6                	flw	fs7,104(sp)
    4506:	4404                	lw	s1,8(s0)
    4508:	43978bc7          	fmsub.d	fs7,fa5,fs9,fs0,rne
    450c:	c49c                	sw	a5,8(s1)
    450e:	4124                	lw	s1,64(a0)
    4510:	a8f6                	fsd	ft9,80(sp)
    4512:	4432                	lw	s0,12(sp)
    4514:	4429                	li	s0,10
    4516:	4479                	li	s0,30
    4518:	43cca873          	csrrs	a6,0x43c,s9
    451c:	29fc                	fld	fa5,208(a1)
    451e:	4462                	lw	s0,24(sp)
    4520:	f6c9                	bnez	a3,44aa <input_data1+0xa5e>
    4522:	425d                	li	tp,23
    4524:	8a3d                	andi	a2,a2,15
    4526:	43c1                	li	t2,16
    4528:	39ec                	fld	fa1,240(a1)
    452a:	4436                	lw	s0,76(sp)
    452c:	43cbc937          	lui	s2,0x43cbc
    4530:	ce56                	sw	s5,28(sp)
    4532:	4398                	lw	a4,0(a5)
    4534:	f1aa                	fsw	fa0,224(sp)
    4536:	42d2                	lw	t0,20(sp)
    4538:	43da2be7          	0x43da2be7
    453c:	cae1                	beqz	a3,460c <input_data1+0xbc0>
    453e:	6ad1440b          	0x6ad1440b
    4542:	4461                	li	s0,24
    4544:	3db2                	fld	fs11,296(sp)
    4546:	446a                	lw	s0,152(sp)
    4548:	4414372b          	0x4414372b
    454c:	35f4                	fld	fa3,232(a1)
    454e:	4400                	lw	s0,8(s0)
    4550:	ca3d                	beqz	a2,45c6 <input_data1+0xb7a>
    4552:	442c                	lw	a1,72(s0)
    4554:	94fe                	add	s1,s1,t6
    4556:	43cc                	lw	a1,4(a5)
    4558:	4447228f          	0x4447228f
    455c:	4ed9                	li	t4,22
    455e:	8d0e4397          	auipc	t2,0x8d0e4
    4562:	43f8                	lw	a4,68(a5)
    4564:	4a7f                	0x4a7f
    4566:	434a                	lw	t1,144(sp)
    4568:	e6a8                	fsw	fa0,72(a3)
    456a:	4331                	li	t1,12
    456c:	43d5edd3          	0x43d5edd3
    4570:	30b4                	fld	fa3,96(s1)
    4572:	7dc3446b          	0x7dc3446b
    4576:	4419                	li	s0,6
    4578:	4478e083          	0x4478e083
    457c:	945a                	add	s0,s0,s6
    457e:	7c4a43b3          	0x7c4a43b3
    4582:	43f0                	lw	a2,68(a5)
    4584:	5df4                	lw	a3,124(a1)
    4586:	4402                	lw	s0,0(sp)
    4588:	4625                	li	a2,9
    458a:	431e                	lw	t1,196(sp)
    458c:	174c                	addi	a1,sp,932
    458e:	8b54442b          	0x8b54442b
    4592:	444d                	li	s0,19
    4594:	999a                	add	s3,s3,t1
    4596:	41b0                	lw	a2,64(a1)
    4598:	4418cd3f 4339aa7f 	0x4339aa7f4418cd3f
    45a0:	22e1                	jal	4768 <input_data1+0xd1c>
    45a2:	442a                	lw	s0,136(sp)
    45a4:	439c453f 416b020c 	0x416b020c439c453f
    45ac:	4e56                	lw	t3,84(sp)
    45ae:	42d6                	lw	t0,84(sp)
    45b0:	48b4                	lw	a3,80(s1)
    45b2:	42df 64bc 4389      	0x438964bc42df
    45b8:	5ee9                	li	t4,-6
    45ba:	c22d4447          	fmsub.d	fs0,fs10,ft2,fs8,rmm
    45be:	43c1                	li	t2,16
    45c0:	4312                	lw	t1,4(sp)
    45c2:	4339                	li	t1,14
    45c4:	e831                	bnez	s0,4618 <input_data1+0xbcc>
    45c6:	4372                	lw	t1,28(sp)
    45c8:	3ed6872b          	0x3ed6872b
    45cc:	3604                	fld	fs1,40(a2)
    45ce:	bf1b43f3          	0xbf1b43f3
    45d2:	2f9e4433          	0x2f9e4433
    45d6:	ec8b42d3          	0xec8b42d3
    45da:	42c1                	li	t0,16
    45dc:	bcac                	fsd	fa1,120(s1)
    45de:	442e                	lw	s0,200(sp)
    45e0:	443b6a6f          	jal	s4,bb222 <input_data1+0xb77d6>
    45e4:	4460e9cb          	0x4460e9cb
    45e8:	c408                	sw	a0,8(s0)
    45ea:	4438                	lw	a4,72(s0)
    45ec:	444081cb          	0x444081cb
    45f0:	851f 444b 3862      	0x3862444b851f
    45f6:	4421                	li	s0,8
    45f8:	43d997cf          	fnmadd.d	fa5,fs3,ft9,fs0,rtz
    45fc:	b958                	fsd	fa4,176(a0)
    45fe:	42a1                	li	t0,8
    4600:	43a35f3b          	0x43a35f3b

Disassembly of section .sdata:

00004604 <.sdata>:
    4604:	bc20                	fsd	fs0,120(s0)
    4606:	4cbe                	lw	s9,204(sp)
    4608:	0000                	unimp
    460a:	3f80                	fld	fs0,56(a5)
    460c:	0000                	unimp
    460e:	bf80                	fsd	fs0,56(a5)

Disassembly of section .comment:

00000000 <.comment>:
   0:	3a434347          	fmsub.d	ft6,ft6,ft4,ft7,rmm
   4:	2820                	fld	fs0,80(s0)
   6:	5078                	lw	a4,100(s0)
   8:	6361                	lui	t1,0x18
   a:	4e47206b          	0x4e47206b
   e:	2055                	jal	b2 <_Z4itoaijjjPcj.part.0+0x6a>
  10:	4952                	lw	s2,20(sp)
  12:	562d4353          	0x562d4353
  16:	4520                	lw	s0,72(a0)
  18:	626d                	lui	tp,0x1b
  1a:	6465                	lui	s0,0x19
  1c:	6564                	flw	fs1,76(a0)
  1e:	2064                	fld	fs1,192(s0)
  20:	2c434347          	0x2c434347
  24:	3620                	fld	fs0,104(a2)
  26:	2d34                	fld	fa3,88(a0)
  28:	6962                	flw	fs2,24(sp)
  2a:	2974                	fld	fa3,208(a0)
  2c:	3820                	fld	fs0,112(s0)
  2e:	332e                	fld	ft6,232(sp)
  30:	302e                	fld	ft0,232(sp)
	...

Disassembly of section .debug_frame:

00000000 <.debug_frame>:
   0:	000c                	0xc
   2:	0000                	unimp
   4:	ffff                	0xffff
   6:	ffff                	0xffff
   8:	0001                	nop
   a:	7c01                	lui	s8,0xfffe0
   c:	0d01                	addi	s10,s10,0
   e:	0002                	c.slli64	zero
  10:	000c                	0xc
  12:	0000                	unimp
  14:	0000                	unimp
  16:	0000                	unimp
  18:	10c8                	addi	a0,sp,100
  1a:	0000                	unimp
  1c:	00c4                	addi	s1,sp,68
  1e:	0000                	unimp
  20:	000c                	0xc
  22:	0000                	unimp
  24:	ffff                	0xffff
  26:	ffff                	0xffff
  28:	0001                	nop
  2a:	7c01                	lui	s8,0xfffe0
  2c:	0d01                	addi	s10,s10,0
  2e:	0002                	c.slli64	zero
  30:	000c                	0xc
  32:	0000                	unimp
  34:	0020                	addi	s0,sp,8
  36:	0000                	unimp
  38:	118c                	addi	a1,sp,224
  3a:	0000                	unimp
  3c:	00c4                	addi	s1,sp,68
  3e:	0000                	unimp
  40:	000c                	0xc
  42:	0000                	unimp
  44:	ffff                	0xffff
  46:	ffff                	0xffff
  48:	0001                	nop
  4a:	7c01                	lui	s8,0xfffe0
  4c:	0d01                	addi	s10,s10,0
  4e:	0002                	c.slli64	zero
  50:	003c                	addi	a5,sp,8
  52:	0000                	unimp
  54:	0040                	addi	s0,sp,4
  56:	0000                	unimp
  58:	1250                	addi	a2,sp,292
  5a:	0000                	unimp
  5c:	03b0                	addi	a2,sp,456
  5e:	0000                	unimp
  60:	0e44                	addi	s1,sp,788
  62:	4430                	lw	a2,72(s0)
  64:	0288                	addi	a0,sp,320
  66:	944c                	0x944c
  68:	9506                	add	a0,a0,ra
  6a:	01815807          	0x1815807
  6e:	0389                	addi	t2,t2,2
  70:	0492                	slli	s1,s1,0x4
  72:	08960593          	addi	a1,a2,137 # d089 <input_data1+0x963d>
  76:	bc02                	fsd	ft0,56(sp)
  78:	c10a                	sw	sp,128(sp)
  7a:	c844                	sw	s1,20(s0)
  7c:	c958                	sw	a4,20(a0)
  7e:	d244                	sw	s1,36(a2)
  80:	d344                	sw	s1,36(a4)
  82:	d444                	sw	s1,44(s0)
  84:	d544                	sw	s1,44(a0)
  86:	d644                	sw	s1,44(a2)
  88:	0e48                	addi	a0,sp,788
  8a:	4400                	lw	s0,8(s0)
  8c:	0000000b          	0xb
  90:	000c                	0xc
  92:	0000                	unimp
  94:	ffff                	0xffff
  96:	ffff                	0xffff
  98:	0001                	nop
  9a:	7c01                	lui	s8,0xfffe0
  9c:	0d01                	addi	s10,s10,0
  9e:	0002                	c.slli64	zero
  a0:	0028                	addi	a0,sp,8
  a2:	0000                	unimp
  a4:	0090                	addi	a2,sp,64
  a6:	0000                	unimp
  a8:	1600                	addi	s0,sp,800
  aa:	0000                	unimp
  ac:	0484                	addi	s1,sp,576
  ae:	0000                	unimp
  b0:	0e48                	addi	a0,sp,788
  b2:	7010                	flw	fa2,32(s0)
  b4:	0389                	addi	t2,t2,2
  b6:	0492                	slli	s1,s1,0x4
  b8:	0181                	addi	gp,gp,0
  ba:	0288                	addi	a0,sp,320
  bc:	0a010003          	lb	zero,160(sp) # 4466a564 <__stop_addr+0x4426a55c>
  c0:	44c1                	li	s1,16
  c2:	54c8                	lw	a0,44(s1)
  c4:	44c9                	li	s1,18
  c6:	48d2                	lw	a7,20(sp)
  c8:	000e                	c.slli	zero,0x3
  ca:	0b44                	addi	s1,sp,404
  cc:	000c                	0xc
  ce:	0000                	unimp
  d0:	ffff                	0xffff
  d2:	ffff                	0xffff
  d4:	0001                	nop
  d6:	7c01                	lui	s8,0xfffe0
  d8:	0d01                	addi	s10,s10,0
  da:	0002                	c.slli64	zero
  dc:	000c                	0xc
  de:	0000                	unimp
  e0:	00cc                	addi	a1,sp,68
  e2:	0000                	unimp
  e4:	1a84                	addi	s1,sp,368
  e6:	0000                	unimp
  e8:	0074                	addi	a3,sp,12
  ea:	0000                	unimp
  ec:	000c                	0xc
  ee:	0000                	unimp
  f0:	ffff                	0xffff
  f2:	ffff                	0xffff
  f4:	0001                	nop
  f6:	7c01                	lui	s8,0xfffe0
  f8:	0d01                	addi	s10,s10,0
  fa:	0002                	c.slli64	zero
  fc:	0024                	addi	s1,sp,8
  fe:	0000                	unimp
 100:	00ec                	addi	a1,sp,76
 102:	0000                	unimp
 104:	1af8                	addi	a4,sp,380
 106:	0000                	unimp
 108:	0114                	addi	a3,sp,128
 10a:	0000                	unimp
 10c:	0e44                	addi	s1,sp,788
 10e:	4c10                	lw	a2,24(s0)
 110:	0181                	addi	gp,gp,0
 112:	0288                	addi	a0,sp,320
 114:	0389                	addi	t2,t2,2
 116:	6802                	flw	fa6,0(sp)
 118:	c10a                	sw	sp,128(sp)
 11a:	c844                	sw	s1,20(s0)
 11c:	c954                	sw	a3,20(a0)
 11e:	0e44                	addi	s1,sp,788
 120:	4400                	lw	s0,8(s0)
 122:	000c000b          	0xc000b
 126:	0000                	unimp
 128:	ffff                	0xffff
 12a:	ffff                	0xffff
 12c:	0001                	nop
 12e:	7c01                	lui	s8,0xfffe0
 130:	0d01                	addi	s10,s10,0
 132:	0002                	c.slli64	zero
 134:	000c                	0xc
 136:	0000                	unimp
 138:	0124                	addi	s1,sp,136
 13a:	0000                	unimp
 13c:	1c0c                	addi	a1,sp,560
 13e:	0000                	unimp
 140:	01f4                	addi	a3,sp,204
 142:	0000                	unimp
 144:	000c                	0xc
 146:	0000                	unimp
 148:	ffff                	0xffff
 14a:	ffff                	0xffff
 14c:	0001                	nop
 14e:	7c01                	lui	s8,0xfffe0
 150:	0d01                	addi	s10,s10,0
 152:	0002                	c.slli64	zero
 154:	000c                	0xc
 156:	0000                	unimp
 158:	0144                	addi	s1,sp,132
 15a:	0000                	unimp
 15c:	1e00                	addi	s0,sp,816
 15e:	0000                	unimp
 160:	0094                	addi	a3,sp,64
	...
