
exe:     file format elf32-littleriscv


Disassembly of section .text:

00000000 <entry>:
   0:	00010117          	auipc	sp,0x10
   4:	ffc10113          	addi	sp,sp,-4 # fffc <__sp>
   8:	008000ef          	jal	ra,10 <textinit>

0000000c <end>:
   c:	0000006f          	j	c <end>

00000010 <textinit>:
  10:	ff010113          	addi	sp,sp,-16
  14:	00112623          	sw	ra,12(sp)
  18:	00812423          	sw	s0,8(sp)
  1c:	01010413          	addi	s0,sp,16
  20:	64c000ef          	jal	ra,66c <main>
  24:	00000013          	nop
  28:	00c12083          	lw	ra,12(sp)
  2c:	00812403          	lw	s0,8(sp)
  30:	01010113          	addi	sp,sp,16
  34:	00008067          	ret

00000038 <_Z4itoaijjjPcj.part.0>:
  38:	fd010113          	addi	sp,sp,-48
  3c:	02812423          	sw	s0,40(sp)
  40:	02912223          	sw	s1,36(sp)
  44:	01412c23          	sw	s4,24(sp)
  48:	01512a23          	sw	s5,20(sp)
  4c:	01712623          	sw	s7,12(sp)
  50:	02112623          	sw	ra,44(sp)
  54:	03212023          	sw	s2,32(sp)
  58:	01312e23          	sw	s3,28(sp)
  5c:	01612823          	sw	s6,16(sp)
  60:	00050413          	mv	s0,a0
  64:	00058b93          	mv	s7,a1
  68:	00070493          	mv	s1,a4
  6c:	00078a13          	mv	s4,a5
  70:	00000a93          	li	s5,0
  74:	1c054863          	bltz	a0,244 <_Z4itoaijjjPcj.part.0+0x20c>
  78:	06100913          	li	s2,97
  7c:	00060463          	beqz	a2,84 <_Z4itoaijjjPcj.part.0+0x4c>
  80:	04100913          	li	s2,65
  84:	00048b13          	mv	s6,s1
  88:	00900993          	li	s3,9
  8c:	ff690913          	addi	s2,s2,-10
  90:	000b8593          	mv	a1,s7
  94:	00040513          	mv	a0,s0
  98:	570000ef          	jal	ra,608 <__umodsi3>
  9c:	00050713          	mv	a4,a0
  a0:	0ff77693          	andi	a3,a4,255
  a4:	03068793          	addi	a5,a3,48
  a8:	000b8593          	mv	a1,s7
  ac:	00040513          	mv	a0,s0
  b0:	012686b3          	add	a3,a3,s2
  b4:	16e9ec63          	bltu	s3,a4,22c <_Z4itoaijjjPcj.part.0+0x1f4>
  b8:	00fb0023          	sb	a5,0(s6)
  bc:	504000ef          	jal	ra,5c0 <__udivsi3>
  c0:	00050413          	mv	s0,a0
  c4:	001b0b13          	addi	s6,s6,1
  c8:	fca044e3          	bgtz	a0,90 <_Z4itoaijjjPcj.part.0+0x58>
  cc:	409b0733          	sub	a4,s6,s1
  d0:	0f477263          	bgeu	a4,s4,1b4 <_Z4itoaijjjPcj.part.0+0x17c>
  d4:	fffa0693          	addi	a3,s4,-1
  d8:	416007b3          	neg	a5,s6
  dc:	40e686b3          	sub	a3,a3,a4
  e0:	00500613          	li	a2,5
  e4:	40ea0533          	sub	a0,s4,a4
  e8:	0037f793          	andi	a5,a5,3
  ec:	16d67a63          	bgeu	a2,a3,260 <_Z4itoaijjjPcj.part.0+0x228>
  f0:	16078263          	beqz	a5,254 <_Z4itoaijjjPcj.part.0+0x21c>
  f4:	03000693          	li	a3,48
  f8:	00db0023          	sb	a3,0(s6)
  fc:	00100613          	li	a2,1
 100:	001b0593          	addi	a1,s6,1
 104:	00170893          	addi	a7,a4,1
 108:	02c78263          	beq	a5,a2,12c <_Z4itoaijjjPcj.part.0+0xf4>
 10c:	00db00a3          	sb	a3,1(s6)
 110:	00200613          	li	a2,2
 114:	002b0593          	addi	a1,s6,2
 118:	00270893          	addi	a7,a4,2
 11c:	00c78863          	beq	a5,a2,12c <_Z4itoaijjjPcj.part.0+0xf4>
 120:	003b0593          	addi	a1,s6,3
 124:	00db0123          	sb	a3,2(s6)
 128:	00370893          	addi	a7,a4,3
 12c:	40f50833          	sub	a6,a0,a5
 130:	ffc80693          	addi	a3,a6,-4
 134:	0026d693          	srli	a3,a3,0x2
 138:	30303637          	lui	a2,0x30303
 13c:	00168693          	addi	a3,a3,1
 140:	00fb07b3          	add	a5,s6,a5
 144:	00000713          	li	a4,0
 148:	03060613          	addi	a2,a2,48 # 30303030 <__console_addr+0x302f302c>
 14c:	00c7a023          	sw	a2,0(a5)
 150:	00170713          	addi	a4,a4,1
 154:	00478793          	addi	a5,a5,4
 158:	fed76ae3          	bltu	a4,a3,14c <_Z4itoaijjjPcj.part.0+0x114>
 15c:	00269693          	slli	a3,a3,0x2
 160:	00d88733          	add	a4,a7,a3
 164:	00d587b3          	add	a5,a1,a3
 168:	04d80463          	beq	a6,a3,1b0 <_Z4itoaijjjPcj.part.0+0x178>
 16c:	03000693          	li	a3,48
 170:	00d78023          	sb	a3,0(a5)
 174:	00170613          	addi	a2,a4,1
 178:	03467c63          	bgeu	a2,s4,1b0 <_Z4itoaijjjPcj.part.0+0x178>
 17c:	00d780a3          	sb	a3,1(a5)
 180:	00270613          	addi	a2,a4,2
 184:	03467663          	bgeu	a2,s4,1b0 <_Z4itoaijjjPcj.part.0+0x178>
 188:	00d78123          	sb	a3,2(a5)
 18c:	00370613          	addi	a2,a4,3
 190:	03467063          	bgeu	a2,s4,1b0 <_Z4itoaijjjPcj.part.0+0x178>
 194:	00d781a3          	sb	a3,3(a5)
 198:	00470613          	addi	a2,a4,4
 19c:	01467a63          	bgeu	a2,s4,1b0 <_Z4itoaijjjPcj.part.0+0x178>
 1a0:	00d78223          	sb	a3,4(a5)
 1a4:	00570713          	addi	a4,a4,5
 1a8:	01477463          	bgeu	a4,s4,1b0 <_Z4itoaijjjPcj.part.0+0x178>
 1ac:	00d782a3          	sb	a3,5(a5)
 1b0:	00ab0b33          	add	s6,s6,a0
 1b4:	000a8863          	beqz	s5,1c4 <_Z4itoaijjjPcj.part.0+0x18c>
 1b8:	02d00793          	li	a5,45
 1bc:	00fb0023          	sb	a5,0(s6)
 1c0:	001b0b13          	addi	s6,s6,1
 1c4:	409b0533          	sub	a0,s6,s1
 1c8:	000b0023          	sb	zero,0(s6)
 1cc:	00155593          	srli	a1,a0,0x1
 1d0:	02058863          	beqz	a1,200 <_Z4itoaijjjPcj.part.0+0x1c8>
 1d4:	fff50793          	addi	a5,a0,-1
 1d8:	00048713          	mv	a4,s1
 1dc:	00f487b3          	add	a5,s1,a5
 1e0:	00b485b3          	add	a1,s1,a1
 1e4:	0007c603          	lbu	a2,0(a5)
 1e8:	00074683          	lbu	a3,0(a4)
 1ec:	00170713          	addi	a4,a4,1
 1f0:	fff78793          	addi	a5,a5,-1
 1f4:	fec70fa3          	sb	a2,-1(a4)
 1f8:	00d780a3          	sb	a3,1(a5)
 1fc:	feb714e3          	bne	a4,a1,1e4 <_Z4itoaijjjPcj.part.0+0x1ac>
 200:	02c12083          	lw	ra,44(sp)
 204:	02812403          	lw	s0,40(sp)
 208:	02412483          	lw	s1,36(sp)
 20c:	02012903          	lw	s2,32(sp)
 210:	01c12983          	lw	s3,28(sp)
 214:	01812a03          	lw	s4,24(sp)
 218:	01412a83          	lw	s5,20(sp)
 21c:	01012b03          	lw	s6,16(sp)
 220:	00c12b83          	lw	s7,12(sp)
 224:	03010113          	addi	sp,sp,48
 228:	00008067          	ret
 22c:	00db0023          	sb	a3,0(s6)
 230:	390000ef          	jal	ra,5c0 <__udivsi3>
 234:	00050413          	mv	s0,a0
 238:	001b0b13          	addi	s6,s6,1
 23c:	e4a04ae3          	bgtz	a0,90 <_Z4itoaijjjPcj.part.0+0x58>
 240:	e8dff06f          	j	cc <_Z4itoaijjjPcj.part.0+0x94>
 244:	e2069ae3          	bnez	a3,78 <_Z4itoaijjjPcj.part.0+0x40>
 248:	40a00433          	neg	s0,a0
 24c:	00100a93          	li	s5,1
 250:	e29ff06f          	j	78 <_Z4itoaijjjPcj.part.0+0x40>
 254:	000b0593          	mv	a1,s6
 258:	00070893          	mv	a7,a4
 25c:	ed1ff06f          	j	12c <_Z4itoaijjjPcj.part.0+0xf4>
 260:	000b0793          	mv	a5,s6
 264:	f09ff06f          	j	16c <_Z4itoaijjjPcj.part.0+0x134>

00000268 <_Z10write_charc>:
 268:	000107b7          	lui	a5,0x10
 26c:	00a7a223          	sw	a0,4(a5) # 10004 <__console_addr>
 270:	0047a783          	lw	a5,4(a5)
 274:	40f50533          	sub	a0,a0,a5
 278:	00153513          	seqz	a0,a0
 27c:	00008067          	ret

00000280 <_Z12write_stringPc>:
 280:	00054703          	lbu	a4,0(a0)
 284:	04070463          	beqz	a4,2cc <_Z12write_stringPc+0x4c>
 288:	00150693          	addi	a3,a0,1
 28c:	00100613          	li	a2,1
 290:	000105b7          	lui	a1,0x10
 294:	00e5a223          	sw	a4,4(a1) # 10004 <__console_addr>
 298:	0045a783          	lw	a5,4(a1)
 29c:	00168693          	addi	a3,a3,1
 2a0:	40f707b3          	sub	a5,a4,a5
 2a4:	fff6c703          	lbu	a4,-1(a3)
 2a8:	0017b793          	seqz	a5,a5
 2ac:	00c7f633          	and	a2,a5,a2
 2b0:	00060793          	mv	a5,a2
 2b4:	fe0710e3          	bnez	a4,294 <_Z12write_stringPc+0x14>
 2b8:	0005a223          	sw	zero,4(a1)
 2bc:	0045a503          	lw	a0,4(a1)
 2c0:	00153513          	seqz	a0,a0
 2c4:	00f57533          	and	a0,a0,a5
 2c8:	00008067          	ret
 2cc:	000105b7          	lui	a1,0x10
 2d0:	0005a223          	sw	zero,4(a1) # 10004 <__console_addr>
 2d4:	0045a503          	lw	a0,4(a1)
 2d8:	00100793          	li	a5,1
 2dc:	00153513          	seqz	a0,a0
 2e0:	00f57533          	and	a0,a0,a5
 2e4:	00008067          	ret

000002e8 <_Z5_putciPVi>:
 2e8:	00a5a023          	sw	a0,0(a1)
 2ec:	00100513          	li	a0,1
 2f0:	00008067          	ret

000002f4 <_Z5_putsPcjPVi>:
 2f4:	00058c63          	beqz	a1,30c <_Z5_putsPcjPVi+0x18>
 2f8:	00b505b3          	add	a1,a0,a1
 2fc:	00054783          	lbu	a5,0(a0)
 300:	00150513          	addi	a0,a0,1
 304:	00f62023          	sw	a5,0(a2)
 308:	fea59ae3          	bne	a1,a0,2fc <_Z5_putsPcjPVi+0x8>
 30c:	00062023          	sw	zero,0(a2)
 310:	00100513          	li	a0,1
 314:	00008067          	ret

00000318 <_Z7_strlenPKc>:
 318:	00054783          	lbu	a5,0(a0)
 31c:	00050713          	mv	a4,a0
 320:	00000513          	li	a0,0
 324:	00078c63          	beqz	a5,33c <_Z7_strlenPKc+0x24>
 328:	00150513          	addi	a0,a0,1
 32c:	00a707b3          	add	a5,a4,a0
 330:	0007c783          	lbu	a5,0(a5)
 334:	fe079ae3          	bnez	a5,328 <_Z7_strlenPKc+0x10>
 338:	00008067          	ret
 33c:	00008067          	ret

00000340 <_Z4itoaijjjPcj>:
 340:	01000813          	li	a6,16
 344:	00b86463          	bltu	a6,a1,34c <_Z4itoaijjjPcj+0xc>
 348:	cf1ff06f          	j	38 <_Z4itoaijjjPcj.part.0>
 34c:	00000513          	li	a0,0
 350:	00008067          	ret

00000354 <_Z11printf_implPViPKcPv>:
 354:	0005c783          	lbu	a5,0(a1)
 358:	1c078863          	beqz	a5,528 <_Z11printf_implPViPKcPv+0x1d4>
 35c:	fb010113          	addi	sp,sp,-80
 360:	03412c23          	sw	s4,56(sp)
 364:	04812423          	sw	s0,72(sp)
 368:	04912223          	sw	s1,68(sp)
 36c:	05212023          	sw	s2,64(sp)
 370:	03312e23          	sw	s3,60(sp)
 374:	03512a23          	sw	s5,52(sp)
 378:	03612823          	sw	s6,48(sp)
 37c:	04112623          	sw	ra,76(sp)
 380:	03712623          	sw	s7,44(sp)
 384:	00058413          	mv	s0,a1
 388:	00050493          	mv	s1,a0
 38c:	00060813          	mv	a6,a2
 390:	00158713          	addi	a4,a1,1
 394:	02500993          	li	s3,37
 398:	03000a93          	li	s5,48
 39c:	02000b13          	li	s6,32
 3a0:	69800a13          	li	s4,1688
 3a4:	00900913          	li	s2,9
 3a8:	05378463          	beq	a5,s3,3f0 <_Z11printf_implPViPKcPv+0x9c>
 3ac:	00f4a023          	sw	a5,0(s1)
 3b0:	00070413          	mv	s0,a4
 3b4:	00044783          	lbu	a5,0(s0)
 3b8:	00140713          	addi	a4,s0,1
 3bc:	fe0796e3          	bnez	a5,3a8 <_Z11printf_implPViPKcPv+0x54>
 3c0:	04c12083          	lw	ra,76(sp)
 3c4:	04812403          	lw	s0,72(sp)
 3c8:	04412483          	lw	s1,68(sp)
 3cc:	04012903          	lw	s2,64(sp)
 3d0:	03c12983          	lw	s3,60(sp)
 3d4:	03812a03          	lw	s4,56(sp)
 3d8:	03412a83          	lw	s5,52(sp)
 3dc:	03012b03          	lw	s6,48(sp)
 3e0:	02c12b83          	lw	s7,44(sp)
 3e4:	00000513          	li	a0,0
 3e8:	05010113          	addi	sp,sp,80
 3ec:	00008067          	ret
 3f0:	00144683          	lbu	a3,1(s0)
 3f4:	11568663          	beq	a3,s5,500 <_Z11printf_implPViPKcPv+0x1ac>
 3f8:	00240413          	addi	s0,s0,2
 3fc:	00000793          	li	a5,0
 400:	fc0680e3          	beqz	a3,3c0 <_Z11printf_implPViPKcPv+0x6c>
 404:	fa868613          	addi	a2,a3,-88
 408:	0ff67713          	andi	a4,a2,255
 40c:	00eb6a63          	bltu	s6,a4,420 <_Z11printf_implPViPKcPv+0xcc>
 410:	00271713          	slli	a4,a4,0x2
 414:	01470733          	add	a4,a4,s4
 418:	00072703          	lw	a4,0(a4)
 41c:	00070067          	jr	a4
 420:	00d4a023          	sw	a3,0(s1)
 424:	f91ff06f          	j	3b4 <_Z11printf_implPViPKcPv+0x60>
 428:	00082503          	lw	a0,0(a6)
 42c:	f8b68693          	addi	a3,a3,-117
 430:	00810713          	addi	a4,sp,8
 434:	0016b693          	seqz	a3,a3
 438:	00000613          	li	a2,0
 43c:	00a00593          	li	a1,10
 440:	00480b93          	addi	s7,a6,4
 444:	bf5ff0ef          	jal	ra,38 <_Z4itoaijjjPcj.part.0>
 448:	00050e63          	beqz	a0,464 <_Z11printf_implPViPKcPv+0x110>
 44c:	00810793          	addi	a5,sp,8
 450:	00a786b3          	add	a3,a5,a0
 454:	0007c703          	lbu	a4,0(a5)
 458:	00178793          	addi	a5,a5,1
 45c:	00e4a023          	sw	a4,0(s1)
 460:	fef69ae3          	bne	a3,a5,454 <_Z11printf_implPViPKcPv+0x100>
 464:	0004a023          	sw	zero,0(s1)
 468:	000b8813          	mv	a6,s7
 46c:	f49ff06f          	j	3b4 <_Z11printf_implPViPKcPv+0x60>
 470:	00082503          	lw	a0,0(a6)
 474:	00810713          	addi	a4,sp,8
 478:	00100693          	li	a3,1
 47c:	00163613          	seqz	a2,a2
 480:	01000593          	li	a1,16
 484:	00480b93          	addi	s7,a6,4
 488:	bb1ff0ef          	jal	ra,38 <_Z4itoaijjjPcj.part.0>
 48c:	fc050ce3          	beqz	a0,464 <_Z11printf_implPViPKcPv+0x110>
 490:	00810793          	addi	a5,sp,8
 494:	00a786b3          	add	a3,a5,a0
 498:	0007c703          	lbu	a4,0(a5)
 49c:	00178793          	addi	a5,a5,1
 4a0:	00e4a023          	sw	a4,0(s1)
 4a4:	fef69ae3          	bne	a3,a5,498 <_Z11printf_implPViPKcPv+0x144>
 4a8:	0004a023          	sw	zero,0(s1)
 4ac:	000b8813          	mv	a6,s7
 4b0:	f05ff06f          	j	3b4 <_Z11printf_implPViPKcPv+0x60>
 4b4:	00084783          	lbu	a5,0(a6)
 4b8:	00480813          	addi	a6,a6,4
 4bc:	00f4a023          	sw	a5,0(s1)
 4c0:	ef5ff06f          	j	3b4 <_Z11printf_implPViPKcPv+0x60>
 4c4:	00082783          	lw	a5,0(a6)
 4c8:	00000713          	li	a4,0
 4cc:	00480813          	addi	a6,a6,4
 4d0:	0007c683          	lbu	a3,0(a5)
 4d4:	02068263          	beqz	a3,4f8 <_Z11printf_implPViPKcPv+0x1a4>
 4d8:	00170713          	addi	a4,a4,1
 4dc:	00e786b3          	add	a3,a5,a4
 4e0:	0006c583          	lbu	a1,0(a3)
 4e4:	fe059ae3          	bnez	a1,4d8 <_Z11printf_implPViPKcPv+0x184>
 4e8:	0007c703          	lbu	a4,0(a5)
 4ec:	00178793          	addi	a5,a5,1
 4f0:	00e4a023          	sw	a4,0(s1)
 4f4:	fef69ae3          	bne	a3,a5,4e8 <_Z11printf_implPViPKcPv+0x194>
 4f8:	0004a023          	sw	zero,0(s1)
 4fc:	eb9ff06f          	j	3b4 <_Z11printf_implPViPKcPv+0x60>
 500:	00244783          	lbu	a5,2(s0)
 504:	ea078ee3          	beqz	a5,3c0 <_Z11printf_implPViPKcPv+0x6c>
 508:	fd078793          	addi	a5,a5,-48
 50c:	0ff7f793          	andi	a5,a5,255
 510:	00f93733          	sltu	a4,s2,a5
 514:	fff70713          	addi	a4,a4,-1
 518:	00344683          	lbu	a3,3(s0)
 51c:	00e7f7b3          	and	a5,a5,a4
 520:	00440413          	addi	s0,s0,4
 524:	eddff06f          	j	400 <_Z11printf_implPViPKcPv+0xac>
 528:	00000513          	li	a0,0
 52c:	00008067          	ret

00000530 <_Z11addr_printfPViPKcz>:
 530:	fc010113          	addi	sp,sp,-64
 534:	02810313          	addi	t1,sp,40
 538:	02c12423          	sw	a2,40(sp)
 53c:	00030613          	mv	a2,t1
 540:	00112e23          	sw	ra,28(sp)
 544:	02d12623          	sw	a3,44(sp)
 548:	02e12823          	sw	a4,48(sp)
 54c:	02f12a23          	sw	a5,52(sp)
 550:	03012c23          	sw	a6,56(sp)
 554:	03112e23          	sw	a7,60(sp)
 558:	00612623          	sw	t1,12(sp)
 55c:	df9ff0ef          	jal	ra,354 <_Z11printf_implPViPKcPv>
 560:	01c12083          	lw	ra,28(sp)
 564:	04010113          	addi	sp,sp,64
 568:	00008067          	ret

0000056c <_Z7_printfPKcz>:
 56c:	fc010113          	addi	sp,sp,-64
 570:	02410313          	addi	t1,sp,36
 574:	02b12223          	sw	a1,36(sp)
 578:	00050593          	mv	a1,a0
 57c:	00010537          	lui	a0,0x10
 580:	02c12423          	sw	a2,40(sp)
 584:	00450513          	addi	a0,a0,4 # 10004 <__console_addr>
 588:	00030613          	mv	a2,t1
 58c:	00112e23          	sw	ra,28(sp)
 590:	02d12623          	sw	a3,44(sp)
 594:	02e12823          	sw	a4,48(sp)
 598:	02f12a23          	sw	a5,52(sp)
 59c:	03012c23          	sw	a6,56(sp)
 5a0:	03112e23          	sw	a7,60(sp)
 5a4:	00612623          	sw	t1,12(sp)
 5a8:	dadff0ef          	jal	ra,354 <_Z11printf_implPViPKcPv>
 5ac:	01c12083          	lw	ra,28(sp)
 5b0:	04010113          	addi	sp,sp,64
 5b4:	00008067          	ret

000005b8 <__divsi3>:
 5b8:	06054063          	bltz	a0,618 <__umodsi3+0x10>
 5bc:	0605c663          	bltz	a1,628 <__umodsi3+0x20>

000005c0 <__udivsi3>:
 5c0:	00058613          	mv	a2,a1
 5c4:	00050593          	mv	a1,a0
 5c8:	fff00513          	li	a0,-1
 5cc:	02060c63          	beqz	a2,604 <__udivsi3+0x44>
 5d0:	00100693          	li	a3,1
 5d4:	00b67a63          	bgeu	a2,a1,5e8 <__udivsi3+0x28>
 5d8:	00c05863          	blez	a2,5e8 <__udivsi3+0x28>
 5dc:	00161613          	slli	a2,a2,0x1
 5e0:	00169693          	slli	a3,a3,0x1
 5e4:	feb66ae3          	bltu	a2,a1,5d8 <__udivsi3+0x18>
 5e8:	00000513          	li	a0,0
 5ec:	00c5e663          	bltu	a1,a2,5f8 <__udivsi3+0x38>
 5f0:	40c585b3          	sub	a1,a1,a2
 5f4:	00d56533          	or	a0,a0,a3
 5f8:	0016d693          	srli	a3,a3,0x1
 5fc:	00165613          	srli	a2,a2,0x1
 600:	fe0696e3          	bnez	a3,5ec <__udivsi3+0x2c>
 604:	00008067          	ret

00000608 <__umodsi3>:
 608:	00008293          	mv	t0,ra
 60c:	fb5ff0ef          	jal	ra,5c0 <__udivsi3>
 610:	00058513          	mv	a0,a1
 614:	00028067          	jr	t0
 618:	40a00533          	neg	a0,a0
 61c:	00b04863          	bgtz	a1,62c <__umodsi3+0x24>
 620:	40b005b3          	neg	a1,a1
 624:	f9dff06f          	j	5c0 <__udivsi3>
 628:	40b005b3          	neg	a1,a1
 62c:	00008293          	mv	t0,ra
 630:	f91ff0ef          	jal	ra,5c0 <__udivsi3>
 634:	40a00533          	neg	a0,a0
 638:	00028067          	jr	t0

0000063c <__modsi3>:
 63c:	00008293          	mv	t0,ra
 640:	0005ca63          	bltz	a1,654 <__modsi3+0x18>
 644:	00054c63          	bltz	a0,65c <__modsi3+0x20>
 648:	f79ff0ef          	jal	ra,5c0 <__udivsi3>
 64c:	00058513          	mv	a0,a1
 650:	00028067          	jr	t0
 654:	40b005b3          	neg	a1,a1
 658:	fe0558e3          	bgez	a0,648 <__modsi3+0xc>
 65c:	40a00533          	neg	a0,a0
 660:	f61ff0ef          	jal	ra,5c0 <__udivsi3>
 664:	40b00533          	neg	a0,a1
 668:	00028067          	jr	t0

Disassembly of section .text.startup:

0000066c <main>:
 66c:	ff010113          	addi	sp,sp,-16
 670:	00a00593          	li	a1,10
 674:	71c00513          	li	a0,1820
 678:	00112623          	sw	ra,12(sp)
 67c:	ef1ff0ef          	jal	ra,56c <_Z7_printfPKcz>
 680:	00c12083          	lw	ra,12(sp)
 684:	00000513          	li	a0,0
 688:	01010113          	addi	sp,sp,16
 68c:	00008067          	ret

Disassembly of section .vector:

00000690 <vector>:
 690:	fffc                	fsw	fa5,124(a5)
 692:	0000                	unimp
 694:	0010                	0x10
	...
