
disassembly.o:     file format elf64-littleriscv


Disassembly of section .text:

0000000000000000 <.text>:
       0:	00010117          	auipc	sp,0x10
       4:	ffc10113          	addi	sp,sp,-4 # 0xfffc
       8:	018000ef          	jal	ra,0x20
       c:	00130313          	addi	t1,t1,1
      10:	000103b7          	lui	t2,0x10
      14:	00c38393          	addi	t2,t2,12 # 0x1000c
      18:	0063a023          	sw	t1,0(t2)
      1c:	0000006f          	j	0x1c
      20:	ff010113          	addi	sp,sp,-16
      24:	00112623          	sw	ra,12(sp)
      28:	00812423          	sw	s0,8(sp)
      2c:	01010413          	addi	s0,sp,16
      30:	245000ef          	jal	ra,0xa74
      34:	00000013          	nop
      38:	00c12083          	lw	ra,12(sp)
      3c:	00812403          	lw	s0,8(sp)
      40:	01010113          	addi	sp,sp,16
      44:	00008067          	ret
      48:	fd010113          	addi	sp,sp,-48
      4c:	02812623          	sw	s0,44(sp)
      50:	03010413          	addi	s0,sp,48
      54:	00050793          	mv	a5,a0
      58:	fcf40fa3          	sb	a5,-33(s0)
      5c:	000107b7          	lui	a5,0x10
      60:	00478793          	addi	a5,a5,4 # 0x10004
      64:	fef42623          	sw	a5,-20(s0)
      68:	fdf44703          	lbu	a4,-33(s0)
      6c:	fec42783          	lw	a5,-20(s0)
      70:	00e7a023          	sw	a4,0(a5)
      74:	fec42783          	lw	a5,-20(s0)
      78:	0007a703          	lw	a4,0(a5)
      7c:	fdf44783          	lbu	a5,-33(s0)
      80:	40f707b3          	sub	a5,a4,a5
      84:	0017b793          	seqz	a5,a5
      88:	0ff7f793          	andi	a5,a5,255
      8c:	00078663          	beqz	a5,0x98
      90:	00100793          	li	a5,1
      94:	0080006f          	j	0x9c
      98:	00000793          	li	a5,0
      9c:	00078513          	mv	a0,a5
      a0:	02c12403          	lw	s0,44(sp)
      a4:	03010113          	addi	sp,sp,48
      a8:	00008067          	ret
      ac:	fd010113          	addi	sp,sp,-48
      b0:	02112623          	sw	ra,44(sp)
      b4:	02812423          	sw	s0,40(sp)
      b8:	03010413          	addi	s0,sp,48
      bc:	fca42e23          	sw	a0,-36(s0)
      c0:	fe042623          	sw	zero,-20(s0)
      c4:	00100793          	li	a5,1
      c8:	fef42423          	sw	a5,-24(s0)
      cc:	fec42783          	lw	a5,-20(s0)
      d0:	fdc42703          	lw	a4,-36(s0)
      d4:	00f707b3          	add	a5,a4,a5
      d8:	0007c783          	lbu	a5,0(a5)
      dc:	02078e63          	beqz	a5,0x118
      e0:	fec42783          	lw	a5,-20(s0)
      e4:	fdc42703          	lw	a4,-36(s0)
      e8:	00f707b3          	add	a5,a4,a5
      ec:	0007c783          	lbu	a5,0(a5)
      f0:	00078513          	mv	a0,a5
      f4:	f55ff0ef          	jal	ra,0x48
      f8:	00050713          	mv	a4,a0
      fc:	fe842783          	lw	a5,-24(s0)
     100:	00f777b3          	and	a5,a4,a5
     104:	fef42423          	sw	a5,-24(s0)
     108:	fec42783          	lw	a5,-20(s0)
     10c:	00178793          	addi	a5,a5,1
     110:	fef42623          	sw	a5,-20(s0)
     114:	fb9ff06f          	j	0xcc
     118:	00000513          	li	a0,0
     11c:	f2dff0ef          	jal	ra,0x48
     120:	00050713          	mv	a4,a0
     124:	fe842783          	lw	a5,-24(s0)
     128:	00f777b3          	and	a5,a4,a5
     12c:	fef42423          	sw	a5,-24(s0)
     130:	fe842783          	lw	a5,-24(s0)
     134:	00078513          	mv	a0,a5
     138:	02c12083          	lw	ra,44(sp)
     13c:	02812403          	lw	s0,40(sp)
     140:	03010113          	addi	sp,sp,48
     144:	00008067          	ret
     148:	fe010113          	addi	sp,sp,-32
     14c:	00812e23          	sw	s0,28(sp)
     150:	02010413          	addi	s0,sp,32
     154:	fea42623          	sw	a0,-20(s0)
     158:	feb42423          	sw	a1,-24(s0)
     15c:	fe842783          	lw	a5,-24(s0)
     160:	fec42703          	lw	a4,-20(s0)
     164:	00e7a023          	sw	a4,0(a5)
     168:	00100793          	li	a5,1
     16c:	00078513          	mv	a0,a5
     170:	01c12403          	lw	s0,28(sp)
     174:	02010113          	addi	sp,sp,32
     178:	00008067          	ret
     17c:	fd010113          	addi	sp,sp,-48
     180:	02812623          	sw	s0,44(sp)
     184:	03010413          	addi	s0,sp,48
     188:	fca42e23          	sw	a0,-36(s0)
     18c:	fcb42c23          	sw	a1,-40(s0)
     190:	fcc42a23          	sw	a2,-44(s0)
     194:	fe042623          	sw	zero,-20(s0)
     198:	fec42703          	lw	a4,-20(s0)
     19c:	fd842783          	lw	a5,-40(s0)
     1a0:	02f77863          	bgeu	a4,a5,0x1d0
     1a4:	fdc42703          	lw	a4,-36(s0)
     1a8:	fec42783          	lw	a5,-20(s0)
     1ac:	00f707b3          	add	a5,a4,a5
     1b0:	0007c783          	lbu	a5,0(a5)
     1b4:	00078713          	mv	a4,a5
     1b8:	fd442783          	lw	a5,-44(s0)
     1bc:	00e7a023          	sw	a4,0(a5)
     1c0:	fec42783          	lw	a5,-20(s0)
     1c4:	00178793          	addi	a5,a5,1
     1c8:	fef42623          	sw	a5,-20(s0)
     1cc:	fcdff06f          	j	0x198
     1d0:	fd442783          	lw	a5,-44(s0)
     1d4:	0007a023          	sw	zero,0(a5)
     1d8:	00100793          	li	a5,1
     1dc:	00078513          	mv	a0,a5
     1e0:	02c12403          	lw	s0,44(sp)
     1e4:	03010113          	addi	sp,sp,48
     1e8:	00008067          	ret
     1ec:	fd010113          	addi	sp,sp,-48
     1f0:	02812623          	sw	s0,44(sp)
     1f4:	03010413          	addi	s0,sp,48
     1f8:	fca42e23          	sw	a0,-36(s0)
     1fc:	fe042623          	sw	zero,-20(s0)
     200:	fdc42703          	lw	a4,-36(s0)
     204:	fec42783          	lw	a5,-20(s0)
     208:	00f707b3          	add	a5,a4,a5
     20c:	0007c783          	lbu	a5,0(a5)
     210:	00078a63          	beqz	a5,0x224
     214:	fec42783          	lw	a5,-20(s0)
     218:	00178793          	addi	a5,a5,1
     21c:	fef42623          	sw	a5,-20(s0)
     220:	fe1ff06f          	j	0x200
     224:	fec42783          	lw	a5,-20(s0)
     228:	00078513          	mv	a0,a5
     22c:	02c12403          	lw	s0,44(sp)
     230:	03010113          	addi	sp,sp,48
     234:	00008067          	ret
     238:	fb010113          	addi	sp,sp,-80
     23c:	04112623          	sw	ra,76(sp)
     240:	04812423          	sw	s0,72(sp)
     244:	05010413          	addi	s0,sp,80
     248:	fca42623          	sw	a0,-52(s0)
     24c:	fcb42423          	sw	a1,-56(s0)
     250:	fcc42223          	sw	a2,-60(s0)
     254:	fcd42023          	sw	a3,-64(s0)
     258:	fae42e23          	sw	a4,-68(s0)
     25c:	faf42c23          	sw	a5,-72(s0)
     260:	fbc42783          	lw	a5,-68(s0)
     264:	fef42623          	sw	a5,-20(s0)
     268:	fe042423          	sw	zero,-24(s0)
     26c:	fc842703          	lw	a4,-56(s0)
     270:	01000793          	li	a5,16
     274:	00e7f663          	bgeu	a5,a4,0x280
     278:	00000793          	li	a5,0
     27c:	1bc0006f          	j	0x438
     280:	fcc42783          	lw	a5,-52(s0)
     284:	0207d063          	bgez	a5,0x2a4
     288:	fc042783          	lw	a5,-64(s0)
     28c:	00079c63          	bnez	a5,0x2a4
     290:	00100793          	li	a5,1
     294:	fef42423          	sw	a5,-24(s0)
     298:	fcc42783          	lw	a5,-52(s0)
     29c:	40f007b3          	neg	a5,a5
     2a0:	fcf42623          	sw	a5,-52(s0)
     2a4:	fcc42783          	lw	a5,-52(s0)
     2a8:	fc842583          	lw	a1,-56(s0)
     2ac:	00078513          	mv	a0,a5
     2b0:	38d010ef          	jal	ra,0x1e3c
     2b4:	00050793          	mv	a5,a0
     2b8:	fef42023          	sw	a5,-32(s0)
     2bc:	fe042703          	lw	a4,-32(s0)
     2c0:	00900793          	li	a5,9
     2c4:	00e7cc63          	blt	a5,a4,0x2dc
     2c8:	fe042783          	lw	a5,-32(s0)
     2cc:	0ff7f793          	andi	a5,a5,255
     2d0:	03078793          	addi	a5,a5,48
     2d4:	0ff7f713          	andi	a4,a5,255
     2d8:	0300006f          	j	0x308
     2dc:	fc442783          	lw	a5,-60(s0)
     2e0:	00078663          	beqz	a5,0x2ec
     2e4:	04100793          	li	a5,65
     2e8:	0080006f          	j	0x2f0
     2ec:	06100793          	li	a5,97
     2f0:	fe042703          	lw	a4,-32(s0)
     2f4:	0ff77713          	andi	a4,a4,255
     2f8:	00e787b3          	add	a5,a5,a4
     2fc:	0ff7f793          	andi	a5,a5,255
     300:	ff678793          	addi	a5,a5,-10
     304:	0ff7f713          	andi	a4,a5,255
     308:	fec42783          	lw	a5,-20(s0)
     30c:	00178693          	addi	a3,a5,1
     310:	fed42623          	sw	a3,-20(s0)
     314:	00e78023          	sb	a4,0(a5)
     318:	fcc42783          	lw	a5,-52(s0)
     31c:	fc842583          	lw	a1,-56(s0)
     320:	00078513          	mv	a0,a5
     324:	2d1010ef          	jal	ra,0x1df4
     328:	00050793          	mv	a5,a0
     32c:	fcf42623          	sw	a5,-52(s0)
     330:	fcc42783          	lw	a5,-52(s0)
     334:	00f05463          	blez	a5,0x33c
     338:	f6dff06f          	j	0x2a4
     33c:	fec42703          	lw	a4,-20(s0)
     340:	fbc42783          	lw	a5,-68(s0)
     344:	40f707b3          	sub	a5,a4,a5
     348:	fef42223          	sw	a5,-28(s0)
     34c:	fe442703          	lw	a4,-28(s0)
     350:	fb842783          	lw	a5,-72(s0)
     354:	02f77463          	bgeu	a4,a5,0x37c
     358:	fec42783          	lw	a5,-20(s0)
     35c:	00178713          	addi	a4,a5,1
     360:	fee42623          	sw	a4,-20(s0)
     364:	03000713          	li	a4,48
     368:	00e78023          	sb	a4,0(a5)
     36c:	fe442783          	lw	a5,-28(s0)
     370:	00178793          	addi	a5,a5,1
     374:	fef42223          	sw	a5,-28(s0)
     378:	fd5ff06f          	j	0x34c
     37c:	fe842783          	lw	a5,-24(s0)
     380:	00078c63          	beqz	a5,0x398
     384:	fec42783          	lw	a5,-20(s0)
     388:	00178713          	addi	a4,a5,1
     38c:	fee42623          	sw	a4,-20(s0)
     390:	02d00713          	li	a4,45
     394:	00e78023          	sb	a4,0(a5)
     398:	fec42783          	lw	a5,-20(s0)
     39c:	00078023          	sb	zero,0(a5)
     3a0:	fec42703          	lw	a4,-20(s0)
     3a4:	fbc42783          	lw	a5,-68(s0)
     3a8:	40f707b3          	sub	a5,a4,a5
     3ac:	fcf42e23          	sw	a5,-36(s0)
     3b0:	fe042223          	sw	zero,-28(s0)
     3b4:	fdc42783          	lw	a5,-36(s0)
     3b8:	0017d793          	srli	a5,a5,0x1
     3bc:	fe442703          	lw	a4,-28(s0)
     3c0:	06f77a63          	bgeu	a4,a5,0x434
     3c4:	fbc42703          	lw	a4,-68(s0)
     3c8:	fe442783          	lw	a5,-28(s0)
     3cc:	00f707b3          	add	a5,a4,a5
     3d0:	0007c783          	lbu	a5,0(a5)
     3d4:	fcf40da3          	sb	a5,-37(s0)
     3d8:	fdc42703          	lw	a4,-36(s0)
     3dc:	fe442783          	lw	a5,-28(s0)
     3e0:	40f707b3          	sub	a5,a4,a5
     3e4:	fff78793          	addi	a5,a5,-1
     3e8:	fbc42703          	lw	a4,-68(s0)
     3ec:	00f70733          	add	a4,a4,a5
     3f0:	fbc42683          	lw	a3,-68(s0)
     3f4:	fe442783          	lw	a5,-28(s0)
     3f8:	00f687b3          	add	a5,a3,a5
     3fc:	00074703          	lbu	a4,0(a4)
     400:	00e78023          	sb	a4,0(a5)
     404:	fdc42703          	lw	a4,-36(s0)
     408:	fe442783          	lw	a5,-28(s0)
     40c:	40f707b3          	sub	a5,a4,a5
     410:	fff78793          	addi	a5,a5,-1
     414:	fbc42703          	lw	a4,-68(s0)
     418:	00f707b3          	add	a5,a4,a5
     41c:	fdb44703          	lbu	a4,-37(s0)
     420:	00e78023          	sb	a4,0(a5)
     424:	fe442783          	lw	a5,-28(s0)
     428:	00178793          	addi	a5,a5,1
     42c:	fef42223          	sw	a5,-28(s0)
     430:	f85ff06f          	j	0x3b4
     434:	fdc42783          	lw	a5,-36(s0)
     438:	00078513          	mv	a0,a5
     43c:	04c12083          	lw	ra,76(sp)
     440:	04812403          	lw	s0,72(sp)
     444:	05010113          	addi	sp,sp,80
     448:	00008067          	ret
     44c:	fd010113          	addi	sp,sp,-48
     450:	02112623          	sw	ra,44(sp)
     454:	02812423          	sw	s0,40(sp)
     458:	03010413          	addi	s0,sp,48
     45c:	fca42e23          	sw	a0,-36(s0)
     460:	fcb42c23          	sw	a1,-40(s0)
     464:	fcc42a23          	sw	a2,-44(s0)
     468:	fdc42503          	lw	a0,-36(s0)
     46c:	660010ef          	jal	ra,0x1acc
     470:	00050713          	mv	a4,a0
     474:	fd842783          	lw	a5,-40(s0)
     478:	00e7a023          	sw	a4,0(a5)
     47c:	00000793          	li	a5,0
     480:	fef42623          	sw	a5,-20(s0)
     484:	fd842783          	lw	a5,-40(s0)
     488:	0007a783          	lw	a5,0(a5)
     48c:	00078513          	mv	a0,a5
     490:	6ac010ef          	jal	ra,0x1b3c
     494:	00050793          	mv	a5,a0
     498:	00078593          	mv	a1,a5
     49c:	fdc42503          	lw	a0,-36(s0)
     4a0:	1c0010ef          	jal	ra,0x1660
     4a4:	00050793          	mv	a5,a0
     4a8:	fef42623          	sw	a5,-20(s0)
     4ac:	00000593          	li	a1,0
     4b0:	fec42503          	lw	a0,-20(s0)
     4b4:	515000ef          	jal	ra,0x11c8
     4b8:	00050793          	mv	a5,a0
     4bc:	00f05663          	blez	a5,0x4c8
     4c0:	fec42783          	lw	a5,-20(s0)
     4c4:	0100006f          	j	0x4d4
     4c8:	fec42703          	lw	a4,-20(s0)
     4cc:	800007b7          	lui	a5,0x80000
     4d0:	00f747b3          	xor	a5,a4,a5
     4d4:	fef42623          	sw	a5,-20(s0)
     4d8:	000027b7          	lui	a5,0x2
     4dc:	f7c7a583          	lw	a1,-132(a5) # 0x1f7c
     4e0:	fec42503          	lw	a0,-20(s0)
     4e4:	64d000ef          	jal	ra,0x1330
     4e8:	00050793          	mv	a5,a0
     4ec:	00078513          	mv	a0,a5
     4f0:	5dc010ef          	jal	ra,0x1acc
     4f4:	00050713          	mv	a4,a0
     4f8:	fd442783          	lw	a5,-44(s0)
     4fc:	00e7a023          	sw	a4,0(a5)
     500:	fec42583          	lw	a1,-20(s0)
     504:	fdc42503          	lw	a0,-36(s0)
     508:	158010ef          	jal	ra,0x1660
     50c:	00050793          	mv	a5,a0
     510:	00078513          	mv	a0,a5
     514:	5b8010ef          	jal	ra,0x1acc
     518:	00050713          	mv	a4,a0
     51c:	fd842783          	lw	a5,-40(s0)
     520:	00e7a023          	sw	a4,0(a5)
     524:	00000793          	li	a5,0
     528:	00078513          	mv	a0,a5
     52c:	02c12083          	lw	ra,44(sp)
     530:	02812403          	lw	s0,40(sp)
     534:	03010113          	addi	sp,sp,48
     538:	00008067          	ret
     53c:	fc010113          	addi	sp,sp,-64
     540:	02112e23          	sw	ra,60(sp)
     544:	02812c23          	sw	s0,56(sp)
     548:	04010413          	addi	s0,sp,64
     54c:	fca42623          	sw	a0,-52(s0)
     550:	fe840713          	addi	a4,s0,-24
     554:	fec40793          	addi	a5,s0,-20
     558:	00070613          	mv	a2,a4
     55c:	00078593          	mv	a1,a5
     560:	fcc42503          	lw	a0,-52(s0)
     564:	ee9ff0ef          	jal	ra,0x44c
     568:	fec42503          	lw	a0,-20(s0)
     56c:	fdc40713          	addi	a4,s0,-36
     570:	00000793          	li	a5,0
     574:	00000693          	li	a3,0
     578:	00000613          	li	a2,0
     57c:	00a00593          	li	a1,10
     580:	cb9ff0ef          	jal	ra,0x238
     584:	fe842503          	lw	a0,-24(s0)
     588:	fd040713          	addi	a4,s0,-48
     58c:	00000793          	li	a5,0
     590:	00000693          	li	a3,0
     594:	00000613          	li	a2,0
     598:	00a00593          	li	a1,10
     59c:	c9dff0ef          	jal	ra,0x238
     5a0:	fdc40793          	addi	a5,s0,-36
     5a4:	00078513          	mv	a0,a5
     5a8:	b05ff0ef          	jal	ra,0xac
     5ac:	02e00513          	li	a0,46
     5b0:	a99ff0ef          	jal	ra,0x48
     5b4:	fd040793          	addi	a5,s0,-48
     5b8:	00078513          	mv	a0,a5
     5bc:	af1ff0ef          	jal	ra,0xac
     5c0:	00000793          	li	a5,0
     5c4:	00078513          	mv	a0,a5
     5c8:	03c12083          	lw	ra,60(sp)
     5cc:	03812403          	lw	s0,56(sp)
     5d0:	04010113          	addi	sp,sp,64
     5d4:	00008067          	ret
     5d8:	fb010113          	addi	sp,sp,-80
     5dc:	04112623          	sw	ra,76(sp)
     5e0:	04812423          	sw	s0,72(sp)
     5e4:	05010413          	addi	s0,sp,80
     5e8:	faa42e23          	sw	a0,-68(s0)
     5ec:	fab42c23          	sw	a1,-72(s0)
     5f0:	fac42a23          	sw	a2,-76(s0)
     5f4:	fb842783          	lw	a5,-72(s0)
     5f8:	00178713          	addi	a4,a5,1
     5fc:	fae42c23          	sw	a4,-72(s0)
     600:	0007c783          	lbu	a5,0(a5)
     604:	fef407a3          	sb	a5,-17(s0)
     608:	fef44783          	lbu	a5,-17(s0)
     60c:	00f037b3          	snez	a5,a5
     610:	0ff7f793          	andi	a5,a5,255
     614:	22078a63          	beqz	a5,0x848
     618:	fef44703          	lbu	a4,-17(s0)
     61c:	02500793          	li	a5,37
     620:	00f70c63          	beq	a4,a5,0x638
     624:	fef44783          	lbu	a5,-17(s0)
     628:	fbc42583          	lw	a1,-68(s0)
     62c:	00078513          	mv	a0,a5
     630:	b19ff0ef          	jal	ra,0x148
     634:	fc1ff06f          	j	0x5f4
     638:	fe040723          	sb	zero,-18(s0)
     63c:	fb842783          	lw	a5,-72(s0)
     640:	00178713          	addi	a4,a5,1
     644:	fae42c23          	sw	a4,-72(s0)
     648:	0007c783          	lbu	a5,0(a5)
     64c:	fef407a3          	sb	a5,-17(s0)
     650:	fef44703          	lbu	a4,-17(s0)
     654:	03000793          	li	a5,48
     658:	04f71c63          	bne	a4,a5,0x6b0
     65c:	fb842783          	lw	a5,-72(s0)
     660:	00178713          	addi	a4,a5,1
     664:	fae42c23          	sw	a4,-72(s0)
     668:	0007c783          	lbu	a5,0(a5)
     66c:	fef407a3          	sb	a5,-17(s0)
     670:	fef44783          	lbu	a5,-17(s0)
     674:	1c078e63          	beqz	a5,0x850
     678:	fef44703          	lbu	a4,-17(s0)
     67c:	02f00793          	li	a5,47
     680:	00e7fe63          	bgeu	a5,a4,0x69c
     684:	fef44703          	lbu	a4,-17(s0)
     688:	03900793          	li	a5,57
     68c:	00e7e863          	bltu	a5,a4,0x69c
     690:	fef44783          	lbu	a5,-17(s0)
     694:	fd078793          	addi	a5,a5,-48
     698:	fef40723          	sb	a5,-18(s0)
     69c:	fb842783          	lw	a5,-72(s0)
     6a0:	00178713          	addi	a4,a5,1
     6a4:	fae42c23          	sw	a4,-72(s0)
     6a8:	0007c783          	lbu	a5,0(a5)
     6ac:	fef407a3          	sb	a5,-17(s0)
     6b0:	fef44783          	lbu	a5,-17(s0)
     6b4:	1a078263          	beqz	a5,0x858
     6b8:	1607cc63          	bltz	a5,0x830
     6bc:	07800713          	li	a4,120
     6c0:	16f74863          	blt	a4,a5,0x830
     6c4:	05800713          	li	a4,88
     6c8:	16e7c463          	blt	a5,a4,0x830
     6cc:	fa878793          	addi	a5,a5,-88
     6d0:	02000713          	li	a4,32
     6d4:	14f76e63          	bltu	a4,a5,0x830
     6d8:	00279713          	slli	a4,a5,0x2
     6dc:	000027b7          	lui	a5,0x2
     6e0:	ef878793          	addi	a5,a5,-264 # 0x1ef8
     6e4:	00f707b3          	add	a5,a4,a5
     6e8:	0007a783          	lw	a5,0(a5)
     6ec:	00078067          	jr	a5
     6f0:	fb442783          	lw	a5,-76(s0)
     6f4:	00478713          	addi	a4,a5,4
     6f8:	fae42a23          	sw	a4,-76(s0)
     6fc:	0007a783          	lw	a5,0(a5)
     700:	00078513          	mv	a0,a5
     704:	fef44783          	lbu	a5,-17(s0)
     708:	f8b78793          	addi	a5,a5,-117
     70c:	0017b793          	seqz	a5,a5
     710:	0ff7f793          	andi	a5,a5,255
     714:	00078693          	mv	a3,a5
     718:	fee44783          	lbu	a5,-18(s0)
     71c:	fcc40713          	addi	a4,s0,-52
     720:	00000613          	li	a2,0
     724:	00a00593          	li	a1,10
     728:	b11ff0ef          	jal	ra,0x238
     72c:	fea42223          	sw	a0,-28(s0)
     730:	fcc40793          	addi	a5,s0,-52
     734:	fbc42603          	lw	a2,-68(s0)
     738:	fe442583          	lw	a1,-28(s0)
     73c:	00078513          	mv	a0,a5
     740:	a3dff0ef          	jal	ra,0x17c
     744:	1000006f          	j	0x844
     748:	fb442783          	lw	a5,-76(s0)
     74c:	00478713          	addi	a4,a5,4
     750:	fae42a23          	sw	a4,-76(s0)
     754:	0007a783          	lw	a5,0(a5)
     758:	00078513          	mv	a0,a5
     75c:	fef44783          	lbu	a5,-17(s0)
     760:	fa878793          	addi	a5,a5,-88
     764:	0017b793          	seqz	a5,a5
     768:	0ff7f793          	andi	a5,a5,255
     76c:	00078613          	mv	a2,a5
     770:	fee44783          	lbu	a5,-18(s0)
     774:	fcc40713          	addi	a4,s0,-52
     778:	00100693          	li	a3,1
     77c:	01000593          	li	a1,16
     780:	ab9ff0ef          	jal	ra,0x238
     784:	fea42223          	sw	a0,-28(s0)
     788:	fcc40793          	addi	a5,s0,-52
     78c:	fbc42603          	lw	a2,-68(s0)
     790:	fe442583          	lw	a1,-28(s0)
     794:	00078513          	mv	a0,a5
     798:	9e5ff0ef          	jal	ra,0x17c
     79c:	0a80006f          	j	0x844
     7a0:	fb442783          	lw	a5,-76(s0)
     7a4:	00478713          	addi	a4,a5,4
     7a8:	fae42a23          	sw	a4,-76(s0)
     7ac:	0007a783          	lw	a5,0(a5)
     7b0:	0ff7f793          	andi	a5,a5,255
     7b4:	fbc42583          	lw	a1,-68(s0)
     7b8:	00078513          	mv	a0,a5
     7bc:	98dff0ef          	jal	ra,0x148
     7c0:	0840006f          	j	0x844
     7c4:	fb442783          	lw	a5,-76(s0)
     7c8:	00478713          	addi	a4,a5,4
     7cc:	fae42a23          	sw	a4,-76(s0)
     7d0:	0007a783          	lw	a5,0(a5)
     7d4:	fef42423          	sw	a5,-24(s0)
     7d8:	fe842503          	lw	a0,-24(s0)
     7dc:	a11ff0ef          	jal	ra,0x1ec
     7e0:	00050793          	mv	a5,a0
     7e4:	fbc42603          	lw	a2,-68(s0)
     7e8:	00078593          	mv	a1,a5
     7ec:	fe842503          	lw	a0,-24(s0)
     7f0:	98dff0ef          	jal	ra,0x17c
     7f4:	0500006f          	j	0x844
     7f8:	fb442783          	lw	a5,-76(s0)
     7fc:	00778793          	addi	a5,a5,7
     800:	ff87f793          	andi	a5,a5,-8
     804:	00878713          	addi	a4,a5,8
     808:	fae42a23          	sw	a4,-76(s0)
     80c:	0007a703          	lw	a4,0(a5)
     810:	0047a783          	lw	a5,4(a5)
     814:	00070513          	mv	a0,a4
     818:	00078593          	mv	a1,a5
     81c:	428010ef          	jal	ra,0x1c44
     820:	00050793          	mv	a5,a0
     824:	00078513          	mv	a0,a5
     828:	d15ff0ef          	jal	ra,0x53c
     82c:	0180006f          	j	0x844
     830:	fef44783          	lbu	a5,-17(s0)
     834:	fbc42583          	lw	a1,-68(s0)
     838:	00078513          	mv	a0,a5
     83c:	90dff0ef          	jal	ra,0x148
     840:	00000013          	nop
     844:	db1ff06f          	j	0x5f4
     848:	00000013          	nop
     84c:	0100006f          	j	0x85c
     850:	00000013          	nop
     854:	0080006f          	j	0x85c
     858:	00000013          	nop
     85c:	00000793          	li	a5,0
     860:	00078513          	mv	a0,a5
     864:	04c12083          	lw	ra,76(sp)
     868:	04812403          	lw	s0,72(sp)
     86c:	05010113          	addi	sp,sp,80
     870:	00008067          	ret
     874:	fb010113          	addi	sp,sp,-80
     878:	02112623          	sw	ra,44(sp)
     87c:	02812423          	sw	s0,40(sp)
     880:	03010413          	addi	s0,sp,48
     884:	fca42e23          	sw	a0,-36(s0)
     888:	fcb42c23          	sw	a1,-40(s0)
     88c:	00c42423          	sw	a2,8(s0)
     890:	00d42623          	sw	a3,12(s0)
     894:	00e42823          	sw	a4,16(s0)
     898:	00f42a23          	sw	a5,20(s0)
     89c:	01042c23          	sw	a6,24(s0)
     8a0:	01142e23          	sw	a7,28(s0)
     8a4:	02040793          	addi	a5,s0,32
     8a8:	fcf42a23          	sw	a5,-44(s0)
     8ac:	fd442783          	lw	a5,-44(s0)
     8b0:	fe878793          	addi	a5,a5,-24
     8b4:	fef42423          	sw	a5,-24(s0)
     8b8:	fe842783          	lw	a5,-24(s0)
     8bc:	00078613          	mv	a2,a5
     8c0:	fd842583          	lw	a1,-40(s0)
     8c4:	fdc42503          	lw	a0,-36(s0)
     8c8:	d11ff0ef          	jal	ra,0x5d8
     8cc:	fea42623          	sw	a0,-20(s0)
     8d0:	fec42783          	lw	a5,-20(s0)
     8d4:	00078513          	mv	a0,a5
     8d8:	02c12083          	lw	ra,44(sp)
     8dc:	02812403          	lw	s0,40(sp)
     8e0:	05010113          	addi	sp,sp,80
     8e4:	00008067          	ret
     8e8:	fb010113          	addi	sp,sp,-80
     8ec:	02112623          	sw	ra,44(sp)
     8f0:	02812423          	sw	s0,40(sp)
     8f4:	03010413          	addi	s0,sp,48
     8f8:	fca42e23          	sw	a0,-36(s0)
     8fc:	00b42223          	sw	a1,4(s0)
     900:	00c42423          	sw	a2,8(s0)
     904:	00d42623          	sw	a3,12(s0)
     908:	00e42823          	sw	a4,16(s0)
     90c:	00f42a23          	sw	a5,20(s0)
     910:	01042c23          	sw	a6,24(s0)
     914:	01142e23          	sw	a7,28(s0)
     918:	02040793          	addi	a5,s0,32
     91c:	fcf42c23          	sw	a5,-40(s0)
     920:	fd842783          	lw	a5,-40(s0)
     924:	fe478793          	addi	a5,a5,-28
     928:	fef42423          	sw	a5,-24(s0)
     92c:	fe842783          	lw	a5,-24(s0)
     930:	00078613          	mv	a2,a5
     934:	fdc42583          	lw	a1,-36(s0)
     938:	000107b7          	lui	a5,0x10
     93c:	00478513          	addi	a0,a5,4 # 0x10004
     940:	c99ff0ef          	jal	ra,0x5d8
     944:	fea42623          	sw	a0,-20(s0)
     948:	fec42783          	lw	a5,-20(s0)
     94c:	00078513          	mv	a0,a5
     950:	02c12083          	lw	ra,44(sp)
     954:	02812403          	lw	s0,40(sp)
     958:	05010113          	addi	sp,sp,80
     95c:	00008067          	ret
     960:	fe010113          	addi	sp,sp,-32
     964:	00112e23          	sw	ra,28(sp)
     968:	00812c23          	sw	s0,24(sp)
     96c:	02010413          	addi	s0,sp,32
     970:	fea42623          	sw	a0,-20(s0)
     974:	feb42423          	sw	a1,-24(s0)
     978:	fe842583          	lw	a1,-24(s0)
     97c:	fec42503          	lw	a0,-20(s0)
     980:	1b1000ef          	jal	ra,0x1330
     984:	00050793          	mv	a5,a0
     988:	00078513          	mv	a0,a5
     98c:	01c12083          	lw	ra,28(sp)
     990:	01812403          	lw	s0,24(sp)
     994:	02010113          	addi	sp,sp,32
     998:	00008067          	ret
     99c:	fd010113          	addi	sp,sp,-48
     9a0:	02112623          	sw	ra,44(sp)
     9a4:	02812423          	sw	s0,40(sp)
     9a8:	03010413          	addi	s0,sp,48
     9ac:	fca42e23          	sw	a0,-36(s0)
     9b0:	fcb42c23          	sw	a1,-40(s0)
     9b4:	fcc42a23          	sw	a2,-44(s0)
     9b8:	fe042623          	sw	zero,-20(s0)
     9bc:	fec42703          	lw	a4,-20(s0)
     9c0:	fdc42783          	lw	a5,-36(s0)
     9c4:	08f75c63          	bge	a4,a5,0xa5c
     9c8:	fec42783          	lw	a5,-20(s0)
     9cc:	00279793          	slli	a5,a5,0x2
     9d0:	fd842703          	lw	a4,-40(s0)
     9d4:	00f707b3          	add	a5,a4,a5
     9d8:	0007a683          	lw	a3,0(a5)
     9dc:	fec42783          	lw	a5,-20(s0)
     9e0:	00279793          	slli	a5,a5,0x2
     9e4:	fd442703          	lw	a4,-44(s0)
     9e8:	00f707b3          	add	a5,a4,a5
     9ec:	0007a783          	lw	a5,0(a5)
     9f0:	00078593          	mv	a1,a5
     9f4:	00068513          	mv	a0,a3
     9f8:	469000ef          	jal	ra,0x1660
     9fc:	00050793          	mv	a5,a0
     a00:	fef42423          	sw	a5,-24(s0)
     a04:	000027b7          	lui	a5,0x2
     a08:	fa87a583          	lw	a1,-88(a5) # 0x1fa8
     a0c:	fe842503          	lw	a0,-24(s0)
     a10:	7b8000ef          	jal	ra,0x11c8
     a14:	00050793          	mv	a5,a0
     a18:	00f04e63          	bgtz	a5,0xa34
     a1c:	000027b7          	lui	a5,0x2
     a20:	fac7a583          	lw	a1,-84(a5) # 0x1fac
     a24:	fe842503          	lw	a0,-24(s0)
     a28:	055000ef          	jal	ra,0x127c
     a2c:	00050793          	mv	a5,a0
     a30:	0007de63          	bgez	a5,0xa4c
     a34:	fec42583          	lw	a1,-20(s0)
     a38:	000027b7          	lui	a5,0x2
     a3c:	f8078513          	addi	a0,a5,-128 # 0x1f80
     a40:	ea9ff0ef          	jal	ra,0x8e8
     a44:	00100793          	li	a5,1
     a48:	0180006f          	j	0xa60
     a4c:	fec42783          	lw	a5,-20(s0)
     a50:	00178793          	addi	a5,a5,1
     a54:	fef42623          	sw	a5,-20(s0)
     a58:	f65ff06f          	j	0x9bc
     a5c:	00000793          	li	a5,0
     a60:	00078513          	mv	a0,a5
     a64:	02c12083          	lw	ra,44(sp)
     a68:	02812403          	lw	s0,40(sp)
     a6c:	03010113          	addi	sp,sp,48
     a70:	00008067          	ret
     a74:	fd010113          	addi	sp,sp,-48
     a78:	02112623          	sw	ra,44(sp)
     a7c:	02812423          	sw	s0,40(sp)
     a80:	03010413          	addi	s0,sp,48
     a84:	000027b7          	lui	a5,0x2
     a88:	fb07a703          	lw	a4,-80(a5) # 0x1fb0
     a8c:	fb47a783          	lw	a5,-76(a5)
     a90:	fee42423          	sw	a4,-24(s0)
     a94:	fef42623          	sw	a5,-20(s0)
     a98:	000027b7          	lui	a5,0x2
     a9c:	fb87a703          	lw	a4,-72(a5) # 0x1fb8
     aa0:	fbc7a783          	lw	a5,-68(a5)
     aa4:	fee42023          	sw	a4,-32(s0)
     aa8:	fef42223          	sw	a5,-28(s0)
     aac:	fe042603          	lw	a2,-32(s0)
     ab0:	fe442683          	lw	a3,-28(s0)
     ab4:	fe842503          	lw	a0,-24(s0)
     ab8:	fec42583          	lw	a1,-20(s0)
     abc:	084000ef          	jal	ra,0xb40
     ac0:	00050713          	mv	a4,a0
     ac4:	00058793          	mv	a5,a1
     ac8:	fce42c23          	sw	a4,-40(s0)
     acc:	fcf42e23          	sw	a5,-36(s0)
     ad0:	fd842503          	lw	a0,-40(s0)
     ad4:	fdc42583          	lw	a1,-36(s0)
     ad8:	16c010ef          	jal	ra,0x1c44
     adc:	00050693          	mv	a3,a0
     ae0:	fd040713          	addi	a4,s0,-48
     ae4:	fd440793          	addi	a5,s0,-44
     ae8:	00070613          	mv	a2,a4
     aec:	00078593          	mv	a1,a5
     af0:	00068513          	mv	a0,a3
     af4:	959ff0ef          	jal	ra,0x44c
     af8:	fd442783          	lw	a5,-44(s0)
     afc:	fd042703          	lw	a4,-48(s0)
     b00:	00070613          	mv	a2,a4
     b04:	00078593          	mv	a1,a5
     b08:	000027b7          	lui	a5,0x2
     b0c:	f9078513          	addi	a0,a5,-112 # 0x1f90
     b10:	dd9ff0ef          	jal	ra,0x8e8
     b14:	fd842603          	lw	a2,-40(s0)
     b18:	fdc42683          	lw	a3,-36(s0)
     b1c:	000027b7          	lui	a5,0x2
     b20:	f9c78513          	addi	a0,a5,-100 # 0x1f9c
     b24:	dc5ff0ef          	jal	ra,0x8e8
     b28:	00000793          	li	a5,0
     b2c:	00078513          	mv	a0,a5
     b30:	02c12083          	lw	ra,44(sp)
     b34:	02812403          	lw	s0,40(sp)
     b38:	03010113          	addi	sp,sp,48
     b3c:	00008067          	ret
     b40:	fd010113          	addi	sp,sp,-48
     b44:	01312e23          	sw	s3,28(sp)
     b48:	0145d993          	srli	s3,a1,0x14
     b4c:	02812423          	sw	s0,40(sp)
     b50:	02912223          	sw	s1,36(sp)
     b54:	01412c23          	sw	s4,24(sp)
     b58:	01512a23          	sw	s5,20(sp)
     b5c:	01712623          	sw	s7,12(sp)
     b60:	00c59493          	slli	s1,a1,0xc
     b64:	02112623          	sw	ra,44(sp)
     b68:	03212023          	sw	s2,32(sp)
     b6c:	01612823          	sw	s6,16(sp)
     b70:	7ff9f993          	andi	s3,s3,2047
     b74:	00050413          	mv	s0,a0
     b78:	00060b93          	mv	s7,a2
     b7c:	00068a93          	mv	s5,a3
     b80:	00c4d493          	srli	s1,s1,0xc
     b84:	01f5da13          	srli	s4,a1,0x1f
     b88:	0a098263          	beqz	s3,0xc2c
     b8c:	7ff00793          	li	a5,2047
     b90:	10f98063          	beq	s3,a5,0xc90
     b94:	01d55793          	srli	a5,a0,0x1d
     b98:	00349493          	slli	s1,s1,0x3
     b9c:	0097e4b3          	or	s1,a5,s1
     ba0:	008007b7          	lui	a5,0x800
     ba4:	00f4e4b3          	or	s1,s1,a5
     ba8:	00351913          	slli	s2,a0,0x3
     bac:	c0198993          	addi	s3,s3,-1023
     bb0:	00000b13          	li	s6,0
     bb4:	014ad513          	srli	a0,s5,0x14
     bb8:	00ca9413          	slli	s0,s5,0xc
     bbc:	7ff57513          	andi	a0,a0,2047
     bc0:	00c45413          	srli	s0,s0,0xc
     bc4:	01fada93          	srli	s5,s5,0x1f
     bc8:	10050063          	beqz	a0,0xcc8
     bcc:	7ff00793          	li	a5,2047
     bd0:	16f50063          	beq	a0,a5,0xd30
     bd4:	01dbd793          	srli	a5,s7,0x1d
     bd8:	00341413          	slli	s0,s0,0x3
     bdc:	0087e433          	or	s0,a5,s0
     be0:	008007b7          	lui	a5,0x800
     be4:	00f46433          	or	s0,s0,a5
     be8:	c0150513          	addi	a0,a0,-1023
     bec:	003b9793          	slli	a5,s7,0x3
     bf0:	00000713          	li	a4,0
     bf4:	002b1693          	slli	a3,s6,0x2
     bf8:	00e6e6b3          	or	a3,a3,a4
     bfc:	00a989b3          	add	s3,s3,a0
     c00:	fff68693          	addi	a3,a3,-1
     c04:	00e00613          	li	a2,14
     c08:	015a4833          	xor	a6,s4,s5
     c0c:	00198893          	addi	a7,s3,1
     c10:	14d66c63          	bltu	a2,a3,0xd68
     c14:	00002637          	lui	a2,0x2
     c18:	00269693          	slli	a3,a3,0x2
     c1c:	fc060613          	addi	a2,a2,-64 # 0x1fc0
     c20:	00c686b3          	add	a3,a3,a2
     c24:	0006a683          	lw	a3,0(a3)
     c28:	00068067          	jr	a3
     c2c:	00a4e933          	or	s2,s1,a0
     c30:	06090c63          	beqz	s2,0xca8
     c34:	04048063          	beqz	s1,0xc74
     c38:	00048513          	mv	a0,s1
     c3c:	264010ef          	jal	ra,0x1ea0
     c40:	ff550713          	addi	a4,a0,-11
     c44:	01c00793          	li	a5,28
     c48:	02e7cc63          	blt	a5,a4,0xc80
     c4c:	01d00793          	li	a5,29
     c50:	ff850913          	addi	s2,a0,-8
     c54:	40e787b3          	sub	a5,a5,a4
     c58:	012494b3          	sll	s1,s1,s2
     c5c:	00f457b3          	srl	a5,s0,a5
     c60:	0097e4b3          	or	s1,a5,s1
     c64:	01241933          	sll	s2,s0,s2
     c68:	c0d00993          	li	s3,-1011
     c6c:	40a989b3          	sub	s3,s3,a0
     c70:	f41ff06f          	j	0xbb0
     c74:	22c010ef          	jal	ra,0x1ea0
     c78:	02050513          	addi	a0,a0,32
     c7c:	fc5ff06f          	j	0xc40
     c80:	fd850493          	addi	s1,a0,-40
     c84:	009414b3          	sll	s1,s0,s1
     c88:	00000913          	li	s2,0
     c8c:	fddff06f          	j	0xc68
     c90:	00a4e933          	or	s2,s1,a0
     c94:	02090263          	beqz	s2,0xcb8
     c98:	00050913          	mv	s2,a0
     c9c:	7ff00993          	li	s3,2047
     ca0:	00300b13          	li	s6,3
     ca4:	f11ff06f          	j	0xbb4
     ca8:	00000493          	li	s1,0
     cac:	00000993          	li	s3,0
     cb0:	00100b13          	li	s6,1
     cb4:	f01ff06f          	j	0xbb4
     cb8:	00000493          	li	s1,0
     cbc:	7ff00993          	li	s3,2047
     cc0:	00200b13          	li	s6,2
     cc4:	ef1ff06f          	j	0xbb4
     cc8:	017467b3          	or	a5,s0,s7
     ccc:	06078e63          	beqz	a5,0xd48
     cd0:	04040063          	beqz	s0,0xd10
     cd4:	00040513          	mv	a0,s0
     cd8:	1c8010ef          	jal	ra,0x1ea0
     cdc:	ff550693          	addi	a3,a0,-11
     ce0:	01c00793          	li	a5,28
     ce4:	02d7ce63          	blt	a5,a3,0xd20
     ce8:	01d00713          	li	a4,29
     cec:	ff850793          	addi	a5,a0,-8
     cf0:	40d70733          	sub	a4,a4,a3
     cf4:	00f41433          	sll	s0,s0,a5
     cf8:	00ebd733          	srl	a4,s7,a4
     cfc:	00876433          	or	s0,a4,s0
     d00:	00fb97b3          	sll	a5,s7,a5
     d04:	c0d00713          	li	a4,-1011
     d08:	40a70533          	sub	a0,a4,a0
     d0c:	ee5ff06f          	j	0xbf0
     d10:	000b8513          	mv	a0,s7
     d14:	18c010ef          	jal	ra,0x1ea0
     d18:	02050513          	addi	a0,a0,32
     d1c:	fc1ff06f          	j	0xcdc
     d20:	fd850413          	addi	s0,a0,-40
     d24:	008b9433          	sll	s0,s7,s0
     d28:	00000793          	li	a5,0
     d2c:	fd9ff06f          	j	0xd04
     d30:	017467b3          	or	a5,s0,s7
     d34:	02078263          	beqz	a5,0xd58
     d38:	000b8793          	mv	a5,s7
     d3c:	7ff00513          	li	a0,2047
     d40:	00300713          	li	a4,3
     d44:	eb1ff06f          	j	0xbf4
     d48:	00000413          	li	s0,0
     d4c:	00000513          	li	a0,0
     d50:	00100713          	li	a4,1
     d54:	ea1ff06f          	j	0xbf4
     d58:	00000413          	li	s0,0
     d5c:	7ff00513          	li	a0,2047
     d60:	00200713          	li	a4,2
     d64:	e91ff06f          	j	0xbf4
     d68:	00010ab7          	lui	s5,0x10
     d6c:	fffa8e93          	addi	t4,s5,-1 # 0xffff
     d70:	01095f93          	srli	t6,s2,0x10
     d74:	01d7fa33          	and	s4,a5,t4
     d78:	01d97933          	and	s2,s2,t4
     d7c:	0107d293          	srli	t0,a5,0x10
     d80:	00090513          	mv	a0,s2
     d84:	000a0593          	mv	a1,s4
     d88:	040010ef          	jal	ra,0x1dc8
     d8c:	00050393          	mv	t2,a0
     d90:	00028593          	mv	a1,t0
     d94:	00090513          	mv	a0,s2
     d98:	030010ef          	jal	ra,0x1dc8
     d9c:	00050313          	mv	t1,a0
     da0:	000a0593          	mv	a1,s4
     da4:	000f8513          	mv	a0,t6
     da8:	020010ef          	jal	ra,0x1dc8
     dac:	00050e13          	mv	t3,a0
     db0:	00028593          	mv	a1,t0
     db4:	000f8513          	mv	a0,t6
     db8:	010010ef          	jal	ra,0x1dc8
     dbc:	0103d713          	srli	a4,t2,0x10
     dc0:	01c30333          	add	t1,t1,t3
     dc4:	00670733          	add	a4,a4,t1
     dc8:	00050f13          	mv	t5,a0
     dcc:	01c77463          	bgeu	a4,t3,0xdd4
     dd0:	01550f33          	add	t5,a0,s5
     dd4:	01d77e33          	and	t3,a4,t4
     dd8:	01d3f3b3          	and	t2,t2,t4
     ddc:	010e1e13          	slli	t3,t3,0x10
     de0:	007e0e33          	add	t3,t3,t2
     de4:	01045393          	srli	t2,s0,0x10
     de8:	01d47433          	and	s0,s0,t4
     dec:	01075a93          	srli	s5,a4,0x10
     df0:	00090513          	mv	a0,s2
     df4:	00040593          	mv	a1,s0
     df8:	7d1000ef          	jal	ra,0x1dc8
     dfc:	00050e93          	mv	t4,a0
     e00:	00038593          	mv	a1,t2
     e04:	00090513          	mv	a0,s2
     e08:	7c1000ef          	jal	ra,0x1dc8
     e0c:	00050793          	mv	a5,a0
     e10:	00040593          	mv	a1,s0
     e14:	000f8513          	mv	a0,t6
     e18:	7b1000ef          	jal	ra,0x1dc8
     e1c:	00050313          	mv	t1,a0
     e20:	00038593          	mv	a1,t2
     e24:	000f8513          	mv	a0,t6
     e28:	7a1000ef          	jal	ra,0x1dc8
     e2c:	010ed693          	srli	a3,t4,0x10
     e30:	006787b3          	add	a5,a5,t1
     e34:	00f686b3          	add	a3,a3,a5
     e38:	00050713          	mv	a4,a0
     e3c:	0066f663          	bgeu	a3,t1,0xe48
     e40:	000107b7          	lui	a5,0x10
     e44:	00f50733          	add	a4,a0,a5
     e48:	00010937          	lui	s2,0x10
     e4c:	fff90793          	addi	a5,s2,-1 # 0xffff
     e50:	0106df93          	srli	t6,a3,0x10
     e54:	00f6f6b3          	and	a3,a3,a5
     e58:	01069693          	slli	a3,a3,0x10
     e5c:	00fefeb3          	and	t4,t4,a5
     e60:	01d68eb3          	add	t4,a3,t4
     e64:	0104db13          	srli	s6,s1,0x10
     e68:	00f4f4b3          	and	s1,s1,a5
     e6c:	00ef8fb3          	add	t6,t6,a4
     e70:	01da8ab3          	add	s5,s5,t4
     e74:	00048513          	mv	a0,s1
     e78:	000a0593          	mv	a1,s4
     e7c:	74d000ef          	jal	ra,0x1dc8
     e80:	00050713          	mv	a4,a0
     e84:	00028593          	mv	a1,t0
     e88:	00048513          	mv	a0,s1
     e8c:	73d000ef          	jal	ra,0x1dc8
     e90:	00050313          	mv	t1,a0
     e94:	000a0593          	mv	a1,s4
     e98:	000b0513          	mv	a0,s6
     e9c:	72d000ef          	jal	ra,0x1dc8
     ea0:	00050a13          	mv	s4,a0
     ea4:	00028593          	mv	a1,t0
     ea8:	000b0513          	mv	a0,s6
     eac:	71d000ef          	jal	ra,0x1dc8
     eb0:	01075793          	srli	a5,a4,0x10
     eb4:	01430333          	add	t1,t1,s4
     eb8:	006787b3          	add	a5,a5,t1
     ebc:	00050613          	mv	a2,a0
     ec0:	0147f463          	bgeu	a5,s4,0xec8
     ec4:	01250633          	add	a2,a0,s2
     ec8:	00010a37          	lui	s4,0x10
     ecc:	fffa0513          	addi	a0,s4,-1 # 0xffff
     ed0:	00a7f333          	and	t1,a5,a0
     ed4:	00a77733          	and	a4,a4,a0
     ed8:	0107d293          	srli	t0,a5,0x10
     edc:	01031313          	slli	t1,t1,0x10
     ee0:	00c282b3          	add	t0,t0,a2
     ee4:	00e30333          	add	t1,t1,a4
     ee8:	00048513          	mv	a0,s1
     eec:	00040593          	mv	a1,s0
     ef0:	6d9000ef          	jal	ra,0x1dc8
     ef4:	00050913          	mv	s2,a0
     ef8:	00038593          	mv	a1,t2
     efc:	00048513          	mv	a0,s1
     f00:	6c9000ef          	jal	ra,0x1dc8
     f04:	00050793          	mv	a5,a0
     f08:	00040593          	mv	a1,s0
     f0c:	000b0513          	mv	a0,s6
     f10:	6b9000ef          	jal	ra,0x1dc8
     f14:	00050493          	mv	s1,a0
     f18:	00038593          	mv	a1,t2
     f1c:	000b0513          	mv	a0,s6
     f20:	6a9000ef          	jal	ra,0x1dc8
     f24:	01095413          	srli	s0,s2,0x10
     f28:	009787b3          	add	a5,a5,s1
     f2c:	00f407b3          	add	a5,s0,a5
     f30:	00050393          	mv	t2,a0
     f34:	0097f463          	bgeu	a5,s1,0xf3c
     f38:	014503b3          	add	t2,a0,s4
     f3c:	00010737          	lui	a4,0x10
     f40:	fff70713          	addi	a4,a4,-1 # 0xffff
     f44:	00e7f6b3          	and	a3,a5,a4
     f48:	01069693          	slli	a3,a3,0x10
     f4c:	00e97733          	and	a4,s2,a4
     f50:	015f0f33          	add	t5,t5,s5
     f54:	00e686b3          	add	a3,a3,a4
     f58:	01df3eb3          	sltu	t4,t5,t4
     f5c:	01f68733          	add	a4,a3,t6
     f60:	01d70433          	add	s0,a4,t4
     f64:	006f0f33          	add	t5,t5,t1
     f68:	006f3333          	sltu	t1,t5,t1
     f6c:	00540633          	add	a2,s0,t0
     f70:	006605b3          	add	a1,a2,t1
     f74:	01d43eb3          	sltu	t4,s0,t4
     f78:	01f73733          	sltu	a4,a4,t6
     f7c:	0107d413          	srli	s0,a5,0x10
     f80:	01d76733          	or	a4,a4,t4
     f84:	00563633          	sltu	a2,a2,t0
     f88:	0065b333          	sltu	t1,a1,t1
     f8c:	00870733          	add	a4,a4,s0
     f90:	00666333          	or	t1,a2,t1
     f94:	00670433          	add	s0,a4,t1
     f98:	00740433          	add	s0,s0,t2
     f9c:	0175d793          	srli	a5,a1,0x17
     fa0:	00941413          	slli	s0,s0,0x9
     fa4:	00f46433          	or	s0,s0,a5
     fa8:	009f1793          	slli	a5,t5,0x9
     fac:	01c7e7b3          	or	a5,a5,t3
     fb0:	00f037b3          	snez	a5,a5
     fb4:	017f5f13          	srli	t5,t5,0x17
     fb8:	00959713          	slli	a4,a1,0x9
     fbc:	01e7e7b3          	or	a5,a5,t5
     fc0:	00e7e7b3          	or	a5,a5,a4
     fc4:	01000737          	lui	a4,0x1000
     fc8:	00e47733          	and	a4,s0,a4
     fcc:	10070663          	beqz	a4,0x10d8
     fd0:	0017d713          	srli	a4,a5,0x1
     fd4:	0017f793          	andi	a5,a5,1
     fd8:	00f767b3          	or	a5,a4,a5
     fdc:	01f41713          	slli	a4,s0,0x1f
     fe0:	00e7e7b3          	or	a5,a5,a4
     fe4:	00145413          	srli	s0,s0,0x1
     fe8:	3ff88693          	addi	a3,a7,1023
     fec:	0ed05a63          	blez	a3,0x10e0
     ff0:	0077f713          	andi	a4,a5,7
     ff4:	02070063          	beqz	a4,0x1014
     ff8:	00f7f713          	andi	a4,a5,15
     ffc:	00400613          	li	a2,4
    1000:	00c70a63          	beq	a4,a2,0x1014
    1004:	00478713          	addi	a4,a5,4 # 0x10004
    1008:	00f737b3          	sltu	a5,a4,a5
    100c:	00f40433          	add	s0,s0,a5
    1010:	00070793          	mv	a5,a4
    1014:	01000737          	lui	a4,0x1000
    1018:	00e47733          	and	a4,s0,a4
    101c:	00070a63          	beqz	a4,0x1030
    1020:	ff000737          	lui	a4,0xff000
    1024:	fff70713          	addi	a4,a4,-1 # 0xfffffffffeffffff
    1028:	00e47433          	and	s0,s0,a4
    102c:	40088693          	addi	a3,a7,1024
    1030:	7fe00713          	li	a4,2046
    1034:	16d74a63          	blt	a4,a3,0x11a8
    1038:	0037d713          	srli	a4,a5,0x3
    103c:	01d41793          	slli	a5,s0,0x1d
    1040:	00e7e7b3          	or	a5,a5,a4
    1044:	00345413          	srli	s0,s0,0x3
    1048:	01469713          	slli	a4,a3,0x14
    104c:	00c41413          	slli	s0,s0,0xc
    1050:	7ff006b7          	lui	a3,0x7ff00
    1054:	00d77733          	and	a4,a4,a3
    1058:	00c45413          	srli	s0,s0,0xc
    105c:	00876433          	or	s0,a4,s0
    1060:	01f81813          	slli	a6,a6,0x1f
    1064:	02c12083          	lw	ra,44(sp)
    1068:	01046733          	or	a4,s0,a6
    106c:	02812403          	lw	s0,40(sp)
    1070:	02412483          	lw	s1,36(sp)
    1074:	02012903          	lw	s2,32(sp)
    1078:	01c12983          	lw	s3,28(sp)
    107c:	01812a03          	lw	s4,24(sp)
    1080:	01412a83          	lw	s5,20(sp)
    1084:	01012b03          	lw	s6,16(sp)
    1088:	00c12b83          	lw	s7,12(sp)
    108c:	00078513          	mv	a0,a5
    1090:	00070593          	mv	a1,a4
    1094:	03010113          	addi	sp,sp,48
    1098:	00008067          	ret
    109c:	000a0813          	mv	a6,s4
    10a0:	00048413          	mv	s0,s1
    10a4:	00090793          	mv	a5,s2
    10a8:	000b0713          	mv	a4,s6
    10ac:	00200693          	li	a3,2
    10b0:	0ed70c63          	beq	a4,a3,0x11a8
    10b4:	00300693          	li	a3,3
    10b8:	0cd70e63          	beq	a4,a3,0x1194
    10bc:	00100693          	li	a3,1
    10c0:	f2d714e3          	bne	a4,a3,0xfe8
    10c4:	00000413          	li	s0,0
    10c8:	00000793          	li	a5,0
    10cc:	08c0006f          	j	0x1158
    10d0:	000a8813          	mv	a6,s5
    10d4:	fd9ff06f          	j	0x10ac
    10d8:	00098893          	mv	a7,s3
    10dc:	f0dff06f          	j	0xfe8
    10e0:	00100613          	li	a2,1
    10e4:	40d60633          	sub	a2,a2,a3
    10e8:	03800713          	li	a4,56
    10ec:	fcc74ce3          	blt	a4,a2,0x10c4
    10f0:	01f00713          	li	a4,31
    10f4:	06c74663          	blt	a4,a2,0x1160
    10f8:	41e88893          	addi	a7,a7,1054
    10fc:	01141733          	sll	a4,s0,a7
    1100:	00c7d6b3          	srl	a3,a5,a2
    1104:	011797b3          	sll	a5,a5,a7
    1108:	00d76733          	or	a4,a4,a3
    110c:	00f037b3          	snez	a5,a5
    1110:	00f767b3          	or	a5,a4,a5
    1114:	00c45433          	srl	s0,s0,a2
    1118:	0077f713          	andi	a4,a5,7
    111c:	02070063          	beqz	a4,0x113c
    1120:	00f7f713          	andi	a4,a5,15
    1124:	00400693          	li	a3,4
    1128:	00d70a63          	beq	a4,a3,0x113c
    112c:	00478713          	addi	a4,a5,4
    1130:	00f737b3          	sltu	a5,a4,a5
    1134:	00f40433          	add	s0,s0,a5
    1138:	00070793          	mv	a5,a4
    113c:	00800737          	lui	a4,0x800
    1140:	00e47733          	and	a4,s0,a4
    1144:	06071a63          	bnez	a4,0x11b8
    1148:	01d41713          	slli	a4,s0,0x1d
    114c:	0037d793          	srli	a5,a5,0x3
    1150:	00f767b3          	or	a5,a4,a5
    1154:	00345413          	srli	s0,s0,0x3
    1158:	00000693          	li	a3,0
    115c:	eedff06f          	j	0x1048
    1160:	fe100713          	li	a4,-31
    1164:	40d70733          	sub	a4,a4,a3
    1168:	02000593          	li	a1,32
    116c:	00e45733          	srl	a4,s0,a4
    1170:	00000693          	li	a3,0
    1174:	00b60663          	beq	a2,a1,0x1180
    1178:	43e88893          	addi	a7,a7,1086
    117c:	011416b3          	sll	a3,s0,a7
    1180:	00f6e7b3          	or	a5,a3,a5
    1184:	00f037b3          	snez	a5,a5
    1188:	00f767b3          	or	a5,a4,a5
    118c:	00000413          	li	s0,0
    1190:	f89ff06f          	j	0x1118
    1194:	00080437          	lui	s0,0x80
    1198:	00000793          	li	a5,0
    119c:	7ff00693          	li	a3,2047
    11a0:	00000813          	li	a6,0
    11a4:	ea5ff06f          	j	0x1048
    11a8:	00000413          	li	s0,0
    11ac:	00000793          	li	a5,0
    11b0:	7ff00693          	li	a3,2047
    11b4:	e95ff06f          	j	0x1048
    11b8:	00000413          	li	s0,0
    11bc:	00000793          	li	a5,0
    11c0:	00100693          	li	a3,1
    11c4:	e85ff06f          	j	0x1048
    11c8:	01755693          	srli	a3,a0,0x17
    11cc:	008007b7          	lui	a5,0x800
    11d0:	fff78793          	addi	a5,a5,-1 # 0x7fffff
    11d4:	0175d713          	srli	a4,a1,0x17
    11d8:	0ff6f693          	andi	a3,a3,255
    11dc:	0ff00813          	li	a6,255
    11e0:	00a7f633          	and	a2,a5,a0
    11e4:	0ff77713          	andi	a4,a4,255
    11e8:	00b7f7b3          	and	a5,a5,a1
    11ec:	01f55513          	srli	a0,a0,0x1f
    11f0:	01f5d593          	srli	a1,a1,0x1f
    11f4:	01069863          	bne	a3,a6,0x1204
    11f8:	06060a63          	beqz	a2,0x126c
    11fc:	ffe00513          	li	a0,-2
    1200:	00008067          	ret
    1204:	01071463          	bne	a4,a6,0x120c
    1208:	fe079ae3          	bnez	a5,0x11fc
    120c:	06069263          	bnez	a3,0x1270
    1210:	00071463          	bnez	a4,0x1218
    1214:	04078863          	beqz	a5,0x1264
    1218:	00060c63          	beqz	a2,0x1230
    121c:	00b51463          	bne	a0,a1,0x1224
    1220:	02d75063          	bge	a4,a3,0x1240
    1224:	02050c63          	beqz	a0,0x125c
    1228:	fff00513          	li	a0,-1
    122c:	00008067          	ret
    1230:	fff00513          	li	a0,-1
    1234:	00058a63          	beqz	a1,0x1248
    1238:	00058513          	mv	a0,a1
    123c:	00008067          	ret
    1240:	00e6d663          	bge	a3,a4,0x124c
    1244:	fe0502e3          	beqz	a0,0x1228
    1248:	00008067          	ret
    124c:	fcc7ece3          	bltu	a5,a2,0x1224
    1250:	fef66ae3          	bltu	a2,a5,0x1244
    1254:	00000513          	li	a0,0
    1258:	00008067          	ret
    125c:	00100513          	li	a0,1
    1260:	00008067          	ret
    1264:	fe0608e3          	beqz	a2,0x1254
    1268:	fbdff06f          	j	0x1224
    126c:	f8d70ee3          	beq	a4,a3,0x1208
    1270:	fa0716e3          	bnez	a4,0x121c
    1274:	fa0788e3          	beqz	a5,0x1224
    1278:	fa5ff06f          	j	0x121c
    127c:	01755693          	srli	a3,a0,0x17
    1280:	008007b7          	lui	a5,0x800
    1284:	fff78793          	addi	a5,a5,-1 # 0x7fffff
    1288:	0175d713          	srli	a4,a1,0x17
    128c:	0ff6f693          	andi	a3,a3,255
    1290:	0ff00813          	li	a6,255
    1294:	00a7f633          	and	a2,a5,a0
    1298:	0ff77713          	andi	a4,a4,255
    129c:	00b7f7b3          	and	a5,a5,a1
    12a0:	01f55513          	srli	a0,a0,0x1f
    12a4:	01f5d593          	srli	a1,a1,0x1f
    12a8:	01069863          	bne	a3,a6,0x12b8
    12ac:	06060a63          	beqz	a2,0x1320
    12b0:	00200513          	li	a0,2
    12b4:	00008067          	ret
    12b8:	01071463          	bne	a4,a6,0x12c0
    12bc:	fe079ae3          	bnez	a5,0x12b0
    12c0:	06069263          	bnez	a3,0x1324
    12c4:	00071463          	bnez	a4,0x12cc
    12c8:	04078863          	beqz	a5,0x1318
    12cc:	00060c63          	beqz	a2,0x12e4
    12d0:	00b51463          	bne	a0,a1,0x12d8
    12d4:	02d75063          	bge	a4,a3,0x12f4
    12d8:	02050c63          	beqz	a0,0x1310
    12dc:	fff00513          	li	a0,-1
    12e0:	00008067          	ret
    12e4:	fff00513          	li	a0,-1
    12e8:	00058a63          	beqz	a1,0x12fc
    12ec:	00058513          	mv	a0,a1
    12f0:	00008067          	ret
    12f4:	00e6d663          	bge	a3,a4,0x1300
    12f8:	fe0502e3          	beqz	a0,0x12dc
    12fc:	00008067          	ret
    1300:	fcc7ece3          	bltu	a5,a2,0x12d8
    1304:	fef66ae3          	bltu	a2,a5,0x12f8
    1308:	00000513          	li	a0,0
    130c:	00008067          	ret
    1310:	00100513          	li	a0,1
    1314:	00008067          	ret
    1318:	fe0608e3          	beqz	a2,0x1308
    131c:	fbdff06f          	j	0x12d8
    1320:	f8d70ee3          	beq	a4,a3,0x12bc
    1324:	fa0716e3          	bnez	a4,0x12d0
    1328:	fa0788e3          	beqz	a5,0x12d8
    132c:	fa5ff06f          	j	0x12d0
    1330:	fe010113          	addi	sp,sp,-32
    1334:	01212823          	sw	s2,16(sp)
    1338:	01755913          	srli	s2,a0,0x17
    133c:	00912a23          	sw	s1,20(sp)
    1340:	01312623          	sw	s3,12(sp)
    1344:	01412423          	sw	s4,8(sp)
    1348:	00951493          	slli	s1,a0,0x9
    134c:	00112e23          	sw	ra,28(sp)
    1350:	00812c23          	sw	s0,24(sp)
    1354:	01512223          	sw	s5,4(sp)
    1358:	0ff97913          	andi	s2,s2,255
    135c:	00058a13          	mv	s4,a1
    1360:	0094d493          	srli	s1,s1,0x9
    1364:	01f55993          	srli	s3,a0,0x1f
    1368:	08090663          	beqz	s2,0x13f4
    136c:	0ff00793          	li	a5,255
    1370:	0af90263          	beq	s2,a5,0x1414
    1374:	00349493          	slli	s1,s1,0x3
    1378:	040007b7          	lui	a5,0x4000
    137c:	00f4e4b3          	or	s1,s1,a5
    1380:	f8190913          	addi	s2,s2,-127
    1384:	00000a93          	li	s5,0
    1388:	017a5513          	srli	a0,s4,0x17
    138c:	009a1413          	slli	s0,s4,0x9
    1390:	0ff57513          	andi	a0,a0,255
    1394:	00945413          	srli	s0,s0,0x9
    1398:	01fa5a13          	srli	s4,s4,0x1f
    139c:	08050c63          	beqz	a0,0x1434
    13a0:	0ff00793          	li	a5,255
    13a4:	0af50863          	beq	a0,a5,0x1454
    13a8:	00341413          	slli	s0,s0,0x3
    13ac:	040007b7          	lui	a5,0x4000
    13b0:	00f46433          	or	s0,s0,a5
    13b4:	f8150513          	addi	a0,a0,-127
    13b8:	00000793          	li	a5,0
    13bc:	002a9713          	slli	a4,s5,0x2
    13c0:	00f76733          	or	a4,a4,a5
    13c4:	00a90933          	add	s2,s2,a0
    13c8:	fff70713          	addi	a4,a4,-1 # 0x7fffff
    13cc:	00e00693          	li	a3,14
    13d0:	0149c833          	xor	a6,s3,s4
    13d4:	00190893          	addi	a7,s2,1
    13d8:	08e6ee63          	bltu	a3,a4,0x1474
    13dc:	000026b7          	lui	a3,0x2
    13e0:	00271713          	slli	a4,a4,0x2
    13e4:	ffc68693          	addi	a3,a3,-4 # 0x1ffc
    13e8:	00d70733          	add	a4,a4,a3
    13ec:	00072703          	lw	a4,0(a4)
    13f0:	00070067          	jr	a4
    13f4:	02048a63          	beqz	s1,0x1428
    13f8:	00048513          	mv	a0,s1
    13fc:	2a5000ef          	jal	ra,0x1ea0
    1400:	ffb50793          	addi	a5,a0,-5
    1404:	f8a00913          	li	s2,-118
    1408:	00f494b3          	sll	s1,s1,a5
    140c:	40a90933          	sub	s2,s2,a0
    1410:	f75ff06f          	j	0x1384
    1414:	0ff00913          	li	s2,255
    1418:	00200a93          	li	s5,2
    141c:	f60486e3          	beqz	s1,0x1388
    1420:	00300a93          	li	s5,3
    1424:	f65ff06f          	j	0x1388
    1428:	00000913          	li	s2,0
    142c:	00100a93          	li	s5,1
    1430:	f59ff06f          	j	0x1388
    1434:	02040a63          	beqz	s0,0x1468
    1438:	00040513          	mv	a0,s0
    143c:	265000ef          	jal	ra,0x1ea0
    1440:	ffb50793          	addi	a5,a0,-5
    1444:	00f41433          	sll	s0,s0,a5
    1448:	f8a00793          	li	a5,-118
    144c:	40a78533          	sub	a0,a5,a0
    1450:	f69ff06f          	j	0x13b8
    1454:	0ff00513          	li	a0,255
    1458:	00200793          	li	a5,2
    145c:	f60400e3          	beqz	s0,0x13bc
    1460:	00300793          	li	a5,3
    1464:	f59ff06f          	j	0x13bc
    1468:	00000513          	li	a0,0
    146c:	00100793          	li	a5,1
    1470:	f4dff06f          	j	0x13bc
    1474:	00010f37          	lui	t5,0x10
    1478:	ffff0e93          	addi	t4,t5,-1 # 0xffff
    147c:	0104df93          	srli	t6,s1,0x10
    1480:	01045793          	srli	a5,s0,0x10
    1484:	01d4f4b3          	and	s1,s1,t4
    1488:	01d47433          	and	s0,s0,t4
    148c:	00048513          	mv	a0,s1
    1490:	00040593          	mv	a1,s0
    1494:	135000ef          	jal	ra,0x1dc8
    1498:	00050313          	mv	t1,a0
    149c:	00078593          	mv	a1,a5
    14a0:	00048513          	mv	a0,s1
    14a4:	125000ef          	jal	ra,0x1dc8
    14a8:	00050e13          	mv	t3,a0
    14ac:	00040593          	mv	a1,s0
    14b0:	000f8513          	mv	a0,t6
    14b4:	115000ef          	jal	ra,0x1dc8
    14b8:	00050713          	mv	a4,a0
    14bc:	00078593          	mv	a1,a5
    14c0:	000f8513          	mv	a0,t6
    14c4:	105000ef          	jal	ra,0x1dc8
    14c8:	01035793          	srli	a5,t1,0x10
    14cc:	00ee0e33          	add	t3,t3,a4
    14d0:	01c787b3          	add	a5,a5,t3
    14d4:	00e7f463          	bgeu	a5,a4,0x14dc
    14d8:	01e50533          	add	a0,a0,t5
    14dc:	01d7f733          	and	a4,a5,t4
    14e0:	01071713          	slli	a4,a4,0x10
    14e4:	01d37333          	and	t1,t1,t4
    14e8:	00670733          	add	a4,a4,t1
    14ec:	00671413          	slli	s0,a4,0x6
    14f0:	00803433          	snez	s0,s0
    14f4:	0107d793          	srli	a5,a5,0x10
    14f8:	01a75713          	srli	a4,a4,0x1a
    14fc:	00e46733          	or	a4,s0,a4
    1500:	00a78433          	add	s0,a5,a0
    1504:	00641413          	slli	s0,s0,0x6
    1508:	00e46433          	or	s0,s0,a4
    150c:	080007b7          	lui	a5,0x8000
    1510:	00f477b3          	and	a5,s0,a5
    1514:	08078e63          	beqz	a5,0x15b0
    1518:	00145793          	srli	a5,s0,0x1
    151c:	00147413          	andi	s0,s0,1
    1520:	0087e433          	or	s0,a5,s0
    1524:	07f88713          	addi	a4,a7,127
    1528:	08e05863          	blez	a4,0x15b8
    152c:	00747793          	andi	a5,s0,7
    1530:	00078a63          	beqz	a5,0x1544
    1534:	00f47793          	andi	a5,s0,15
    1538:	00400693          	li	a3,4
    153c:	00d78463          	beq	a5,a3,0x1544
    1540:	00440413          	addi	s0,s0,4 # 0x80004
    1544:	080007b7          	lui	a5,0x8000
    1548:	00f477b3          	and	a5,s0,a5
    154c:	00078a63          	beqz	a5,0x1560
    1550:	f80007b7          	lui	a5,0xf8000
    1554:	fff78793          	addi	a5,a5,-1 # 0xfffffffff7ffffff
    1558:	00f47433          	and	s0,s0,a5
    155c:	08088713          	addi	a4,a7,128
    1560:	0fe00793          	li	a5,254
    1564:	00345413          	srli	s0,s0,0x3
    1568:	0ae7da63          	bge	a5,a4,0x161c
    156c:	00000413          	li	s0,0
    1570:	0ff00713          	li	a4,255
    1574:	0a80006f          	j	0x161c
    1578:	00098813          	mv	a6,s3
    157c:	00048413          	mv	s0,s1
    1580:	000a8793          	mv	a5,s5
    1584:	00200713          	li	a4,2
    1588:	fee782e3          	beq	a5,a4,0x156c
    158c:	00300713          	li	a4,3
    1590:	08e78063          	beq	a5,a4,0x1610
    1594:	00100713          	li	a4,1
    1598:	f8e796e3          	bne	a5,a4,0x1524
    159c:	00000413          	li	s0,0
    15a0:	00000713          	li	a4,0
    15a4:	0780006f          	j	0x161c
    15a8:	000a0813          	mv	a6,s4
    15ac:	fd9ff06f          	j	0x1584
    15b0:	00090893          	mv	a7,s2
    15b4:	f71ff06f          	j	0x1524
    15b8:	00100793          	li	a5,1
    15bc:	40e787b3          	sub	a5,a5,a4
    15c0:	01b00713          	li	a4,27
    15c4:	fcf74ce3          	blt	a4,a5,0x159c
    15c8:	09e88893          	addi	a7,a7,158
    15cc:	00f457b3          	srl	a5,s0,a5
    15d0:	01141433          	sll	s0,s0,a7
    15d4:	00803433          	snez	s0,s0
    15d8:	0087e433          	or	s0,a5,s0
    15dc:	00747793          	andi	a5,s0,7
    15e0:	00078a63          	beqz	a5,0x15f4
    15e4:	00f47793          	andi	a5,s0,15
    15e8:	00400713          	li	a4,4
    15ec:	00e78463          	beq	a5,a4,0x15f4
    15f0:	00440413          	addi	s0,s0,4
    15f4:	040007b7          	lui	a5,0x4000
    15f8:	00f477b3          	and	a5,s0,a5
    15fc:	00345413          	srli	s0,s0,0x3
    1600:	fa0780e3          	beqz	a5,0x15a0
    1604:	00000413          	li	s0,0
    1608:	00100713          	li	a4,1
    160c:	0100006f          	j	0x161c
    1610:	00400437          	lui	s0,0x400
    1614:	0ff00713          	li	a4,255
    1618:	00000813          	li	a6,0
    161c:	01771793          	slli	a5,a4,0x17
    1620:	00941413          	slli	s0,s0,0x9
    1624:	7f800737          	lui	a4,0x7f800
    1628:	00e7f7b3          	and	a5,a5,a4
    162c:	00945413          	srli	s0,s0,0x9
    1630:	0087e433          	or	s0,a5,s0
    1634:	01f81513          	slli	a0,a6,0x1f
    1638:	01c12083          	lw	ra,28(sp)
    163c:	00a46533          	or	a0,s0,a0
    1640:	01812403          	lw	s0,24(sp)
    1644:	01412483          	lw	s1,20(sp)
    1648:	01012903          	lw	s2,16(sp)
    164c:	00c12983          	lw	s3,12(sp)
    1650:	00812a03          	lw	s4,8(sp)
    1654:	00412a83          	lw	s5,4(sp)
    1658:	02010113          	addi	sp,sp,32
    165c:	00008067          	ret
    1660:	00800737          	lui	a4,0x800
    1664:	ff010113          	addi	sp,sp,-16
    1668:	fff70713          	addi	a4,a4,-1 # 0x7fffff
    166c:	0175d613          	srli	a2,a1,0x17
    1670:	00a777b3          	and	a5,a4,a0
    1674:	00812423          	sw	s0,8(sp)
    1678:	00b77733          	and	a4,a4,a1
    167c:	00912223          	sw	s1,4(sp)
    1680:	01755413          	srli	s0,a0,0x17
    1684:	00112623          	sw	ra,12(sp)
    1688:	01212023          	sw	s2,0(sp)
    168c:	0ff67613          	andi	a2,a2,255
    1690:	0ff00693          	li	a3,255
    1694:	0ff47413          	andi	s0,s0,255
    1698:	01f55493          	srli	s1,a0,0x1f
    169c:	00379793          	slli	a5,a5,0x3
    16a0:	01f5d593          	srli	a1,a1,0x1f
    16a4:	00371713          	slli	a4,a4,0x3
    16a8:	00d61463          	bne	a2,a3,0x16b0
    16ac:	00071463          	bnez	a4,0x16b4
    16b0:	0015c593          	xori	a1,a1,1
    16b4:	40c406b3          	sub	a3,s0,a2
    16b8:	18959a63          	bne	a1,s1,0x184c
    16bc:	0ad05063          	blez	a3,0x175c
    16c0:	02061663          	bnez	a2,0x16ec
    16c4:	18070063          	beqz	a4,0x1844
    16c8:	fff68613          	addi	a2,a3,-1
    16cc:	00061863          	bnez	a2,0x16dc
    16d0:	00e787b3          	add	a5,a5,a4
    16d4:	00100413          	li	s0,1
    16d8:	0500006f          	j	0x1728
    16dc:	0ff00593          	li	a1,255
    16e0:	02b69063          	bne	a3,a1,0x1700
    16e4:	0ff00413          	li	s0,255
    16e8:	1180006f          	j	0x1800
    16ec:	0ff00613          	li	a2,255
    16f0:	10c40863          	beq	s0,a2,0x1800
    16f4:	04000637          	lui	a2,0x4000
    16f8:	00c76733          	or	a4,a4,a2
    16fc:	00068613          	mv	a2,a3
    1700:	01b00593          	li	a1,27
    1704:	00100693          	li	a3,1
    1708:	00c5ce63          	blt	a1,a2,0x1724
    170c:	02000693          	li	a3,32
    1710:	40c686b3          	sub	a3,a3,a2
    1714:	00c755b3          	srl	a1,a4,a2
    1718:	00d71733          	sll	a4,a4,a3
    171c:	00e03733          	snez	a4,a4
    1720:	00e5e6b3          	or	a3,a1,a4
    1724:	00d787b3          	add	a5,a5,a3
    1728:	04000737          	lui	a4,0x4000
    172c:	00e7f733          	and	a4,a5,a4
    1730:	0c070863          	beqz	a4,0x1800
    1734:	00140413          	addi	s0,s0,1 # 0x400001
    1738:	0ff00713          	li	a4,255
    173c:	30e40263          	beq	s0,a4,0x1a40
    1740:	7e000737          	lui	a4,0x7e000
    1744:	0017f693          	andi	a3,a5,1
    1748:	fff70713          	addi	a4,a4,-1 # 0x7dffffff
    174c:	0017d793          	srli	a5,a5,0x1
    1750:	00e7f7b3          	and	a5,a5,a4
    1754:	00d7e7b3          	or	a5,a5,a3
    1758:	0a80006f          	j	0x1800
    175c:	06068663          	beqz	a3,0x17c8
    1760:	408606b3          	sub	a3,a2,s0
    1764:	02041063          	bnez	s0,0x1784
    1768:	2c078263          	beqz	a5,0x1a2c
    176c:	fff68593          	addi	a1,a3,-1
    1770:	f60580e3          	beqz	a1,0x16d0
    1774:	0ff00513          	li	a0,255
    1778:	02a69063          	bne	a3,a0,0x1798
    177c:	00070793          	mv	a5,a4
    1780:	f65ff06f          	j	0x16e4
    1784:	0ff00593          	li	a1,255
    1788:	feb60ae3          	beq	a2,a1,0x177c
    178c:	040005b7          	lui	a1,0x4000
    1790:	00b7e7b3          	or	a5,a5,a1
    1794:	00068593          	mv	a1,a3
    1798:	01b00513          	li	a0,27
    179c:	00100693          	li	a3,1
    17a0:	00b54e63          	blt	a0,a1,0x17bc
    17a4:	02000693          	li	a3,32
    17a8:	40b686b3          	sub	a3,a3,a1
    17ac:	00b7d533          	srl	a0,a5,a1
    17b0:	00d797b3          	sll	a5,a5,a3
    17b4:	00f037b3          	snez	a5,a5
    17b8:	00f566b3          	or	a3,a0,a5
    17bc:	00e687b3          	add	a5,a3,a4
    17c0:	00060413          	mv	s0,a2
    17c4:	f65ff06f          	j	0x1728
    17c8:	00140693          	addi	a3,s0,1
    17cc:	0fe6f613          	andi	a2,a3,254
    17d0:	06061263          	bnez	a2,0x1834
    17d4:	04041463          	bnez	s0,0x181c
    17d8:	24078e63          	beqz	a5,0x1a34
    17dc:	02070263          	beqz	a4,0x1800
    17e0:	00e787b3          	add	a5,a5,a4
    17e4:	04000737          	lui	a4,0x4000
    17e8:	00e7f733          	and	a4,a5,a4
    17ec:	00070a63          	beqz	a4,0x1800
    17f0:	fc000737          	lui	a4,0xfc000
    17f4:	fff70713          	addi	a4,a4,-1 # 0xfffffffffbffffff
    17f8:	00e7f7b3          	and	a5,a5,a4
    17fc:	00100413          	li	s0,1
    1800:	0077f713          	andi	a4,a5,7
    1804:	24070063          	beqz	a4,0x1a44
    1808:	00f7f713          	andi	a4,a5,15
    180c:	00400693          	li	a3,4
    1810:	22d70a63          	beq	a4,a3,0x1a44
    1814:	00478793          	addi	a5,a5,4 # 0x4000004
    1818:	22c0006f          	j	0x1a44
    181c:	f60780e3          	beqz	a5,0x177c
    1820:	ec0702e3          	beqz	a4,0x16e4
    1824:	00000493          	li	s1,0
    1828:	020007b7          	lui	a5,0x2000
    182c:	0ff00413          	li	s0,255
    1830:	2140006f          	j	0x1a44
    1834:	0ff00613          	li	a2,255
    1838:	20c68263          	beq	a3,a2,0x1a3c
    183c:	00e787b3          	add	a5,a5,a4
    1840:	0017d793          	srli	a5,a5,0x1
    1844:	00068413          	mv	s0,a3
    1848:	fb9ff06f          	j	0x1800
    184c:	08d05063          	blez	a3,0x18cc
    1850:	06061263          	bnez	a2,0x18b4
    1854:	fe0708e3          	beqz	a4,0x1844
    1858:	fff68613          	addi	a2,a3,-1
    185c:	00061863          	bnez	a2,0x186c
    1860:	40e787b3          	sub	a5,a5,a4
    1864:	00100413          	li	s0,1
    1868:	0340006f          	j	0x189c
    186c:	0ff00593          	li	a1,255
    1870:	e6b68ae3          	beq	a3,a1,0x16e4
    1874:	01b00593          	li	a1,27
    1878:	00100693          	li	a3,1
    187c:	00c5ce63          	blt	a1,a2,0x1898
    1880:	02000693          	li	a3,32
    1884:	40c686b3          	sub	a3,a3,a2
    1888:	00c755b3          	srl	a1,a4,a2
    188c:	00d71733          	sll	a4,a4,a3
    1890:	00e03733          	snez	a4,a4
    1894:	00e5e6b3          	or	a3,a1,a4
    1898:	40d787b3          	sub	a5,a5,a3
    189c:	04000937          	lui	s2,0x4000
    18a0:	0127f733          	and	a4,a5,s2
    18a4:	f4070ee3          	beqz	a4,0x1800
    18a8:	fff90913          	addi	s2,s2,-1 # 0x3ffffff
    18ac:	0127f933          	and	s2,a5,s2
    18b0:	1180006f          	j	0x19c8
    18b4:	0ff00613          	li	a2,255
    18b8:	f4c404e3          	beq	s0,a2,0x1800
    18bc:	04000637          	lui	a2,0x4000
    18c0:	00c76733          	or	a4,a4,a2
    18c4:	00068613          	mv	a2,a3
    18c8:	fadff06f          	j	0x1874
    18cc:	08068063          	beqz	a3,0x194c
    18d0:	408606b3          	sub	a3,a2,s0
    18d4:	02041863          	bnez	s0,0x1904
    18d8:	1e078063          	beqz	a5,0x1ab8
    18dc:	fff68513          	addi	a0,a3,-1
    18e0:	00051863          	bnez	a0,0x18f0
    18e4:	40f707b3          	sub	a5,a4,a5
    18e8:	00058493          	mv	s1,a1
    18ec:	f79ff06f          	j	0x1864
    18f0:	0ff00813          	li	a6,255
    18f4:	03069263          	bne	a3,a6,0x1918
    18f8:	00070793          	mv	a5,a4
    18fc:	0ff00413          	li	s0,255
    1900:	06c0006f          	j	0x196c
    1904:	0ff00513          	li	a0,255
    1908:	fea608e3          	beq	a2,a0,0x18f8
    190c:	04000537          	lui	a0,0x4000
    1910:	00a7e7b3          	or	a5,a5,a0
    1914:	00068513          	mv	a0,a3
    1918:	01b00813          	li	a6,27
    191c:	00100693          	li	a3,1
    1920:	00a84e63          	blt	a6,a0,0x193c
    1924:	02000693          	li	a3,32
    1928:	40a686b3          	sub	a3,a3,a0
    192c:	00a7d833          	srl	a6,a5,a0
    1930:	00d797b3          	sll	a5,a5,a3
    1934:	00f037b3          	snez	a5,a5
    1938:	00f866b3          	or	a3,a6,a5
    193c:	40d707b3          	sub	a5,a4,a3
    1940:	00060413          	mv	s0,a2
    1944:	00058493          	mv	s1,a1
    1948:	f55ff06f          	j	0x189c
    194c:	00140693          	addi	a3,s0,1
    1950:	0fe6f693          	andi	a3,a3,254
    1954:	04069e63          	bnez	a3,0x19b0
    1958:	04041263          	bnez	s0,0x199c
    195c:	00079c63          	bnez	a5,0x1974
    1960:	00000493          	li	s1,0
    1964:	0e070063          	beqz	a4,0x1a44
    1968:	00070793          	mv	a5,a4
    196c:	00058493          	mv	s1,a1
    1970:	e91ff06f          	j	0x1800
    1974:	e80706e3          	beqz	a4,0x1800
    1978:	40e786b3          	sub	a3,a5,a4
    197c:	04000637          	lui	a2,0x4000
    1980:	00c6f633          	and	a2,a3,a2
    1984:	40f707b3          	sub	a5,a4,a5
    1988:	fe0612e3          	bnez	a2,0x196c
    198c:	00000793          	li	a5,0
    1990:	08068063          	beqz	a3,0x1a10
    1994:	00068793          	mv	a5,a3
    1998:	e69ff06f          	j	0x1800
    199c:	e80792e3          	bnez	a5,0x1820
    19a0:	e80702e3          	beqz	a4,0x1824
    19a4:	00070793          	mv	a5,a4
    19a8:	00058493          	mv	s1,a1
    19ac:	d39ff06f          	j	0x16e4
    19b0:	40e78933          	sub	s2,a5,a4
    19b4:	040006b7          	lui	a3,0x4000
    19b8:	00d976b3          	and	a3,s2,a3
    19bc:	04068463          	beqz	a3,0x1a04
    19c0:	40f70933          	sub	s2,a4,a5
    19c4:	00058493          	mv	s1,a1
    19c8:	00090513          	mv	a0,s2
    19cc:	4d4000ef          	jal	ra,0x1ea0
    19d0:	ffb50513          	addi	a0,a0,-5 # 0x3fffffb
    19d4:	00a91933          	sll	s2,s2,a0
    19d8:	04854063          	blt	a0,s0,0x1a18
    19dc:	40850533          	sub	a0,a0,s0
    19e0:	00150513          	addi	a0,a0,1
    19e4:	02000413          	li	s0,32
    19e8:	00a957b3          	srl	a5,s2,a0
    19ec:	40a40533          	sub	a0,s0,a0
    19f0:	00a91933          	sll	s2,s2,a0
    19f4:	01203933          	snez	s2,s2
    19f8:	0127e7b3          	or	a5,a5,s2
    19fc:	00000413          	li	s0,0
    1a00:	e01ff06f          	j	0x1800
    1a04:	fc0912e3          	bnez	s2,0x19c8
    1a08:	00000793          	li	a5,0
    1a0c:	00000413          	li	s0,0
    1a10:	00000493          	li	s1,0
    1a14:	0300006f          	j	0x1a44
    1a18:	fc0007b7          	lui	a5,0xfc000
    1a1c:	fff78793          	addi	a5,a5,-1 # 0xfffffffffbffffff
    1a20:	40a40433          	sub	s0,s0,a0
    1a24:	00f977b3          	and	a5,s2,a5
    1a28:	dd9ff06f          	j	0x1800
    1a2c:	00070793          	mv	a5,a4
    1a30:	e15ff06f          	j	0x1844
    1a34:	00070793          	mv	a5,a4
    1a38:	dc9ff06f          	j	0x1800
    1a3c:	0ff00413          	li	s0,255
    1a40:	00000793          	li	a5,0
    1a44:	04000737          	lui	a4,0x4000
    1a48:	00e7f733          	and	a4,a5,a4
    1a4c:	00070e63          	beqz	a4,0x1a68
    1a50:	00140413          	addi	s0,s0,1
    1a54:	0ff00713          	li	a4,255
    1a58:	06e40663          	beq	s0,a4,0x1ac4
    1a5c:	fc000737          	lui	a4,0xfc000
    1a60:	fff70713          	addi	a4,a4,-1 # 0xfffffffffbffffff
    1a64:	00e7f7b3          	and	a5,a5,a4
    1a68:	0ff00713          	li	a4,255
    1a6c:	0037d793          	srli	a5,a5,0x3
    1a70:	00e41863          	bne	s0,a4,0x1a80
    1a74:	00078663          	beqz	a5,0x1a80
    1a78:	004007b7          	lui	a5,0x400
    1a7c:	00000493          	li	s1,0
    1a80:	7f800537          	lui	a0,0x7f800
    1a84:	01741413          	slli	s0,s0,0x17
    1a88:	00979793          	slli	a5,a5,0x9
    1a8c:	00a47433          	and	s0,s0,a0
    1a90:	0097d793          	srli	a5,a5,0x9
    1a94:	00c12083          	lw	ra,12(sp)
    1a98:	00f467b3          	or	a5,s0,a5
    1a9c:	00812403          	lw	s0,8(sp)
    1aa0:	01f49513          	slli	a0,s1,0x1f
    1aa4:	00012903          	lw	s2,0(sp)
    1aa8:	00412483          	lw	s1,4(sp)
    1aac:	00a7e533          	or	a0,a5,a0
    1ab0:	01010113          	addi	sp,sp,16
    1ab4:	00008067          	ret
    1ab8:	00070793          	mv	a5,a4
    1abc:	00068413          	mv	s0,a3
    1ac0:	eadff06f          	j	0x196c
    1ac4:	00000793          	li	a5,0
    1ac8:	fa1ff06f          	j	0x1a68
    1acc:	00800637          	lui	a2,0x800
    1ad0:	01755713          	srli	a4,a0,0x17
    1ad4:	fff60793          	addi	a5,a2,-1 # 0x7fffff
    1ad8:	0ff77713          	andi	a4,a4,255
    1adc:	07e00593          	li	a1,126
    1ae0:	00a7f7b3          	and	a5,a5,a0
    1ae4:	01f55693          	srli	a3,a0,0x1f
    1ae8:	04e5d663          	bge	a1,a4,0x1b34
    1aec:	09d00593          	li	a1,157
    1af0:	00e5da63          	bge	a1,a4,0x1b04
    1af4:	80000537          	lui	a0,0x80000
    1af8:	fff54513          	not	a0,a0
    1afc:	00a68533          	add	a0,a3,a0
    1b00:	00008067          	ret
    1b04:	00c7e533          	or	a0,a5,a2
    1b08:	09500793          	li	a5,149
    1b0c:	00e7dc63          	bge	a5,a4,0x1b24
    1b10:	f6a70713          	addi	a4,a4,-150
    1b14:	00e51533          	sll	a0,a0,a4
    1b18:	02068063          	beqz	a3,0x1b38
    1b1c:	40a00533          	neg	a0,a0
    1b20:	00008067          	ret
    1b24:	09600793          	li	a5,150
    1b28:	40e78733          	sub	a4,a5,a4
    1b2c:	00e55533          	srl	a0,a0,a4
    1b30:	fe9ff06f          	j	0x1b18
    1b34:	00000513          	li	a0,0
    1b38:	00008067          	ret
    1b3c:	ff010113          	addi	sp,sp,-16
    1b40:	00112623          	sw	ra,12(sp)
    1b44:	00812423          	sw	s0,8(sp)
    1b48:	00912223          	sw	s1,4(sp)
    1b4c:	0e050663          	beqz	a0,0x1c38
    1b50:	41f55793          	srai	a5,a0,0x1f
    1b54:	00a7c433          	xor	s0,a5,a0
    1b58:	40f40433          	sub	s0,s0,a5
    1b5c:	01f55493          	srli	s1,a0,0x1f
    1b60:	00040513          	mv	a0,s0
    1b64:	33c000ef          	jal	ra,0x1ea0
    1b68:	09e00793          	li	a5,158
    1b6c:	00050713          	mv	a4,a0
    1b70:	40a78533          	sub	a0,a5,a0
    1b74:	09600793          	li	a5,150
    1b78:	04a7c063          	blt	a5,a0,0x1bb8
    1b7c:	00800793          	li	a5,8
    1b80:	00e7d663          	bge	a5,a4,0x1b8c
    1b84:	ff870713          	addi	a4,a4,-8
    1b88:	00e41433          	sll	s0,s0,a4
    1b8c:	00941413          	slli	s0,s0,0x9
    1b90:	01751513          	slli	a0,a0,0x17
    1b94:	00945413          	srli	s0,s0,0x9
    1b98:	00856433          	or	s0,a0,s0
    1b9c:	01f49513          	slli	a0,s1,0x1f
    1ba0:	00c12083          	lw	ra,12(sp)
    1ba4:	00a46533          	or	a0,s0,a0
    1ba8:	00812403          	lw	s0,8(sp)
    1bac:	00412483          	lw	s1,4(sp)
    1bb0:	01010113          	addi	sp,sp,16
    1bb4:	00008067          	ret
    1bb8:	09900793          	li	a5,153
    1bbc:	02a7d063          	bge	a5,a0,0x1bdc
    1bc0:	00500793          	li	a5,5
    1bc4:	40e787b3          	sub	a5,a5,a4
    1bc8:	01b70693          	addi	a3,a4,27
    1bcc:	00f457b3          	srl	a5,s0,a5
    1bd0:	00d41433          	sll	s0,s0,a3
    1bd4:	00803433          	snez	s0,s0
    1bd8:	0087e433          	or	s0,a5,s0
    1bdc:	00500793          	li	a5,5
    1be0:	00e7d663          	bge	a5,a4,0x1bec
    1be4:	ffb70793          	addi	a5,a4,-5
    1be8:	00f41433          	sll	s0,s0,a5
    1bec:	fc0006b7          	lui	a3,0xfc000
    1bf0:	fff68693          	addi	a3,a3,-1 # 0xfffffffffbffffff
    1bf4:	00747793          	andi	a5,s0,7
    1bf8:	00d476b3          	and	a3,s0,a3
    1bfc:	00078a63          	beqz	a5,0x1c10
    1c00:	00f47413          	andi	s0,s0,15
    1c04:	00400793          	li	a5,4
    1c08:	00f40463          	beq	s0,a5,0x1c10
    1c0c:	00468693          	addi	a3,a3,4
    1c10:	040007b7          	lui	a5,0x4000
    1c14:	00f6f7b3          	and	a5,a3,a5
    1c18:	00078c63          	beqz	a5,0x1c30
    1c1c:	fc0007b7          	lui	a5,0xfc000
    1c20:	fff78793          	addi	a5,a5,-1 # 0xfffffffffbffffff
    1c24:	00f6f6b3          	and	a3,a3,a5
    1c28:	09f00793          	li	a5,159
    1c2c:	40e78533          	sub	a0,a5,a4
    1c30:	0036d413          	srli	s0,a3,0x3
    1c34:	f59ff06f          	j	0x1b8c
    1c38:	00000493          	li	s1,0
    1c3c:	00000413          	li	s0,0
    1c40:	f4dff06f          	j	0x1b8c
    1c44:	0145d613          	srli	a2,a1,0x14
    1c48:	7ff67613          	andi	a2,a2,2047
    1c4c:	00c59693          	slli	a3,a1,0xc
    1c50:	00160713          	addi	a4,a2,1
    1c54:	0096d793          	srli	a5,a3,0x9
    1c58:	7fe77713          	andi	a4,a4,2046
    1c5c:	01d55693          	srli	a3,a0,0x1d
    1c60:	00f6e6b3          	or	a3,a3,a5
    1c64:	01f5d593          	srli	a1,a1,0x1f
    1c68:	00351793          	slli	a5,a0,0x3
    1c6c:	0a070663          	beqz	a4,0x1d18
    1c70:	c8060713          	addi	a4,a2,-896
    1c74:	0fe00813          	li	a6,254
    1c78:	0ce84263          	blt	a6,a4,0x1d3c
    1c7c:	08e04063          	bgtz	a4,0x1cfc
    1c80:	fe900513          	li	a0,-23
    1c84:	12a74063          	blt	a4,a0,0x1da4
    1c88:	00800537          	lui	a0,0x800
    1c8c:	00a6e6b3          	or	a3,a3,a0
    1c90:	01e00513          	li	a0,30
    1c94:	40e50533          	sub	a0,a0,a4
    1c98:	01f00813          	li	a6,31
    1c9c:	02a84863          	blt	a6,a0,0x1ccc
    1ca0:	c8260613          	addi	a2,a2,-894
    1ca4:	00a7d533          	srl	a0,a5,a0
    1ca8:	00c797b3          	sll	a5,a5,a2
    1cac:	00f037b3          	snez	a5,a5
    1cb0:	00c696b3          	sll	a3,a3,a2
    1cb4:	00d7e7b3          	or	a5,a5,a3
    1cb8:	00f567b3          	or	a5,a0,a5
    1cbc:	00000713          	li	a4,0
    1cc0:	0077f693          	andi	a3,a5,7
    1cc4:	08068063          	beqz	a3,0x1d44
    1cc8:	0e40006f          	j	0x1dac
    1ccc:	ffe00813          	li	a6,-2
    1cd0:	40e80733          	sub	a4,a6,a4
    1cd4:	02000893          	li	a7,32
    1cd8:	00e6d733          	srl	a4,a3,a4
    1cdc:	00000813          	li	a6,0
    1ce0:	01150663          	beq	a0,a7,0x1cec
    1ce4:	ca260613          	addi	a2,a2,-862
    1ce8:	00c69833          	sll	a6,a3,a2
    1cec:	00f867b3          	or	a5,a6,a5
    1cf0:	00f037b3          	snez	a5,a5
    1cf4:	00f767b3          	or	a5,a4,a5
    1cf8:	fc5ff06f          	j	0x1cbc
    1cfc:	00651513          	slli	a0,a0,0x6
    1d00:	00a03533          	snez	a0,a0
    1d04:	00369693          	slli	a3,a3,0x3
    1d08:	01d7d793          	srli	a5,a5,0x1d
    1d0c:	00d566b3          	or	a3,a0,a3
    1d10:	00f6e7b3          	or	a5,a3,a5
    1d14:	fadff06f          	j	0x1cc0
    1d18:	00f6e7b3          	or	a5,a3,a5
    1d1c:	00061663          	bnez	a2,0x1d28
    1d20:	00f037b3          	snez	a5,a5
    1d24:	f99ff06f          	j	0x1cbc
    1d28:	0ff00713          	li	a4,255
    1d2c:	00078c63          	beqz	a5,0x1d44
    1d30:	00369693          	slli	a3,a3,0x3
    1d34:	020007b7          	lui	a5,0x2000
    1d38:	fd9ff06f          	j	0x1d10
    1d3c:	00000793          	li	a5,0
    1d40:	0ff00713          	li	a4,255
    1d44:	040006b7          	lui	a3,0x4000
    1d48:	00d7f6b3          	and	a3,a5,a3
    1d4c:	00068e63          	beqz	a3,0x1d68
    1d50:	00170713          	addi	a4,a4,1
    1d54:	0ff00693          	li	a3,255
    1d58:	06d70463          	beq	a4,a3,0x1dc0
    1d5c:	fc0006b7          	lui	a3,0xfc000
    1d60:	fff68693          	addi	a3,a3,-1 # 0xfffffffffbffffff
    1d64:	00d7f7b3          	and	a5,a5,a3
    1d68:	0ff00693          	li	a3,255
    1d6c:	0037d793          	srli	a5,a5,0x3
    1d70:	00d71863          	bne	a4,a3,0x1d80
    1d74:	00078663          	beqz	a5,0x1d80
    1d78:	004007b7          	lui	a5,0x400
    1d7c:	00000593          	li	a1,0
    1d80:	7f800537          	lui	a0,0x7f800
    1d84:	01771713          	slli	a4,a4,0x17
    1d88:	00979793          	slli	a5,a5,0x9
    1d8c:	00a77733          	and	a4,a4,a0
    1d90:	0097d793          	srli	a5,a5,0x9
    1d94:	00f767b3          	or	a5,a4,a5
    1d98:	01f59513          	slli	a0,a1,0x1f
    1d9c:	00a7e533          	or	a0,a5,a0
    1da0:	00008067          	ret
    1da4:	00100793          	li	a5,1
    1da8:	00000713          	li	a4,0
    1dac:	00f7f693          	andi	a3,a5,15
    1db0:	00400613          	li	a2,4
    1db4:	f8c688e3          	beq	a3,a2,0x1d44
    1db8:	00478793          	addi	a5,a5,4 # 0x400004
    1dbc:	f89ff06f          	j	0x1d44
    1dc0:	00000793          	li	a5,0
    1dc4:	fa5ff06f          	j	0x1d68
    1dc8:	00050613          	mv	a2,a0
    1dcc:	00000513          	li	a0,0
    1dd0:	0015f693          	andi	a3,a1,1
    1dd4:	00068463          	beqz	a3,0x1ddc
    1dd8:	00c50533          	add	a0,a0,a2
    1ddc:	0015d593          	srli	a1,a1,0x1
    1de0:	00161613          	slli	a2,a2,0x1
    1de4:	fe0596e3          	bnez	a1,0x1dd0
    1de8:	00008067          	ret
    1dec:	06054063          	bltz	a0,0x1e4c
    1df0:	0605c663          	bltz	a1,0x1e5c
    1df4:	00058613          	mv	a2,a1
    1df8:	00050593          	mv	a1,a0
    1dfc:	fff00513          	li	a0,-1
    1e00:	02060c63          	beqz	a2,0x1e38
    1e04:	00100693          	li	a3,1
    1e08:	00b67a63          	bgeu	a2,a1,0x1e1c
    1e0c:	00c05863          	blez	a2,0x1e1c
    1e10:	00161613          	slli	a2,a2,0x1
    1e14:	00169693          	slli	a3,a3,0x1
    1e18:	feb66ae3          	bltu	a2,a1,0x1e0c
    1e1c:	00000513          	li	a0,0
    1e20:	00c5e663          	bltu	a1,a2,0x1e2c
    1e24:	40c585b3          	sub	a1,a1,a2
    1e28:	00d56533          	or	a0,a0,a3
    1e2c:	0016d693          	srli	a3,a3,0x1
    1e30:	00165613          	srli	a2,a2,0x1
    1e34:	fe0696e3          	bnez	a3,0x1e20
    1e38:	00008067          	ret
    1e3c:	00008293          	mv	t0,ra
    1e40:	fb5ff0ef          	jal	ra,0x1df4
    1e44:	00058513          	mv	a0,a1
    1e48:	00028067          	jr	t0
    1e4c:	40a00533          	neg	a0,a0
    1e50:	00b04863          	bgtz	a1,0x1e60
    1e54:	40b005b3          	neg	a1,a1
    1e58:	f9dff06f          	j	0x1df4
    1e5c:	40b005b3          	neg	a1,a1
    1e60:	00008293          	mv	t0,ra
    1e64:	f91ff0ef          	jal	ra,0x1df4
    1e68:	40a00533          	neg	a0,a0
    1e6c:	00028067          	jr	t0
    1e70:	00008293          	mv	t0,ra
    1e74:	0005ca63          	bltz	a1,0x1e88
    1e78:	00054c63          	bltz	a0,0x1e90
    1e7c:	f79ff0ef          	jal	ra,0x1df4
    1e80:	00058513          	mv	a0,a1
    1e84:	00028067          	jr	t0
    1e88:	40b005b3          	neg	a1,a1
    1e8c:	fe0558e3          	bgez	a0,0x1e7c
    1e90:	40a00533          	neg	a0,a0
    1e94:	f61ff0ef          	jal	ra,0x1df4
    1e98:	40b00533          	neg	a0,a1
    1e9c:	00028067          	jr	t0
    1ea0:	000107b7          	lui	a5,0x10
    1ea4:	02f57a63          	bgeu	a0,a5,0x1ed8
    1ea8:	0ff00793          	li	a5,255
    1eac:	00a7b7b3          	sltu	a5,a5,a0
    1eb0:	00379793          	slli	a5,a5,0x3
    1eb4:	00002737          	lui	a4,0x2
    1eb8:	02000693          	li	a3,32
    1ebc:	40f686b3          	sub	a3,a3,a5
    1ec0:	00f55533          	srl	a0,a0,a5
    1ec4:	03870793          	addi	a5,a4,56 # 0x2038
    1ec8:	00a78533          	add	a0,a5,a0
    1ecc:	00054503          	lbu	a0,0(a0) # 0x7f800000
    1ed0:	40a68533          	sub	a0,a3,a0
    1ed4:	00008067          	ret
    1ed8:	01000737          	lui	a4,0x1000
    1edc:	01000793          	li	a5,16
    1ee0:	fce56ae3          	bltu	a0,a4,0x1eb4
    1ee4:	01800793          	li	a5,24
    1ee8:	fcdff06f          	j	0x1eb4
    1eec:	fffc                	sd	a5,248(a5)
    1eee:	0000                	unimp
    1ef0:	0020                	addi	s0,sp,8
    1ef2:	0000                	unimp
    1ef4:	0000                	unimp
    1ef6:	0000                	unimp
    1ef8:	0748                	addi	a0,sp,900
    1efa:	0000                	unimp
    1efc:	0830                	addi	a2,sp,24
    1efe:	0000                	unimp
    1f00:	0830                	addi	a2,sp,24
    1f02:	0000                	unimp
    1f04:	0830                	addi	a2,sp,24
    1f06:	0000                	unimp
    1f08:	0830                	addi	a2,sp,24
    1f0a:	0000                	unimp
    1f0c:	0830                	addi	a2,sp,24
    1f0e:	0000                	unimp
    1f10:	0830                	addi	a2,sp,24
    1f12:	0000                	unimp
    1f14:	0830                	addi	a2,sp,24
    1f16:	0000                	unimp
    1f18:	0830                	addi	a2,sp,24
    1f1a:	0000                	unimp
    1f1c:	0830                	addi	a2,sp,24
    1f1e:	0000                	unimp
    1f20:	0830                	addi	a2,sp,24
    1f22:	0000                	unimp
    1f24:	07a0                	addi	s0,sp,968
    1f26:	0000                	unimp
    1f28:	06f0                	addi	a2,sp,844
    1f2a:	0000                	unimp
    1f2c:	0830                	addi	a2,sp,24
    1f2e:	0000                	unimp
    1f30:	07f8                	addi	a4,sp,972
    1f32:	0000                	unimp
    1f34:	0830                	addi	a2,sp,24
    1f36:	0000                	unimp
    1f38:	0830                	addi	a2,sp,24
    1f3a:	0000                	unimp
    1f3c:	0830                	addi	a2,sp,24
    1f3e:	0000                	unimp
    1f40:	0830                	addi	a2,sp,24
    1f42:	0000                	unimp
    1f44:	0830                	addi	a2,sp,24
    1f46:	0000                	unimp
    1f48:	0830                	addi	a2,sp,24
    1f4a:	0000                	unimp
    1f4c:	0830                	addi	a2,sp,24
    1f4e:	0000                	unimp
    1f50:	0830                	addi	a2,sp,24
    1f52:	0000                	unimp
    1f54:	0830                	addi	a2,sp,24
    1f56:	0000                	unimp
    1f58:	0830                	addi	a2,sp,24
    1f5a:	0000                	unimp
    1f5c:	0830                	addi	a2,sp,24
    1f5e:	0000                	unimp
    1f60:	0830                	addi	a2,sp,24
    1f62:	0000                	unimp
    1f64:	07c4                	addi	s1,sp,964
    1f66:	0000                	unimp
    1f68:	0830                	addi	a2,sp,24
    1f6a:	0000                	unimp
    1f6c:	06f0                	addi	a2,sp,844
    1f6e:	0000                	unimp
    1f70:	0830                	addi	a2,sp,24
    1f72:	0000                	unimp
    1f74:	0830                	addi	a2,sp,24
    1f76:	0000                	unimp
    1f78:	0748                	addi	a0,sp,900
    1f7a:	0000                	unimp
    1f7c:	bc20                	fsd	fs0,120(s0)
    1f7e:	4cbe                	lw	s9,204(sp)
    1f80:	6166                	ld	sp,88(sp)
    1f82:	6c69                	lui	s8,0x1a
    1f84:	74612073          	csrs	0x746,sp
    1f88:	2520                	fld	fs0,72(a0)
    1f8a:	0a64                	addi	s1,sp,284
    1f8c:	0000                	unimp
    1f8e:	0000                	unimp
    1f90:	3a555043          	fmadd.d	ft0,fa0,ft5,ft7,unknown
    1f94:	2520                	fld	fs0,72(a0)
    1f96:	2e64                	fld	fs1,216(a2)
    1f98:	6425                	lui	s0,0x9
    1f9a:	000a                	c.slli	zero,0x2
    1f9c:	6c66                	ld	s8,88(sp)
    1f9e:	3a74616f          	jal	sp,0x48b44
    1fa2:	2520                	fld	fs0,72(a0)
    1fa4:	0a66                	slli	s4,s4,0x19
    1fa6:	0000                	unimp
    1fa8:	0000                	unimp
    1faa:	3f80                	fld	fs0,56(a5)
    1fac:	0000                	unimp
    1fae:	bf80                	fsd	fs0,56(a5)
    1fb0:	f91e646f          	jal	s0,0xfffffffffffe8f40
    1fb4:	40ad9ae3          	bne	s11,a0,0x2bc8
    1fb8:	e1b9                	bnez	a1,0x1ffe
    1fba:	a32dd377          	0xa32dd377
    1fbe:	10ac406b          	0x10ac406b
    1fc2:	0000                	unimp
    1fc4:	10ac                	addi	a1,sp,104
    1fc6:	0000                	unimp
    1fc8:	10d0                	addi	a2,sp,100
    1fca:	0000                	unimp
    1fcc:	10a0                	addi	s0,sp,104
    1fce:	0000                	unimp
    1fd0:	10a0                	addi	s0,sp,104
    1fd2:	0000                	unimp
    1fd4:	1194                	addi	a3,sp,224
    1fd6:	0000                	unimp
    1fd8:	10d0                	addi	a2,sp,100
    1fda:	0000                	unimp
    1fdc:	10a0                	addi	s0,sp,104
    1fde:	0000                	unimp
    1fe0:	1194                	addi	a3,sp,224
    1fe2:	0000                	unimp
    1fe4:	10a0                	addi	s0,sp,104
    1fe6:	0000                	unimp
    1fe8:	10d0                	addi	a2,sp,100
    1fea:	0000                	unimp
    1fec:	109c                	addi	a5,sp,96
    1fee:	0000                	unimp
    1ff0:	109c                	addi	a5,sp,96
    1ff2:	0000                	unimp
    1ff4:	109c                	addi	a5,sp,96
    1ff6:	0000                	unimp
    1ff8:	1194                	addi	a3,sp,224
    1ffa:	0000                	unimp
    1ffc:	1584                	addi	s1,sp,736
    1ffe:	0000                	unimp
    2000:	1584                	addi	s1,sp,736
    2002:	0000                	unimp
    2004:	15a8                	addi	a0,sp,744
    2006:	0000                	unimp
    2008:	157c                	addi	a5,sp,684
    200a:	0000                	unimp
    200c:	157c                	addi	a5,sp,684
    200e:	0000                	unimp
    2010:	1610                	addi	a2,sp,800
    2012:	0000                	unimp
    2014:	15a8                	addi	a0,sp,744
    2016:	0000                	unimp
    2018:	157c                	addi	a5,sp,684
    201a:	0000                	unimp
    201c:	1610                	addi	a2,sp,800
    201e:	0000                	unimp
    2020:	157c                	addi	a5,sp,684
    2022:	0000                	unimp
    2024:	15a8                	addi	a0,sp,744
    2026:	0000                	unimp
    2028:	1578                	addi	a4,sp,684
    202a:	0000                	unimp
    202c:	1578                	addi	a4,sp,684
    202e:	0000                	unimp
    2030:	1578                	addi	a4,sp,684
    2032:	0000                	unimp
    2034:	1610                	addi	a2,sp,800
    2036:	0000                	unimp
    2038:	0100                	addi	s0,sp,128
    203a:	0202                	c.slli64	tp
    203c:	03030303          	lb	t1,48(t1)
    2040:	0404                	addi	s1,sp,512
    2042:	0404                	addi	s1,sp,512
    2044:	0404                	addi	s1,sp,512
    2046:	0404                	addi	s1,sp,512
    2048:	0505                	addi	a0,a0,1
    204a:	0505                	addi	a0,a0,1
    204c:	0505                	addi	a0,a0,1
    204e:	0505                	addi	a0,a0,1
    2050:	0505                	addi	a0,a0,1
    2052:	0505                	addi	a0,a0,1
    2054:	0505                	addi	a0,a0,1
    2056:	0505                	addi	a0,a0,1
    2058:	0606                	slli	a2,a2,0x1
    205a:	0606                	slli	a2,a2,0x1
    205c:	0606                	slli	a2,a2,0x1
    205e:	0606                	slli	a2,a2,0x1
    2060:	0606                	slli	a2,a2,0x1
    2062:	0606                	slli	a2,a2,0x1
    2064:	0606                	slli	a2,a2,0x1
    2066:	0606                	slli	a2,a2,0x1
    2068:	0606                	slli	a2,a2,0x1
    206a:	0606                	slli	a2,a2,0x1
    206c:	0606                	slli	a2,a2,0x1
    206e:	0606                	slli	a2,a2,0x1
    2070:	0606                	slli	a2,a2,0x1
    2072:	0606                	slli	a2,a2,0x1
    2074:	0606                	slli	a2,a2,0x1
    2076:	0606                	slli	a2,a2,0x1
    2078:	07070707          	0x7070707
    207c:	07070707          	0x7070707
    2080:	07070707          	0x7070707
    2084:	07070707          	0x7070707
    2088:	07070707          	0x7070707
    208c:	07070707          	0x7070707
    2090:	07070707          	0x7070707
    2094:	07070707          	0x7070707
    2098:	07070707          	0x7070707
    209c:	07070707          	0x7070707
    20a0:	07070707          	0x7070707
    20a4:	07070707          	0x7070707
    20a8:	07070707          	0x7070707
    20ac:	07070707          	0x7070707
    20b0:	07070707          	0x7070707
    20b4:	07070707          	0x7070707
    20b8:	0808                	addi	a0,sp,16
    20ba:	0808                	addi	a0,sp,16
    20bc:	0808                	addi	a0,sp,16
    20be:	0808                	addi	a0,sp,16
    20c0:	0808                	addi	a0,sp,16
    20c2:	0808                	addi	a0,sp,16
    20c4:	0808                	addi	a0,sp,16
    20c6:	0808                	addi	a0,sp,16
    20c8:	0808                	addi	a0,sp,16
    20ca:	0808                	addi	a0,sp,16
    20cc:	0808                	addi	a0,sp,16
    20ce:	0808                	addi	a0,sp,16
    20d0:	0808                	addi	a0,sp,16
    20d2:	0808                	addi	a0,sp,16
    20d4:	0808                	addi	a0,sp,16
    20d6:	0808                	addi	a0,sp,16
    20d8:	0808                	addi	a0,sp,16
    20da:	0808                	addi	a0,sp,16
    20dc:	0808                	addi	a0,sp,16
    20de:	0808                	addi	a0,sp,16
    20e0:	0808                	addi	a0,sp,16
    20e2:	0808                	addi	a0,sp,16
    20e4:	0808                	addi	a0,sp,16
    20e6:	0808                	addi	a0,sp,16
    20e8:	0808                	addi	a0,sp,16
    20ea:	0808                	addi	a0,sp,16
    20ec:	0808                	addi	a0,sp,16
    20ee:	0808                	addi	a0,sp,16
    20f0:	0808                	addi	a0,sp,16
    20f2:	0808                	addi	a0,sp,16
    20f4:	0808                	addi	a0,sp,16
    20f6:	0808                	addi	a0,sp,16
    20f8:	0808                	addi	a0,sp,16
    20fa:	0808                	addi	a0,sp,16
    20fc:	0808                	addi	a0,sp,16
    20fe:	0808                	addi	a0,sp,16
    2100:	0808                	addi	a0,sp,16
    2102:	0808                	addi	a0,sp,16
    2104:	0808                	addi	a0,sp,16
    2106:	0808                	addi	a0,sp,16
    2108:	0808                	addi	a0,sp,16
    210a:	0808                	addi	a0,sp,16
    210c:	0808                	addi	a0,sp,16
    210e:	0808                	addi	a0,sp,16
    2110:	0808                	addi	a0,sp,16
    2112:	0808                	addi	a0,sp,16
    2114:	0808                	addi	a0,sp,16
    2116:	0808                	addi	a0,sp,16
    2118:	0808                	addi	a0,sp,16
    211a:	0808                	addi	a0,sp,16
    211c:	0808                	addi	a0,sp,16
    211e:	0808                	addi	a0,sp,16
    2120:	0808                	addi	a0,sp,16
    2122:	0808                	addi	a0,sp,16
    2124:	0808                	addi	a0,sp,16
    2126:	0808                	addi	a0,sp,16
    2128:	0808                	addi	a0,sp,16
    212a:	0808                	addi	a0,sp,16
    212c:	0808                	addi	a0,sp,16
    212e:	0808                	addi	a0,sp,16
    2130:	0808                	addi	a0,sp,16
    2132:	0808                	addi	a0,sp,16
    2134:	0808                	addi	a0,sp,16
    2136:	0808                	addi	a0,sp,16
	...
    239c:	42265b23          	0x42265b23
    23a0:	04dd                	addi	s1,s1,23
    23a2:	7ed943e3          	blt	s2,a3,0x3388
    23a6:	4450                	lw	a2,12(s0)
    23a8:	43a7d333          	0x43a7d333
    23ac:	440d3b23          	sd	zero,1110(s10)
    23b0:	eb85                	bnez	a5,0x23e0
    23b2:	3fe1                	addiw	t6,t6,-8
    23b4:	66e9                	lui	a3,0x1a
    23b6:	5c6a433b          	0x5c6a433b
    23ba:	6fcf4477          	0x6fcf4477
    23be:	f419443b          	0xf419443b
    23c2:	43b6                	lw	t2,76(sp)
    23c4:	43af6dd3          	0x43af6dd3
    23c8:	3168                	fld	fa0,224(a0)
    23ca:	6c08440f          	0x6c08440f
    23ce:	4304                	lw	s1,0(a4)
    23d0:	3439                	addiw	s0,s0,-18
    23d2:	4280                	lw	s0,0(a3)
    23d4:	446d79cb          	0x446d79cb
    23d8:	6831                	lui	a6,0xc
    23da:	4319                	li	t1,6
    23dc:	0429                	addi	s0,s0,10
    23de:	4412                	lw	s0,4(sp)
    23e0:	43585f3b          	0x43585f3b
    23e4:	44496c7b          	0x44496c7b
    23e8:	430c553f 441b5bf8 	0x441b5bf8430c553f
    23f0:	ae98                	fsd	fa4,24(a3)
    23f2:	4352                	lw	t1,20(sp)
    23f4:	45a2                	lw	a1,8(sp)
    23f6:	40d2                	lw	ra,20(sp)
    23f8:	2e66                	fld	ft8,88(sp)
    23fa:	eed9440f          	0xeed9440f
    23fe:	4468                	lw	a0,76(s0)
    2400:	fe35                	bnez	a2,0x237c
    2402:	43a9                	li	t2,10
    2404:	8c29                	xor	s0,s0,a0
    2406:	445e                	lw	s0,212(sp)
    2408:	441451db          	0x441451db
    240c:	43c44083          	lbu	ra,1084(s0) # 0x943c
    2410:	44609b23          	sh	t1,1110(ra)
    2414:	442d9323          	sh	sp,1094(s11)
    2418:	5fbe                	lw	t6,236(sp)
    241a:	4364                	lw	s1,68(a4)
    241c:	44705fcf          	0x44705fcf
    2420:	ac08                	fsd	fa0,24(s0)
    2422:	4140                	lw	s0,4(a0)
    2424:	42ddb127          	fsd	fa3,1058(s11)
    2428:	cd91                	beqz	a1,0x2444
    242a:	445c                	lw	a5,12(s0)
    242c:	42e9472b          	0x42e9472b
    2430:	8b02                	jr	s6
    2432:	5189443b          	0x5189443b
    2436:	4394                	lw	a3,0(a5)
    2438:	82e1                	srli	a3,a3,0x18
    243a:	4421                	li	s0,8
    243c:	1396                	slli	t2,t2,0x25
    243e:	43d5                	li	t2,21
    2440:	3852                	fld	fa6,304(sp)
    2442:	43fa                	lw	t2,156(sp)
    2444:	21aa                	fld	ft3,136(sp)
    2446:	439d                	li	t2,7
    2448:	43da2c8b          	0x43da2c8b
    244c:	d810                	sw	a2,48(s0)
    244e:	4424                	lw	s1,72(s0)
    2450:	75f4                	ld	a3,232(a1)
    2452:	822d442f          	0x822d442f
    2456:	4441                	li	s0,16
    2458:	1cfe                	slli	s9,s9,0x3f
    245a:	bf5c444b          	fnmsub.q	fs0,fs8,fs5,fs7,rmm
    245e:	439f 5604 4475      	0x44755604439f
    2464:	bcfe                	fsd	ft11,120(sp)
    2466:	4429                	li	s0,10
    2468:	d2f2                	sw	t3,100(sp)
    246a:	4316                	lw	t1,68(sp)
    246c:	c9aa                	sw	a0,208(sp)
    246e:	445a                	lw	s0,148(sp)
    2470:	03f8                	addi	a4,sp,460
    2472:	442e                	lw	s0,200(sp)
    2474:	7e98                	ld	a4,56(a3)
    2476:	43bc                	lw	a5,64(a5)
    2478:	1148                	addi	a0,sp,164
    247a:	440d                	li	s0,3
    247c:	422d                	li	tp,11
    247e:	43ed                	li	t2,27
    2480:	43881be7          	0x43881be7
    2484:	98e5                	andi	s1,s1,-7
    2486:	446a                	lw	s0,152(sp)
    2488:	43816687          	0x43816687
    248c:	4406e937          	lui	s2,0x4406e
    2490:	4421c873          	0x4421c873
    2494:	440e4d2f          	0x440e4d2f
    2498:	43fe872b          	0x43fe872b
    249c:	1852                	slli	a6,a6,0x34
    249e:	f9db434b          	fnmsub.s	ft6,fs6,ft9,ft11,rmm
    24a2:	42b0                	lw	a2,64(a3)
    24a4:	438c4b23          	0x438c4b23
    24a8:	fd71                	bnez	a0,0x2484
    24aa:	cad1442f          	0xcad1442f
    24ae:	443d                	li	s0,15
    24b0:	7cbc                	ld	a5,120(s1)
    24b2:	9f7d4427          	fsq	fs7,-1560(s10)
    24b6:	9f5c4417          	auipc	s0,0x9f5c4
    24ba:	ddf443bb          	0xddf443bb
    24be:	43ff                	0x43ff
    24c0:	e906                	sd	ra,144(sp)
    24c2:	4409                	li	s0,2
    24c4:	44247687          	0x44247687
    24c8:	446a3c8b          	0x446a3c8b
    24cc:	2354                	fld	fa3,128(a4)
    24ce:	28e54343          	fmadd.s	ft6,fa0,fa4,ft5,rmm
    24d2:	4414                	lw	a3,8(s0)
    24d4:	851f 42a3 49ec      	0x49ec42a3851f
    24da:	440e                	lw	s0,192(sp)
    24dc:	90e5                	srli	s1,s1,0x39
    24de:	4385                	li	t2,1
    24e0:	446e0937          	lui	s2,0x446e0
    24e4:	1cac                	addi	a1,sp,632
    24e6:	4365                	li	t1,25
    24e8:	3d60                	fld	fs0,248(a0)
    24ea:	4448                	lw	a0,12(s0)
    24ec:	e625                	bnez	a2,0x2554
    24ee:	43a8                	lw	a0,64(a5)
    24f0:	16c9                	addi	a3,a3,-14
    24f2:	4412                	lw	s0,4(sp)
    24f4:	1385                	addi	t2,t2,-31
    24f6:	446c                	lw	a1,76(s0)
    24f8:	c666                	sw	s9,12(sp)
    24fa:	4420                	lw	s0,72(s0)
    24fc:	4461953f 43b8074c 	0x43b8074c4461953f
    2504:	c312                	sw	tp,132(sp)
    2506:	4371                	li	t1,28
    2508:	80c5                	srli	s1,s1,0x11
    250a:	43f4                	lw	a3,68(a5)
    250c:	423d                	li	tp,15
    250e:	4464                	lw	s1,76(s0)
    2510:	43a46d2f          	0x43a46d2f
    2514:	9a0c                	0x9a0c
    2516:	444e                	lw	s0,208(sp)
    2518:	8439                	srai	s0,s0,0xe
    251a:	439c                	lw	a5,0(a5)
    251c:	4635                	li	a2,13
    251e:	4469                	li	s0,26
    2520:	2fdf 4414 7cac      	0x7cac44142fdf
    2526:	4476                	lw	s0,92(sp)
    2528:	43c23be7          	0x43c23be7
    252c:	f0a4                	sd	s1,96(s1)
    252e:	fdd34343          	0xfdd34343
    2532:	0ec94407          	flq	fs0,236(s2) # 0x446e00ec
    2536:	4470                	lw	a2,76(s0)
    2538:	6e25                	lui	t3,0x9
    253a:	4422                	lw	s0,8(sp)
    253c:	440db677          	0x440db677
    2540:	e22d                	bnez	a2,0x25a2
    2542:	4474                	lw	a3,76(s0)
    2544:	6f9e                	ld	t6,448(sp)
    2546:	575c43af          	0x575c43af
    254a:	4479                	li	s0,30
    254c:	4550                	lw	a2,12(a0)
    254e:	4422                	lw	s0,8(sp)
    2550:	444b9323          	sh	tp,1094(s7)
    2554:	46e9                	li	a3,26
    2556:	4424                	lw	s1,72(s0)
    2558:	6d91                	lui	s11,0x4
    255a:	429e                	lw	t0,196(sp)
    255c:	11ec                	addi	a1,sp,236
    255e:	4335                	li	t1,13
    2560:	8a3d                	andi	a2,a2,15
    2562:	4350                	lw	a2,4(a4)
    2564:	deb8                	sw	a4,120(a3)
    2566:	42df 91cb 4479      	0x447991cb42df
    256c:	c21d                	beqz	a2,0x2592
    256e:	4456                	lw	s0,84(sp)
    2570:	7800                	ld	s0,48(s0)
    2572:	441d                	li	s0,7
    2574:	c106                	sw	ra,128(sp)
    2576:	4282                	lw	t0,0(sp)
    2578:	4453d873          	csrrwi	a6,0x445,7
    257c:	3439                	addiw	s0,s0,-18
    257e:	4390                	lw	a2,0(a5)
    2580:	44301be7          	0x44301be7
    2584:	a979                	j	0x2a22
    2586:	43ae                	lw	t2,200(sp)
    2588:	44bc                	lw	a5,72(s1)
    258a:	4479                	li	s0,30
    258c:	9e35                	addw	a2,a2,a3
    258e:	430d                	li	t1,3
    2590:	8fdf 437d 5179      	0x5179437d8fdf
    2596:	4462                	lw	s0,24(sp)
    2598:	e031                	bnez	s0,0x25dc
    259a:	4432                	lw	s0,12(sp)
    259c:	445d85d3          	0x445d85d3
    25a0:	43d70be7          	jalr	s7,1085(a4) # 0x100043d
    25a4:	43841083          	lh	ra,1080(s0) # 0xffffffff9f5c68ee
    25a8:	43cfc7cf          	fnmadd.d	fa5,ft11,ft8,fs0,rmm
    25ac:	2bf8                	fld	fa4,208(a5)
    25ae:	4410                	lw	a2,8(s0)
    25b0:	a2b0                	fsd	fa2,64(a3)
    25b2:	4406                	lw	s0,64(sp)
    25b4:	e76d                	bnez	a4,0x269e
    25b6:	4474                	lw	a3,76(s0)
    25b8:	442f15c3          	0x442f15c3
    25bc:	49ec                	lw	a1,84(a1)
    25be:	443e                	lw	s0,204(sp)
    25c0:	ed91                	bnez	a1,0x25dc
    25c2:	4090                	lw	a2,0(s1)
    25c4:	0189                	addi	gp,gp,2
    25c6:	4371                	li	t1,28
    25c8:	6cac                	ld	a1,88(s1)
    25ca:	624e43f7          	0x624e43f7
    25ce:	0ccd43ef          	jal	t2,0xd669a
    25d2:	42c8                	lw	a0,4(a3)
    25d4:	c7ae                	sw	a1,204(sp)
    25d6:	43f9                	li	t2,30
    25d8:	44583127          	fsd	ft5,1090(a6) # 0xc442
    25dc:	8a7f                	0x8a7f
    25de:	43c9                	li	t2,18
    25e0:	750e                	ld	a0,224(sp)
    25e2:	442d                	li	s0,11
    25e4:	435e1687          	0x435e1687
    25e8:	4e56                	lw	t3,84(sp)
    25ea:	43d0                	lw	a2,4(a5)
    25ec:	0042                	c.slli	zero,0x10
    25ee:	43de                	lw	t2,212(sp)
    25f0:	6fbe                	ld	t6,456(sp)
    25f2:	4394                	lw	a3,0(a5)
    25f4:	4821                	li	a6,8
    25f6:	4434                	lw	a3,72(s0)
    25f8:	f51f 438e 074c      	0x74c438ef51f
    25fe:	4429                	li	s0,10
    2600:	3e14                	fld	fa3,56(a2)
    2602:	fd2f441b          	0xfd2f441b
    2606:	439e                	lw	t2,196(sp)
    2608:	0625                	addi	a2,a2,9
    260a:	429d                	li	t0,7
    260c:	051f 4360 cc08      	0xcc084360051f
    2612:	7a3d43af          	0x7a3d43af
    2616:	446a                	lw	s0,152(sp)
    2618:	37df 4407 13f8      	0x13f8440737df
    261e:	4390                	lw	a2,0(a5)
    2620:	b0f6                	fsd	ft9,96(sp)
    2622:	4421                	li	s0,8
    2624:	fae1                	bnez	a3,0x25f4
    2626:	42ee                	lw	t0,216(sp)
    2628:	4329ec8b          	0x4329ec8b
    262c:	c79e                	sw	t2,204(sp)
    262e:	4419                	li	s0,6
    2630:	e78d                	bnez	a5,0x265a
    2632:	81684403          	lbu	s0,-2026(a6)
    2636:	a8524417          	auipc	s0,0xa8524
    263a:	4390                	lw	a2,0(a5)
    263c:	d042                	sw	a6,32(sp)
    263e:	43c2                	lw	t2,16(sp)
    2640:	1375                	addi	t1,t1,-3
    2642:	96664447          	fmsub.q	fs0,fa2,ft6,fs2,rmm
    2646:	665643af          	0x665643af
    264a:	4448                	lw	a0,12(s0)
    264c:	89ba                	mv	s3,a4
    264e:	1fcf43e3          	blt	t5,t3,0x3034
    2652:	4434                	lw	a3,72(s0)
    2654:	18f6                	slli	a7,a7,0x3d
    2656:	bb12438b          	0xbb12438b
    265a:	443d                	li	s0,15
    265c:	f7f0                	sd	a2,232(a5)
    265e:	5efa43b7          	lui	t2,0x5efa4
    2662:	443a                	lw	s0,140(sp)
    2664:	52b0                	lw	a2,96(a3)
    2666:	645a43b3          	0x645a43b3
    266a:	42b8                	lw	a4,64(a3)
    266c:	12c1                	addi	t0,t0,-16
    266e:	4412                	lw	s0,4(sp)
    2670:	4148                	lw	a0,4(a0)
    2672:	3a5e4477          	0x3a5e4477
    2676:	a168427b          	0xa168427b
    267a:	58424387          	flq	ft7,1412(tp) # 0x584
    267e:	4476                	lw	s0,92(sp)
    2680:	5656                	lw	a2,116(sp)
    2682:	4455                	li	s0,21
    2684:	a76d                	j	0x2e2e
    2686:	43c9                	li	t2,18
    2688:	2625                	addiw	a2,a2,9
    268a:	4445                	li	s0,17
    268c:	53f8                	lw	a4,100(a5)
    268e:	43ad                	li	t2,11
    2690:	4404fd3f 440168d5 	0x440168d54404fd3f
    2698:	b2f2                	fsd	ft8,352(sp)
    269a:	435e                	lw	t1,212(sp)
    269c:	cf6d                	beqz	a4,0x2796
    269e:	8aa0440b          	0x8aa0440b
    26a2:	43e6                	lw	t2,88(sp)
    26a4:	0ec9                	addi	t4,t4,18
    26a6:	98d54463          	blt	a0,a3,0x182e
    26aa:	4371                	li	t1,28
    26ac:	4441e1db          	0x4441e1db
    26b0:	324e                	fld	ft4,240(sp)
    26b2:	38d543b3          	0x38d543b3
    26b6:	437f                	0x437f
    26b8:	15a2                	slli	a1,a1,0x28
    26ba:	43a6                	lw	t2,72(sp)
    26bc:	4442b093          	sltiu	ra,t0,1092
    26c0:	442b252f          	amoor.w.aq	a0,sp,(s6)
    26c4:	acee                	fsd	fs11,88(sp)
    26c6:	4415                	li	s0,5
    26c8:	0148                	addi	a0,sp,132
    26ca:	4439                	li	s0,14
    26cc:	aac1                	j	0x289c
    26ce:	24bc430f          	0x24bc430f
    26d2:	43df 78d5 4207      	0x420778d543df
    26d8:	fc29                	bnez	s0,0x2632
    26da:	6e98439b          	0x6e98439b
    26de:	42fa                	lw	t0,156(sp)
    26e0:	e581                	bnez	a1,0x26e8
    26e2:	4439                	li	s0,14
    26e4:	54ac                	lw	a1,104(s1)
    26e6:	59cb446b          	0x59cb446b
    26ea:	652f440b          	0x652f440b
    26ee:	4469                	li	s0,26
    26f0:	8979                	andi	a0,a0,30
    26f2:	eb4443ef          	jal	t2,0xfffffffffff46da6
    26f6:	5b124447          	fmsub.d	fs0,ft4,fa7,fa1,rmm
    26fa:	4010440b          	0x4010440b
    26fe:	440a                	lw	s0,128(sp)
    2700:	58b4                	lw	a3,112(s1)
    2702:	bd714467          	0xbd714467
    2706:	139643d7          	0x139643d7
    270a:	3a8f4447          	fmsub.d	fs0,ft10,fs0,ft7,rmm
    270e:	4422                	lw	s0,8(sp)
    2710:	43b2de77          	0x43b2de77
    2714:	446e1093          	0x446e1093
    2718:	c354                	sw	a3,4(a4)
    271a:	445e                	lw	s0,212(sp)
    271c:	e76d                	bnez	a4,0x2806
    271e:	84bc438f          	0x84bc438f
    2722:	4426                	lw	s0,72(sp)
    2724:	624e                	ld	tp,208(sp)
    2726:	419c                	lw	a5,0(a1)
    2728:	b49c                	fsd	fa5,40(s1)
    272a:	4400                	lw	s0,8(s0)
    272c:	676d                	lui	a4,0x1b
    272e:	7ab04247          	fmsub.d	ft4,ft0,fa1,fa5,rmm
    2732:	ac8b440b          	0xac8b440b
    2736:	42ac                	lw	a1,64(a3)
    2738:	80f6                	mv	ra,t4
    273a:	4459                	li	s0,22
    273c:	bcee                	fsd	fs11,120(sp)
    273e:	42be                	lw	t0,204(sp)
    2740:	544a                	lw	s0,176(sp)
    2742:	4455                	li	s0,21
    2744:	a99a                	fsd	ft6,208(sp)
    2746:	43dc                	lw	a5,4(a5)
    2748:	1c29                	addi	s8,s8,-22
    274a:	43dc                	lw	a5,4(a5)
    274c:	d0d5                	beqz	s1,0x26f0
    274e:	4412                	lw	s0,4(sp)
    2750:	8419                	srai	s0,s0,0x6
    2752:	4274                	lw	a3,68(a2)
    2754:	bc39                	j	0x2172
    2756:	4419                	li	s0,6
    2758:	b23d                	j	0x2086
    275a:	4429                	li	s0,10
    275c:	43bf1333          	0x43bf1333
    2760:	4375                	li	t1,29
    2762:	43c6                	lw	t2,80(sp)
    2764:	77ae                	ld	a5,232(sp)
    2766:	438c                	lw	a1,0(a5)
    2768:	4119a5e3          	0x4119a5e3
    276c:	1e98                	addi	a4,sp,880
    276e:	444a                	lw	s0,144(sp)
    2770:	3958                	fld	fa4,176(a0)
    2772:	418a                	lw	gp,128(sp)
    2774:	e635                	bnez	a2,0x27e0
    2776:	4472                	lw	s0,28(sp)
    2778:	432a9687          	0x432a9687
    277c:	d604                	sw	s1,40(a2)
    277e:	444c                	lw	a1,12(s0)
    2780:	9ac1                	andi	a3,a3,-16
    2782:	4391                	li	t2,4
    2784:	5f7d                	li	t5,-1
    2786:	43ac                	lw	a1,64(a5)
    2788:	43be2127          	fsw	fs11,1058(t3) # 0x9422
    278c:	7560                	ld	s0,232(a0)
    278e:	43e1                	li	t2,24
    2790:	0656                	slli	a2,a2,0x15
    2792:	4406                	lw	s0,64(sp)
    2794:	275c                	fld	fa5,136(a4)
    2796:	4400                	lw	s0,8(s0)
    2798:	d375                	beqz	a4,0x277c
    279a:	4339                	li	t1,14
    279c:	4ee9                	li	t4,26
    279e:	4471                	li	s0,28
    27a0:	4810                	lw	a2,16(s0)
    27a2:	4465                	li	s0,25
    27a4:	e375                	bnez	a4,0x2888
    27a6:	43ad                	li	t2,11
    27a8:	f20c                	sd	a1,32(a2)
    27aa:	4406                	lw	s0,64(sp)
    27ac:	444a2b23          	sw	tp,1110(s4)
    27b0:	ca4e                	sw	s3,20(sp)
    27b2:	4475                	li	s0,29
    27b4:	9d0e                	add	s10,s10,gp
    27b6:	445c                	lw	a5,12(s0)
    27b8:	e8c5                	bnez	s1,0x2868
    27ba:	445d                	li	s0,23
    27bc:	6375                	lui	t1,0x1d
    27be:	4406                	lw	s0,64(sp)
    27c0:	22d1                	addiw	t0,t0,20
    27c2:	a429425b          	0xa429425b
    27c6:	446c                	lw	a1,76(s0)
    27c8:	1042                	c.slli	zero,0x30
    27ca:	4419                	li	s0,6
    27cc:	5010                	lw	a2,32(s0)
    27ce:	e0f6442f          	0xe0f6442f
    27d2:	446d                	li	s0,27
    27d4:	06e9                	addi	a3,a3,26
    27d6:	43b2                	lw	t2,12(sp)
    27d8:	f419                	bnez	s0,0x26e6
    27da:	fdb243ef          	jal	t2,0xfffffffffff277b4
    27de:	440d                	li	s0,3
    27e0:	7fbe                	ld	t6,488(sp)
    27e2:	e6144317          	auipc	t1,0xe6144
    27e6:	445e                	lw	s0,212(sp)
    27e8:	51ec                	lw	a1,100(a1)
    27ea:	40f4                	lw	a3,68(s1)
    27ec:	41b0a3d7          	0x41b0a3d7
    27f0:	7df4                	ld	a3,248(a1)
    27f2:	4420                	lw	s0,72(s0)
    27f4:	0375                	addi	t1,t1,29
    27f6:	440e                	lw	s0,192(sp)
    27f8:	b6c9                	j	0x23ba
    27fa:	7b2343a7          	fsq	fs2,1959(t1) # 0xffffffffe6146f89
    27fe:	4426                	lw	s0,72(sp)
    2800:	875c                	0x875c
    2802:	4436                	lw	s0,76(sp)
    2804:	43d3872b          	0x43d3872b
    2808:	42be472b          	0x42be472b
    280c:	2ba6                	fld	fs7,72(sp)
    280e:	43d9                	li	t2,22
    2810:	16d9                	addi	a3,a3,-10
    2812:	4436                	lw	s0,76(sp)
    2814:	f22d                	bnez	a2,0x2776
    2816:	431e                	lw	t1,196(sp)
    2818:	3c29                	addiw	s8,s8,-22
    281a:	438c                	lw	a1,0(a5)
    281c:	401e147b          	0x401e147b
    2820:	96e9                	srai	a3,a3,0x3a
    2822:	43c5                	li	t2,17
    2824:	42a8072b          	0x42a8072b
    2828:	2c5a                	fld	fs8,400(sp)
    282a:	442c                	lw	a1,72(s0)
    282c:	b375                	j	0x25d8
    282e:	c26f4377          	0xc26f4377
    2832:	a8f64463          	blt	a2,a5,0x1aba
    2836:	4245                	li	tp,17
    2838:	70a4                	ld	s1,96(s1)
    283a:	43ee                	lw	t2,216(sp)
    283c:	a3b6                	fsd	fa3,448(sp)
    283e:	43d9                	li	t2,22
    2840:	c419                	beqz	s0,0x284e
    2842:	3d0e444b          	0x3d0e444b
    2846:	4446                	lw	s0,80(sp)
    2848:	4436671b          	0x4436671b
    284c:	47ae                	lw	a5,200(sp)
    284e:	4459                	li	s0,22
    2850:	91aa                	add	gp,gp,a0
    2852:	4384                	lw	s1,0(a5)
    2854:	43f337cf          	fnmadd.d	fa5,ft6,ft11,fs0,rup
    2858:	42ff9f3b          	0x42ff9f3b
    285c:	1e98                	addi	a4,sp,880
    285e:	3fbe43cf          	fnmadd.q	ft7,ft8,fs11,ft7,rmm
    2862:	436c                	lw	a1,68(a4)
    2864:	9148                	0x9148
    2866:	43b8                	lw	a4,64(a5)
    2868:	67ae                	ld	a5,200(sp)
    286a:	4356                	lw	t1,84(sp)
    286c:	2d71                	addiw	s10,s10,28
    286e:	4409                	li	s0,2
    2870:	e4dd                	bnez	s1,0x291e
    2872:	4334                	lw	a3,64(a4)
    2874:	8571                	srai	a0,a0,0x1c
    2876:	4401                	li	s0,0
    2878:	b852                	fsd	fs4,48(sp)
    287a:	40ce                	lw	ra,208(sp)
    287c:	1800                	addi	s0,sp,48
    287e:	445e                	lw	s0,212(sp)
    2880:	c979                	beqz	a0,0x2956
    2882:	915843fb          	0x915843fb
    2886:	442a                	lw	s0,136(sp)
    2888:	441507cf          	0x441507cf
    288c:	6ae1                	lui	s5,0x18
    288e:	438e                	lw	t2,192(sp)
    2890:	a8f6                	fsd	ft9,80(sp)
    2892:	432d                	li	t1,11
    2894:	445a                	lw	s0,148(sp)
    2896:	4384                	lw	s1,0(a5)
    2898:	ea7f                	0xea7f
    289a:	4420                	lw	s0,72(s0)
    289c:	43f9bd2f          	amoor.d.rl	s10,t6,(s3)
    28a0:	776d                	lui	a4,0xffffb
    28a2:	43ad                	li	t2,11
    28a4:	5c08                	lw	a0,56(s0)
    28a6:	4391                	li	t2,4
    28a8:	f1ec                	sd	a1,224(a1)
    28aa:	4415                	li	s0,5
    28ac:	446049cb          	0x446049cb
    28b0:	4289cdd3          	0x4289cdd3
    28b4:	4419                	li	s0,6
    28b6:	76d94357          	0x76d94357
    28ba:	4454                	lw	a3,12(s0)
    28bc:	4436c677          	0x4436c677
    28c0:	9bb6                	add	s7,s7,a3
    28c2:	4424                	lw	s1,72(s0)
    28c4:	277d                	addiw	a4,a4,31
    28c6:	442c                	lw	a1,72(s0)
    28c8:	dcee                	sw	s11,120(sp)
    28ca:	441a                	lw	s0,132(sp)
    28cc:	3581                	addiw	a1,a1,-32
    28ce:	599a437b          	0x599a437b
    28d2:	909342f3          	0x909342f3
    28d6:	4444                	lw	s1,12(s0)
    28d8:	4303d9db          	0x4303d9db
    28dc:	f179                	bnez	a0,0x28a2
    28de:	440a                	lw	s0,128(sp)
    28e0:	444f27cf          	0x444f27cf
    28e4:	21aa                	fld	ft3,136(sp)
    28e6:	c72b4397          	auipc	t2,0xc72b4
    28ea:	4426                	lw	s0,72(sp)
    28ec:	176d                	addi	a4,a4,-5
    28ee:	4404                	lw	s1,8(s0)
    28f0:	e148                	sd	a0,128(a0)
    28f2:	43d8                	lw	a4,4(a5)
    28f4:	44082873          	csrrs	a6,0x440,a6
    28f8:	fb64                	sd	s1,240(a4)
    28fa:	278d43f3          	0x278d43f3
    28fe:	43a1                	li	t2,8
    2900:	7842                	ld	a6,48(sp)
    2902:	443c                	lw	a5,72(s0)
    2904:	446cdf2b          	0x446cdf2b
    2908:	42fb9687          	0x42fb9687
    290c:	be98                	fsd	fa4,56(a3)
    290e:	b010438f          	0xb010438f
    2912:	441c                	lw	a5,8(s0)
    2914:	0968                	addi	a0,sp,156
    2916:	444e                	lw	s0,208(sp)
    2918:	b021                	j	0x2120
    291a:	4166                	lw	sp,88(sp)
    291c:	749c                	ld	a5,40(s1)
    291e:	4398                	lw	a4,0(a5)
    2920:	41296c8b          	0x41296c8b
    2924:	32d1                	addiw	t0,t0,-12
    2926:	4445                	li	s0,17
    2928:	cefa                	sw	t5,92(sp)
    292a:	43c9                	li	t2,18
    292c:	6852                	ld	a6,272(sp)
    292e:	020c4437          	lui	s0,0x20c4
    2932:	42d4                	lw	a3,4(a3)
    2934:	f8e5                	bnez	s1,0x2924
    2936:	dcee446f          	jal	s0,0xfffffffffffe6f04
    293a:	445a442f          	0x445a442f
    293e:	8a5e43b7          	lui	t2,0x8a5e4
    2942:	444c                	lw	a1,12(s0)
    2944:	ad0e                	fsd	ft3,152(sp)
    2946:	4434                	lw	a3,72(s0)
    2948:	447105c3          	0x447105c3
    294c:	24dd                	addiw	s1,s1,23
    294e:	33f84393          	xori	t2,a6,831
    2952:	e2b043cb          	fnmsub.d	ft7,ft0,fa1,ft8,rmm
    2956:	99794473          	0x99794473
    295a:	445a                	lw	s0,148(sp)
    295c:	5e46                	lw	t3,112(sp)
    295e:	18214423          	0x18214423
    2962:	4456                	lw	s0,84(sp)
    2964:	3c6a                	fld	fs8,184(sp)
    2966:	2873443b          	0x2873443b
    296a:	42ad                	li	t0,11
    296c:	bae1                	j	0x2344
    296e:	42b6                	lw	t0,76(sp)
    2970:	e76d                	bnez	a4,0x2a5a
    2972:	4271                	li	tp,28
    2974:	67ae                	ld	a5,200(sp)
    2976:	43bd                	li	t2,15
    2978:	3d1f 4425 1cac      	0x1cac44253d1f
    297e:	fd2f42d3          	0xfd2f42d3
    2982:	4426                	lw	s0,72(sp)
    2984:	42cdec8b          	0x42cdec8b
    2988:	4319126f          	jal	tp,0x945b8
    298c:	43bef28f          	0x43bef28f
    2990:	a354                	fsd	fa3,128(a4)
    2992:	42f2                	lw	t0,28(sp)
    2994:	f106                	sd	ra,160(sp)
    2996:	4422                	lw	s0,8(sp)
    2998:	3a5e                	fld	fs4,496(sp)
    299a:	42c4                	lw	s1,4(a3)
    299c:	444e63d7          	0x444e63d7
    29a0:	43ce4f1b          	0x43ce4f1b
    29a4:	2979                	addiw	s2,s2,30
    29a6:	4452                	lw	s0,20(sp)
    29a8:	56c9                	li	a3,-14
    29aa:	436c                	lw	a1,68(a4)
    29ac:	74fe                	ld	s1,504(sp)
    29ae:	43b2                	lw	t2,12(sp)
    29b0:	4146a3d7          	0x4146a3d7
    29b4:	47f0                	lw	a2,76(a5)
    29b6:	4314                	lw	a3,0(a4)
    29b8:	d24e                	sw	s3,36(sp)
    29ba:	322d43d3          	0x322d43d3
    29be:	425a                	lw	tp,148(sp)
    29c0:	44714d3f 430c2fdf 	0x430c2fdf44714d3f
    29c8:	43583893          	sltiu	a7,a6,1077
    29cc:	446eddc3          	0x446eddc3
    29d0:	441b4b33          	0x441b4b33
    29d4:	8b85                	andi	a5,a5,1
    29d6:	d45a43ab          	0xd45a43ab
    29da:	43b4                	lw	a3,64(a5)
    29dc:	44056f3b          	0x44056f3b
    29e0:	71ba                	ld	gp,424(sp)
    29e2:	4466                	lw	s0,88(sp)
    29e4:	6148                	ld	a0,128(a0)
    29e6:	443d                	li	s0,15
    29e8:	ce04                	sw	s1,24(a2)
    29ea:	4432                	lw	s0,12(sp)
    29ec:	44026be7          	0x44026be7
    29f0:	e831                	bnez	s0,0x2a44
    29f2:	4421                	li	s0,8
    29f4:	6614                	ld	a3,8(a2)
    29f6:	4451                	li	s0,20
    29f8:	4395dc8b          	0x4395dc8b
    29fc:	1312                	slli	t1,t1,0x24
    29fe:	4414                	lw	a3,8(s0)
    2a00:	b4bc                	fsd	fa5,104(s1)
    2a02:	445d                	li	s0,23
    2a04:	51ec                	lw	a1,100(a1)
    2a06:	4152                	lw	sp,20(sp)
    2a08:	a77d                	j	0x31b6
    2a0a:	442a                	lw	s0,136(sp)
    2a0c:	44dd                	li	s1,23
    2a0e:	432d                	li	t1,11
    2a10:	c9ba                	sw	a4,208(sp)
    2a12:	4211                	li	tp,4
    2a14:	427c77cf          	fnmadd.d	fa5,fs8,ft7,fs0
    2a18:	fccd                	bnez	s1,0x29d2
    2a1a:	43f6                	lw	t2,92(sp)
    2a1c:	26e9                	addiw	a3,a3,26
    2a1e:	42f2                	lw	t0,28(sp)
    2a20:	c364                	sw	s1,68(a4)
    2a22:	4409                	li	s0,2
    2a24:	be35                	j	0x2560
    2a26:	4305                	li	t1,1
    2a28:	4e98                	lw	a4,24(a3)
    2a2a:	4406                	lw	s0,64(sp)
    2a2c:	8ea8                	0x8ea8
    2a2e:	443d                	li	s0,15
    2a30:	7a4e                	ld	s4,240(sp)
    2a32:	4472                	lw	s0,28(sp)
    2a34:	43ba0333          	0x43ba0333
    2a38:	c810                	sw	a2,16(s0)
    2a3a:	4420                	lw	s0,72(s0)
    2a3c:	446ded3f 43d9276d 	0x43d9276d446ded3f
    2a44:	421e072b          	0x421e072b
    2a48:	b22d                	j	0x2372
    2a4a:	e83143cf          	fnmadd.s	ft7,ft2,ft3,ft9,rmm
    2a4e:	4301                	li	t1,0
    2a50:	43979893          	0x43979893
    2a54:	42ddf5c3          	fmadd.d	fa1,fs11,fa3,fs0
    2a58:	55a2                	lw	a1,40(sp)
    2a5a:	f7be43db          	0xf7be43db
    2a5e:	1d814453          	0x1d814453
    2a62:	86664457          	0x86664457
    2a66:	43da                	lw	t2,148(sp)
    2a68:	434b1e77          	0x434b1e77
    2a6c:	82d1                	srli	a3,a3,0x14
    2a6e:	437f                	0x437f
    2a70:	5419                	li	s0,-26
    2a72:	b70a43ef          	jal	t2,0xfffffffffffa6de2
    2a76:	4386                	lw	t2,64(sp)
    2a78:	44771b23          	sh	t2,1110(a4) # 0xffffffffffffb456
    2a7c:	cae1                	beqz	a3,0x2b4c
    2a7e:	43cc                	lw	a1,4(a5)
    2a80:	cd1f 4428 145a      	0x145a4428cd1f
    2a86:	441d                	li	s0,7
    2a88:	cf6d                	beqz	a4,0x2b82
    2a8a:	945a4433          	0x945a4433
    2a8e:	a8f643c7          	fmsub.s	ft7,fa2,fa5,fs5,rmm
    2a92:	5f0a4477          	0x5f0a4477
    2a96:	4409                	li	s0,2
    2a98:	3c4a                	fld	fs8,176(sp)
    2a9a:	43a9                	li	t2,10
    2a9c:	5b85                	li	s7,-31
    2a9e:	443c                	lw	a5,72(s0)
    2aa0:	67ae                	ld	a5,200(sp)
    2aa2:	43e1                	li	t2,24
    2aa4:	06fa                	slli	a3,a3,0x1e
    2aa6:	440d                	li	s0,3
    2aa8:	4ac1                	li	s5,16
    2aaa:	441e                	lw	s0,196(sp)
    2aac:	71aa                	ld	gp,168(sp)
    2aae:	54fe432b          	0x54fe432b
    2ab2:	3d71431b          	0x3d71431b
    2ab6:	b000419b          	0xb000419b
    2aba:	4421                	li	s0,8
    2abc:	4435dbd7          	0x4435dbd7
    2ac0:	43e27f1b          	0x43e27f1b
    2ac4:	c958                	sw	a4,20(a0)
    2ac6:	43fa                	lw	t2,156(sp)
    2ac8:	9cee                	add	s9,s9,s11
    2aca:	43d5                	li	t2,21
    2acc:	7968                	ld	a0,240(a0)
    2ace:	4442                	lw	s0,16(sp)
    2ad0:	43fe95e3          	bne	t4,t6,0x36fa
    2ad4:	422c5917          	auipc	s2,0x422c5
    2ad8:	44773f2b          	0x44773f2b
    2adc:	7f6d                	lui	t5,0xffffb
    2ade:	443c                	lw	a5,72(s0)
    2ae0:	0c29                	addi	s8,s8,10
    2ae2:	43d5                	li	t2,21
    2ae4:	42a2c937          	lui	s2,0x42a2c
    2ae8:	c6a8                	sw	a0,72(a3)
    2aea:	7852414b          	fnmsub.s	ft2,ft4,ft5,fa5,rmm
    2aee:	434a                	lw	t1,144(sp)
    2af0:	43f1a127          	fsw	ft11,1058(gp)
    2af4:	4f9e                	lw	t6,196(sp)
    2af6:	4455                	li	s0,21
    2af8:	430e3be7          	0x430e3be7
    2afc:	bc29                	j	0x2516
    2afe:	4319                	li	t1,6
    2b00:	e4fe                	sd	t6,72(sp)
    2b02:	43a9                	li	t2,10
    2b04:	1591                	addi	a1,a1,-28
    2b06:	443e                	lw	s0,204(sp)
    2b08:	6831                	lui	a6,0xc
    2b0a:	9b8543c3          	fmadd.d	ft7,fa0,fs8,fs3,rmm
    2b0e:	43b2                	lw	t2,12(sp)
    2b10:	424bcdd3          	0x424bcdd3
    2b14:	d51f 446b 27f0      	0x27f0446bd51f
    2b1a:	aa3d432b          	0xaa3d432b
    2b1e:	4466                	lw	s0,88(sp)
    2b20:	62a0                	ld	s0,64(a3)
    2b22:	4416                	lw	s0,68(sp)
    2b24:	2df4                	fld	fa3,216(a1)
    2b26:	43a4                	lw	s1,64(a5)
    2b28:	42d2f127          	0x42d2f127
    2b2c:	5ccd                	li	s9,-13
    2b2e:	43f8                	lw	a4,68(a5)
    2b30:	3906                	fld	fs2,96(sp)
    2b32:	4472                	lw	s0,28(sp)
    2b34:	5ae1                	li	s5,-8
    2b36:	43dd                	li	t2,23
    2b38:	86a8                	0x86a8
    2b3a:	42f2                	lw	t0,28(sp)
    2b3c:	3ba6                	fld	fs7,104(sp)
    2b3e:	4401                	li	s0,0
    2b40:	fe98                	sd	a4,56(a3)
    2b42:	6800445b          	0x6800445b
    2b46:	4420                	lw	s0,72(s0)
    2b48:	c5a2                	sw	s0,200(sp)
    2b4a:	5a3d42a3          	0x5a3d42a3
    2b4e:	438a                	lw	t2,128(sp)
    2b50:	9439                	srai	s0,s0,0x2e
    2b52:	4459                	li	s0,22
    2b54:	89fc                	0x89fc
    2b56:	4444                	lw	s1,12(s0)
    2b58:	2364                	fld	fs1,192(a4)
    2b5a:	4416                	lw	s0,68(sp)
    2b5c:	ec08                	sd	a0,24(s0)
    2b5e:	d2b042e3          	bgtz	a1,0x2882
    2b62:	4416                	lw	s0,68(sp)
    2b64:	a0a4                	fsd	fs1,64(s1)
    2b66:	4452                	lw	s0,20(sp)
    2b68:	eeb8                	sd	a4,88(a3)
    2b6a:	4459                	li	s0,22
    2b6c:	c550                	sw	a2,12(a0)
    2b6e:	4462                	lw	s0,24(sp)
    2b70:	445ddfcf          	0x445ddfcf
    2b74:	b312                	fsd	ft4,416(sp)
    2b76:	4389                	li	t2,2
    2b78:	a396                	fsd	ft5,448(sp)
    2b7a:	4418                	lw	a4,8(s0)
    2b7c:	2189                	addiw	gp,gp,2
    2b7e:	436d                	li	t1,27
    2b80:	5375                	li	t1,-3
    2b82:	43ca                	lw	t2,144(sp)
    2b84:	eb85                	bnez	a5,0x2bb4
    2b86:	2a3d4203          	lbu	tp,675(s10)
    2b8a:	436a                	lw	t1,152(sp)
    2b8c:	22c1                	addiw	t0,t0,16
    2b8e:	4444                	lw	s1,12(s0)
    2b90:	6c6a                	ld	s8,152(sp)
    2b92:	443a                	lw	s0,140(sp)
    2b94:	4c29                	li	s8,10
    2b96:	440d                	li	s0,3
    2b98:	9c6a                	add	s8,s8,s10
    2b9a:	adb24403          	lbu	s0,-1317(tp) # 0xfffffffffffffadb
    2b9e:	43b2                	lw	t2,12(sp)
    2ba0:	c0a4                	sw	s1,64(s1)
    2ba2:	4389                	li	t2,2
    2ba4:	ea7f                	0xea7f
    2ba6:	4448                	lw	a0,12(s0)
    2ba8:	c979                	beqz	a0,0x2c7e
    2baa:	43dc                	lw	a5,4(a5)
    2bac:	c8f6                	sw	t4,80(sp)
    2bae:	444c                	lw	a1,12(s0)
    2bb0:	4362f687          	0x4362f687
    2bb4:	cc19                	beqz	s0,0x2bd2
    2bb6:	373b443b          	0x373b443b
    2bba:	443c                	lw	a5,72(s0)
    2bbc:	1c08                	addi	a0,sp,560
    2bbe:	438c                	lw	a1,0(a5)
    2bc0:	de25                	beqz	a2,0x2b38
    2bc2:	e4dd446b          	0xe4dd446b
    2bc6:	42aa                	lw	t0,136(sp)
    2bc8:	925e                	add	tp,tp,s7
    2bca:	4435                	li	s0,13
    2bcc:	43e565c3          	fmadd.d	fa1,fa0,ft10,fs0,unknown
    2bd0:	44316883          	lwu	a7,1091(sp)
    2bd4:	7581                	lui	a1,0xfffe0
    2bd6:	3f7d43e3          	blt	s10,s7,0x37bc
    2bda:	4349                	li	t1,18
    2bdc:	b550                	fsd	fa2,168(a0)
    2bde:	4431                	li	s0,12
    2be0:	46a8                	lw	a0,72(a3)
    2be2:	4259                	li	tp,22
    2be4:	c042                	sw	a6,0(sp)
    2be6:	43e5                	li	t2,25
    2be8:	99ec                	0x99ec
    2bea:	443d                	li	s0,15
    2bec:	42279687          	0x42279687
    2bf0:	8106                	mv	sp,ra
    2bf2:	4254                	lw	a3,4(a2)
    2bf4:	0b44                	addi	s1,sp,404
    2bf6:	437d                	li	t1,31
    2bf8:	e560                	sd	s0,200(a0)
    2bfa:	43c6                	lw	t2,80(sp)
    2bfc:	f22d                	bnez	a2,0x2b5e
    2bfe:	43bc                	lw	a5,64(a5)
    2c00:	47ae                	lw	a5,200(sp)
    2c02:	4225                	li	tp,9
    2c04:	3396                	fld	ft7,352(sp)
    2c06:	43fe                	lw	t2,220(sp)
    2c08:	430d7b23          	0x430d7b23
    2c0c:	0852                	slli	a6,a6,0x14
    2c0e:	1f1b442f          	0x1f1b442f
    2c12:	43d0                	lw	a2,4(a5)
    2c14:	1821                	addi	a6,a6,-24
    2c16:	f3c74457          	0xf3c74457
    2c1a:	443a                	lw	s0,140(sp)
    2c1c:	370a                	fld	fa4,160(sp)
    2c1e:	43f0                	lw	a2,68(a5)
    2c20:	fa5e                	sd	s7,304(sp)
    2c22:	4e56435b          	0x4e56435b
    2c26:	4439                	li	s0,14
    2c28:	0e14                	addi	a3,sp,784
    2c2a:	dba643ef          	jal	t2,0xfffffffffff671e4
    2c2e:	43f9                	li	t2,30
    2c30:	b51f 4440 4bf8      	0x4bf84440b51f
    2c36:	4431                	li	s0,12
    2c38:	43340f1b          	addiw	t5,s0,1075
    2c3c:	48b4                	lw	a3,80(s1)
    2c3e:	70e54247          	fmsub.s	ft4,fa0,fa4,fa4,rmm
    2c42:	43f1                	li	t2,28
    2c44:	b76d                	j	0x2bee
    2c46:	43b9                	li	t2,14
    2c48:	e3a6                	sd	s1,448(sp)
    2c4a:	442c                	lw	a1,72(s0)
    2c4c:	445a75c3          	0x445a75c3
    2c50:	4646                	lw	a2,80(sp)
    2c52:	4435                	li	s0,13
    2c54:	6f9e                	ld	t6,448(sp)
    2c56:	446c                	lw	a1,76(s0)
    2c58:	9f7d                	0x9f7d
    2c5a:	432d                	li	t1,11
    2c5c:	12c1                	addi	t0,t0,-16
    2c5e:	4478                	lw	a4,76(s0)
    2c60:	12f2                	slli	t0,t0,0x3c
    2c62:	433a                	lw	t1,140(sp)
    2c64:	b842                	fsd	fa6,48(sp)
    2c66:	91aa4403          	lbu	s0,-1766(s4)
    2c6a:	4464                	lw	s1,76(s0)
    2c6c:	74dd                	lui	s1,0xffff7
    2c6e:	4434                	lw	a3,72(s0)
    2c70:	cac1                	beqz	a3,0x2d00
    2c72:	3fd1                	addiw	t6,t6,-12
    2c74:	43d9b28f          	0x43d9b28f
    2c78:	cb02                	sw	zero,148(sp)
    2c7a:	4470                	lw	a2,76(s0)
    2c7c:	f0a4                	sd	s1,96(s1)
    2c7e:	4368                	lw	a0,68(a4)
    2c80:	fefa                	sd	t5,376(sp)
    2c82:	999a4377          	0x999a4377
    2c86:	43f8                	lw	a4,68(a5)
    2c88:	5979                	li	s2,-2
    2c8a:	43e8                	lw	a0,68(a5)
    2c8c:	442e75d3          	0x442e75d3
    2c90:	43b5372b          	0x43b5372b
    2c94:	c6a8                	sw	a0,72(a3)
    2c96:	7b9641f7          	0x7b9641f7
    2c9a:	4402                	lw	s0,0(sp)
    2c9c:	5000                	lw	s0,32(s0)
    2c9e:	43ae                	lw	t2,200(sp)
    2ca0:	4369add3          	0x4369add3
    2ca4:	b581                	j	0x2ae4
    2ca6:	437a                	lw	t1,156(sp)
    2ca8:	af9e                	fsd	ft7,472(sp)
    2caa:	42f1                	li	t0,28
    2cac:	370a                	fld	fa4,160(sp)
    2cae:	8f5c43af          	0x8f5c43af
    2cb2:	f0a44223          	0xf0a44223
    2cb6:	437a                	lw	t1,156(sp)
    2cb8:	4442d5e3          	bge	t0,tp,0x3902
    2cbc:	6550                	ld	a2,136(a0)
    2cbe:	6e98440f          	0x6e98440f
    2cc2:	01274343          	fmadd.s	ft6,fa4,fs2,ft0,rmm
    2cc6:	4444                	lw	s1,12(s0)
    2cc8:	3c6a                	fld	fs8,184(sp)
    2cca:	4321                	li	t1,8
    2ccc:	450e                	lw	a0,192(sp)
    2cce:	c9cb443b          	0xc9cb443b
    2cd2:	4439                	li	s0,14
    2cd4:	2c4a                	fld	fs8,144(sp)
    2cd6:	a93743fb          	0xa93743fb
    2cda:	e83143db          	0xe83143db
    2cde:	444d                	li	s0,19
    2ce0:	ec29                	bnez	s0,0x2d3a
    2ce2:	43b1                	li	t2,12
    2ce4:	a3a6                	fsd	fs1,448(sp)
    2ce6:	444e                	lw	s0,208(sp)
    2ce8:	a0e5                	j	0x2dd0
    2cea:	43c9                	li	t2,18
    2cec:	31aa                	fld	ft3,168(sp)
    2cee:	432a                	lw	t1,136(sp)
    2cf0:	849c                	0x849c
    2cf2:	430d                	li	t1,3
    2cf4:	6d50                	ld	a2,152(a0)
    2cf6:	4320                	lw	s0,64(a4)
    2cf8:	48c5                	li	a7,17
    2cfa:	441e                	lw	s0,196(sp)
    2cfc:	bcbc                	fsd	fa5,120(s1)
    2cfe:	4428                	lw	a0,72(s0)
    2d00:	4390b72b          	0x4390b72b
    2d04:	4202428f          	0x4202428f
    2d08:	9968                	0x9968
    2d0a:	7e774443          	fmadd.q	fs0,fa4,ft7,fa5,rmm
    2d0e:	434a                	lw	t1,144(sp)
    2d10:	0375                	addi	t1,t1,29
    2d12:	43a0                	lw	s0,64(a5)
    2d14:	430f9b23          	sh	a6,1078(t6)
    2d18:	10d5                	addi	ra,ra,-11
    2d1a:	441f 5354 4455      	0x44555354441f
    2d20:	42ed75c3          	fmadd.d	fa1,fs10,fa4,fs0
    2d24:	60c5                	lui	ra,0x11
    2d26:	42b4                	lw	a3,64(a3)
    2d28:	3efa                	fld	ft9,440(sp)
    2d2a:	4455                	li	s0,21
    2d2c:	5625                	li	a2,-23
    2d2e:	43c5                	li	t2,17
    2d30:	428dac8b          	0x428dac8b
    2d34:	170a                	slli	a4,a4,0x22
    2d36:	0a4e42d7          	0xa4e42d7
    2d3a:	444c                	lw	a1,12(s0)
    2d3c:	c862                	sw	s8,16(sp)
    2d3e:	4455                	li	s0,21
    2d40:	14fe                	slli	s1,s1,0x3f
    2d42:	43c2                	lw	t2,16(sp)
    2d44:	e6e9                	bnez	a3,0x2e0e
    2d46:	42d5                	li	t0,21
    2d48:	aec9                	j	0x311a
    2d4a:	446e                	lw	s0,216(sp)
    2d4c:	431d7be7          	0x431d7be7
    2d50:	2d0e                	fld	fs10,192(sp)
    2d52:	4210                	lw	a2,0(a2)
    2d54:	9ba6                	add	s7,s7,s1
    2d56:	40c0                	lw	s0,4(s1)
    2d58:	74bc                	ld	a5,104(s1)
    2d5a:	4185                	li	gp,1
    2d5c:	6cac                	ld	a1,88(s1)
    2d5e:	95f4443f 1646442e 	0x1646442e95f4443f
    2d66:	434c                	lw	a1,4(a4)
    2d68:	fe04                	sd	s1,56(a2)
    2d6a:	442d                	li	s0,11
    2d6c:	4342f7cf          	fnmadd.d	fa5,ft5,fs4,fs0
    2d70:	4d91                	li	s11,4
    2d72:	4429                	li	s0,10
    2d74:	9f6d                	0x9f6d
    2d76:	b24e440f          	0xb24e440f
    2d7a:	4415                	li	s0,5
    2d7c:	435aaf1b          	0x435aaf1b
    2d80:	fc9c                	sd	a5,56(s1)
    2d82:	445c                	lw	a5,12(s0)
    2d84:	844a                	mv	s0,s2
    2d86:	2b854403          	lbu	s0,696(a0)
    2d8a:	444e                	lw	s0,208(sp)
    2d8c:	8189                	srli	a1,a1,0x2
    2d8e:	4331                	li	t1,12
    2d90:	443ab3e7          	0x443ab3e7
    2d94:	436f8937          	lui	s2,0x436f8
    2d98:	451f 43e7 bee9      	0xbee943e7451f
    2d9e:	442e                	lw	s0,200(sp)
    2da0:	43ffd26f          	jal	tp,0x1009de
    2da4:	427f                	0x427f
    2da6:	443d                	li	s0,15
    2da8:	97ae                	add	a5,a5,a1
    2daa:	4405                	li	s0,1
    2dac:	a8f6                	fsd	ft9,80(sp)
    2dae:	4430                	lw	a2,72(s0)
    2db0:	26c9                	addiw	a3,a3,18
    2db2:	43dc                	lw	a5,4(a5)
    2db4:	5a1d                	li	s4,-25
    2db6:	4246                	lw	tp,80(sp)
    2db8:	43d65b23          	0x43d65b23
    2dbc:	ee14                	sd	a3,24(a2)
    2dbe:	42a8                	lw	a0,64(a3)
    2dc0:	370a                	fld	fa4,160(sp)
    2dc2:	fc084437          	lui	s0,0xfc084
    2dc6:	a0a44447          	fmsub.s	fs0,fs0,fa0,fs4,rmm
    2dca:	4435                	li	s0,13
    2dcc:	50b4                	lw	a3,96(s1)
    2dce:	445f a073 442f      	0x442fa073445f
    2dd4:	3b44                	fld	fs1,176(a4)
    2dd6:	4400                	lw	s0,8(s0)
    2dd8:	4408c117          	auipc	sp,0x4408c
    2ddc:	b6a8                	fsd	fa0,104(a3)
    2dde:	43ba                	lw	t2,140(sp)
    2de0:	08b4                	addi	a3,sp,88
    2de2:	42ad                	li	t0,11
    2de4:	43f64e77          	0x43f64e77
    2de8:	ab12                	fsd	ft4,400(sp)
    2dea:	2f1b4447          	fmsub.q	fs0,fs6,fa7,ft5,rmm
    2dee:	51aa416b          	0x51aa416b
    2df2:	55c34357          	0x55c34357
    2df6:	0c4a441b          	0xc4a441b
    2dfa:	72b041af          	0x72b041af
    2dfe:	42a6                	lw	t0,72(sp)
    2e00:	4422c7cf          	0x4422c7cf
    2e04:	0a3d                	addi	s4,s4,15
    2e06:	3f7d42cf          	fnmadd.q	ft5,fs10,fs7,ft7,rmm
    2e0a:	426e                	lw	tp,216(sp)
    2e0c:	4446a73b          	0x4446a73b
    2e10:	43d6ddd3          	0x43d6ddd3
    2e14:	44666117          	auipc	sp,0x44666
    2e18:	6e35                	lui	t3,0xd
    2e1a:	4424                	lw	s1,72(s0)
    2e1c:	ca0c                	sw	a1,16(a2)
    2e1e:	4420                	lw	s0,72(s0)
    2e20:	ab85                	j	0x3390
    2e22:	42c1                	li	t0,16
    2e24:	149c                	addi	a5,sp,608
    2e26:	445c                	lw	a5,12(s0)
    2e28:	40f6                	lw	ra,92(sp)
    2e2a:	8bd74473          	0x8bd74473
    2e2e:	4450                	lw	a2,12(s0)
    2e30:	dd91                	beqz	a1,0x2d4c
    2e32:	4424                	lw	s1,72(s0)
    2e34:	f3f8                	sd	a4,224(a5)
    2e36:	81fc436f          	jal	t1,0xfffffffffffc7654
    2e3a:	4471                	li	s0,28
    2e3c:	178d                	addi	a5,a5,-29
    2e3e:	16c943e7          	0x16c943e7
    2e42:	420c4403          	lbu	s0,1056(s8) # 0x1a420
    2e46:	42e4                	lw	s1,68(a3)
    2e48:	3021                	0x3021
    2e4a:	427a                	lw	tp,156(sp)
    2e4c:	4ab0                	lw	a2,80(a3)
    2e4e:	440c                	lw	a1,8(s0)
    2e50:	51fc                	lw	a5,100(a1)
    2e52:	441c                	lw	a5,8(s0)
    2e54:	7ba6                	ld	s7,104(sp)
    2e56:	4404                	lw	s1,8(s0)
    2e58:	43978bc7          	fmsub.d	fs7,fa5,fs9,fs0,rne
    2e5c:	c49c                	sw	a5,8(s1)
    2e5e:	4124                	lw	s1,64(a0)
    2e60:	a8f6                	fsd	ft9,80(sp)
    2e62:	4432                	lw	s0,12(sp)
    2e64:	4429                	li	s0,10
    2e66:	4479                	li	s0,30
    2e68:	43cca873          	csrrs	a6,0x43c,s9
    2e6c:	29fc                	fld	fa5,208(a1)
    2e6e:	4462                	lw	s0,24(sp)
    2e70:	f6c9                	bnez	a3,0x2dfa
    2e72:	425d                	li	tp,23
    2e74:	8a3d                	andi	a2,a2,15
    2e76:	43c1                	li	t2,16
    2e78:	39ec                	fld	fa1,240(a1)
    2e7a:	4436                	lw	s0,76(sp)
    2e7c:	43cbc937          	lui	s2,0x43cbc
    2e80:	ce56                	sw	s5,28(sp)
    2e82:	4398                	lw	a4,0(a5)
    2e84:	f1aa                	sd	a0,224(sp)
    2e86:	42d2                	lw	t0,20(sp)
    2e88:	43da2be7          	0x43da2be7
    2e8c:	cae1                	beqz	a3,0x2f5c
    2e8e:	6ad1440b          	0x6ad1440b
    2e92:	4461                	li	s0,24
    2e94:	3db2                	fld	fs11,296(sp)
    2e96:	446a                	lw	s0,152(sp)
    2e98:	4414372b          	0x4414372b
    2e9c:	35f4                	fld	fa3,232(a1)
    2e9e:	4400                	lw	s0,8(s0)
    2ea0:	ca3d                	beqz	a2,0x2f16
    2ea2:	442c                	lw	a1,72(s0)
    2ea4:	94fe                	add	s1,s1,t6
    2ea6:	43cc                	lw	a1,4(a5)
    2ea8:	4447228f          	0x4447228f
    2eac:	4ed9                	li	t4,22
    2eae:	8d0e4397          	auipc	t2,0x8d0e4
    2eb2:	43f8                	lw	a4,68(a5)
    2eb4:	4a7f                	0x4a7f
    2eb6:	434a                	lw	t1,144(sp)
    2eb8:	e6a8                	sd	a0,72(a3)
    2eba:	4331                	li	t1,12
    2ebc:	43d5edd3          	0x43d5edd3
    2ec0:	30b4                	fld	fa3,96(s1)
    2ec2:	7dc3446b          	0x7dc3446b
    2ec6:	4419                	li	s0,6
    2ec8:	4478e083          	lwu	ra,1095(a7)
    2ecc:	945a                	add	s0,s0,s6
    2ece:	7c4a43b3          	0x7c4a43b3
    2ed2:	43f0                	lw	a2,68(a5)
    2ed4:	5df4                	lw	a3,124(a1)
    2ed6:	4402                	lw	s0,0(sp)
    2ed8:	4625                	li	a2,9
    2eda:	431e                	lw	t1,196(sp)
    2edc:	174c                	addi	a1,sp,932
    2ede:	8b54442b          	0x8b54442b
    2ee2:	444d                	li	s0,19
    2ee4:	999a                	add	s3,s3,t1
    2ee6:	41b0                	lw	a2,64(a1)
    2ee8:	4418cd3f 4339aa7f 	0x4339aa7f4418cd3f
    2ef0:	22e1                	addiw	t0,t0,24
    2ef2:	442a                	lw	s0,136(sp)
    2ef4:	439c453f 416b020c 	0x416b020c439c453f
    2efc:	4e56                	lw	t3,84(sp)
    2efe:	42d6                	lw	t0,84(sp)
    2f00:	48b4                	lw	a3,80(s1)
    2f02:	42df 64bc 4389      	0x438964bc42df
    2f08:	5ee9                	li	t4,-6
    2f0a:	c22d4447          	fmsub.d	fs0,fs10,ft2,fs8,rmm
    2f0e:	43c1                	li	t2,16
    2f10:	4312                	lw	t1,4(sp)
    2f12:	4339                	li	t1,14
    2f14:	e831                	bnez	s0,0x2f68
    2f16:	4372                	lw	t1,28(sp)
    2f18:	3ed6872b          	0x3ed6872b
    2f1c:	3604                	fld	fs1,40(a2)
    2f1e:	bf1b43f3          	0xbf1b43f3
    2f22:	2f9e4433          	0x2f9e4433
    2f26:	ec8b42d3          	0xec8b42d3
    2f2a:	42c1                	li	t0,16
    2f2c:	bcac                	fsd	fa1,120(s1)
    2f2e:	442e                	lw	s0,200(sp)
    2f30:	443b6a6f          	jal	s4,0xb9b72
    2f34:	4460e9cb          	0x4460e9cb
    2f38:	c408                	sw	a0,8(s0)
    2f3a:	4438                	lw	a4,72(s0)
    2f3c:	444081cb          	0x444081cb
    2f40:	851f 444b 3862      	0x3862444b851f
    2f46:	4421                	li	s0,8
    2f48:	43d997cf          	fnmadd.d	fa5,fs3,ft9,fs0,rtz
    2f4c:	b958                	fsd	fa4,176(a0)
    2f4e:	42a1                	li	t0,8
    2f50:	43a35f3b          	0x43a35f3b
    2f54:	f2f2                	sd	t3,352(sp)
    2f56:	4321                	li	t1,8
    2f58:	78d5                	lui	a7,0xffff5
    2f5a:	a28f4217          	auipc	tp,0xa28f4
    2f5e:	b95843cb          	fnmsub.s	ft7,fa6,fs5,fs7,rmm
    2f62:	88314207          	flq	ft4,-1917(sp) # 0x44668697
    2f66:	446c                	lw	a1,76(s0)
    2f68:	73f8                	ld	a4,224(a5)
    2f6a:	24dd4417          	auipc	s0,0x24dd4
    2f6e:	41f1                	li	gp,28
    2f70:	4469d323          	0x4469d323
    2f74:	2364                	fld	fs1,192(a4)
    2f76:	4440                	lw	s0,12(s0)
    2f78:	a9fc                	fsd	fa5,208(a1)
    2f7a:	41d8                	lw	a4,4(a1)
    2f7c:	acbc                	fsd	fa5,88(s1)
    2f7e:	4459                	li	s0,22
    2f80:	4625                	li	a2,9
    2f82:	42b1                	li	t0,12
    2f84:	ad0e                	fsd	ft3,152(sp)
    2f86:	bcee42e3          	blt	t3,a4,0x2b4a
    2f8a:	43dc                	lw	a5,4(a5)
    2f8c:	ed0e                	sd	gp,152(sp)
    2f8e:	4314                	lw	a3,0(a4)
    2f90:	43a9ac8b          	0x43a9ac8b
    2f94:	f4bc                	sd	a5,104(s1)
    2f96:	4278                	lw	a4,68(a2)
    2f98:	43ac3f3b          	0x43ac3f3b
    2f9c:	399a                	fld	fs3,416(sp)
    2f9e:	925e4313          	xori	t1,t3,-1755
    2fa2:	440a                	lw	s0,128(sp)
    2fa4:	97f0                	0x97f0
    2fa6:	4451                	li	s0,20
    2fa8:	ae98                	fsd	fa4,24(a3)
    2faa:	43b6                	lw	t2,76(sp)
    2fac:	4604                	lw	s1,8(a2)
    2fae:	aefa4453          	0xaefa4453
    2fb2:	446e                	lw	s0,216(sp)
    2fb4:	66c9                	lui	a3,0x12
    2fb6:	43d8                	lw	a4,4(a5)
    2fb8:	441fcf2b          	0x441fcf2b
    2fbc:	430d5917          	auipc	s2,0x430d5
    2fc0:	5e14                	lw	a3,56(a2)
    2fc2:	43c6                	lw	t2,80(sp)
    2fc4:	5db2                	lw	s11,44(sp)
    2fc6:	ebe74353          	0xebe74353
    2fca:	572b4477          	0x572b4477
    2fce:	444c                	lw	a1,12(s0)
    2fd0:	5fbe                	lw	t6,236(sp)
    2fd2:	4379                	li	t1,30
    2fd4:	4f0a                	lw	t5,128(sp)
    2fd6:	444d                	li	s0,19
    2fd8:	1168                	addi	a0,sp,172
    2fda:	43a9                	li	t2,10
    2fdc:	b25e                	fsd	fs7,288(sp)
    2fde:	440c                	lw	a1,8(s0)
    2fe0:	3d71                	addiw	s10,s10,-4
    2fe2:	4450                	lw	a2,12(s0)
    2fe4:	43b63937          	lui	s2,0x43b63
    2fe8:	8a2d                	andi	a2,a2,11
    2fea:	f4cd4473          	0xf4cd4473
    2fee:	4419                	li	s0,6
    2ff0:	ceb8                	sw	a4,88(a3)
    2ff2:	43c4                	lw	s1,4(a5)
    2ff4:	d419                	beqz	s0,0x2f02
    2ff6:	1a1d43f7          	0x1a1d43f7
    2ffa:	4385                	li	t2,1
    2ffc:	444b0137          	lui	sp,0x444b0
    3000:	40e5                	li	ra,25
    3002:	339643eb          	0x339643eb
    3006:	4465                	li	s0,25
    3008:	43ae1b23          	sh	s10,1078(t3) # 0xd436
    300c:	9e35                	addw	a2,a2,a3
    300e:	431f 3e56 43a8      	0x43a83e56431f
    3014:	6148                	ld	a0,128(a0)
    3016:	c10643d7          	0xc10643d7
    301a:	43d1                	li	t2,20
    301c:	d8c5                	beqz	s1,0x2fcc
    301e:	4448                	lw	a0,12(s0)
    3020:	437943d7          	0x437943d7
    3024:	50a4                	lw	s1,96(s1)
    3026:	4334                	lw	a3,64(a4)
    3028:	ee14                	sd	a3,24(a2)
    302a:	21064357          	0x21064357
    302e:	4408                	lw	a0,8(s0)
    3030:	a189                	j	0x3472
    3032:	2c194407          	flq	fs0,705(s2) # 0x43b632c1
    3036:	4452                	lw	s0,20(sp)
    3038:	dcdd                	beqz	s1,0x2ff6
    303a:	4461                	li	s0,24
    303c:	2e14                	fld	fa3,24(a2)
    303e:	43e5                	li	t2,25
    3040:	441f1fcf          	0x441f1fcf
    3044:	4444b7cf          	0x4444b7cf
    3048:	7625                	lui	a2,0xfffe9
    304a:	4436                	lw	s0,76(sp)
    304c:	34dd                	addiw	s1,s1,-9
    304e:	445a                	lw	s0,148(sp)
    3050:	475c                	lw	a5,12(a4)
    3052:	4411                	li	s0,4
    3054:	e821                	bnez	s0,0x30a4
    3056:	4446                	lw	s0,80(sp)
    3058:	2052                	fld	ft0,272(sp)
    305a:	444d                	li	s0,19
    305c:	96a8                	0x96a8
    305e:	4449                	li	s0,18
    3060:	4427f1cb          	0x4427f1cb
    3064:	8646                	mv	a2,a7
    3066:	443d                	li	s0,15
    3068:	d8b4                	sw	a3,112(s1)
    306a:	4474                	lw	a3,76(s0)
    306c:	6c08                	ld	a0,24(s0)
    306e:	42d1                	li	t0,20
    3070:	149c                	addi	a5,sp,608
    3072:	43d1                	li	t2,20
    3074:	dc29                	beqz	s0,0x2fce
    3076:	43c8                	lw	a0,4(a5)
    3078:	ae56                	fsd	fs5,280(sp)
    307a:	27ae4427          	fsq	fs10,616(t3)
    307e:	437e                	lw	t1,220(sp)
    3080:	0604                	addi	s1,sp,768
    3082:	4466                	lw	s0,88(sp)
    3084:	2560                	fld	fs0,200(a0)
    3086:	4476                	lw	s0,92(sp)
    3088:	440e15e3          	bnez	t3,0x3cd2
    308c:	5a5e                	lw	s4,244(sp)
    308e:	4308                	lw	a0,0(a4)
    3090:	4439                	li	s0,14
    3092:	443a                	lw	s0,140(sp)
    3094:	44366093          	ori	ra,a2,1091
    3098:	4425b3d7          	0x4425b3d7
    309c:	1d60                	addi	s0,sp,700
    309e:	4412                	lw	s0,4(sp)
    30a0:	0000                	unimp
    30a2:	a385430b          	0xa385430b
    30a6:	4446                	lw	s0,80(sp)
    30a8:	edb2                	sd	a2,216(sp)
    30aa:	43c0                	lw	s0,4(a5)
    30ac:	68f6                	ld	a7,344(sp)
    30ae:	f25e43cf          	fnmadd.d	ft7,ft8,ft5,ft10,rmm
    30b2:	25714467          	0x25714467
    30b6:	4404                	lw	s1,8(s0)
    30b8:	2ed9                	addiw	t4,t4,22
    30ba:	432d                	li	t1,11
    30bc:	da1d                	beqz	a2,0x2ff2
    30be:	4430                	lw	a2,72(s0)
    30c0:	a76d                	j	0x386a
    30c2:	43e4                	lw	s1,68(a5)
    30c4:	8571                	srai	a0,a0,0x1c
    30c6:	440a                	lw	s0,128(sp)
    30c8:	34dd                	addiw	s1,s1,-9
    30ca:	439e                	lw	t2,196(sp)
    30cc:	43bd3893          	sltiu	a7,s10,1083
    30d0:	eb85                	bnez	a5,0x3100
    30d2:	ba3d4337          	lui	t1,0xba3d4
    30d6:	b99a443f 491743ee 	0x491743eeb99a443f
    30de:	4474                	lw	a3,76(s0)
    30e0:	5581                	li	a1,-32
    30e2:	4344                	lw	s1,4(a4)
    30e4:	d6c9                	beqz	a3,0x306e
    30e6:	436c                	lw	a1,68(a4)
    30e8:	f1aa                	sd	a0,224(sp)
    30ea:	ec0843c7          	0xec0843c7
    30ee:	446c                	lw	a1,76(s0)
    30f0:	3189                	addiw	gp,gp,-30
    30f2:	43d0                	lw	a2,4(a5)
    30f4:	fa1d                	bnez	a2,0x302a
    30f6:	4365                	li	t1,25
    30f8:	6ed9                	lui	t4,0x16
    30fa:	4449                	li	s0,18
    30fc:	6e14                	ld	a3,24(a2)
    30fe:	4325                	li	t1,9
    3100:	44791093          	0x44791093
    3104:	43fce47b          	0x43fce47b
    3108:	1168                	addi	a0,sp,172
    310a:	353f4387          	flq	ft7,851(t5) # 0xffffffffffffb353
    310e:	42d2                	lw	t0,20(sp)
    3110:	e031                	bnez	s0,0x3154
    3112:	39274437          	lui	s0,0x39274
    3116:	4430                	lw	a2,72(s0)
    3118:	2db2                	fld	fs11,264(sp)
    311a:	442e                	lw	s0,200(sp)
    311c:	122d                	addi	tp,tp,-21
    311e:	68314447          	fmsub.s	fs0,ft2,ft3,fa3,rmm
    3122:	444e                	lw	s0,208(sp)
    3124:	5646                	lw	a2,112(sp)
    3126:	430c                	lw	a1,0(a4)
    3128:	2831                	addiw	a6,a6,12
    312a:	4404                	lw	s1,8(s0)
    312c:	4397e5e3          	bltu	a5,s9,0x3d56
    3130:	e45a                	sd	s6,8(sp)
    3132:	424a                	lw	tp,144(sp)
    3134:	d9ba                	sw	a4,240(sp)
    3136:	4446                	lw	s0,80(sp)
    3138:	f375                	bnez	a4,0x311c
    313a:	cc19441b          	0xcc19441b
    313e:	441e                	lw	s0,196(sp)
    3140:	60f6                	ld	ra,344(sp)
    3142:	4406                	lw	s0,64(sp)
    3144:	0312                	slli	t1,t1,0x4
    3146:	440c                	lw	a1,8(s0)
    3148:	ee14                	sd	a3,24(a2)
    314a:	42ae                	lw	t0,200(sp)
    314c:	6042                	0x6042
    314e:	42ee                	lw	t0,216(sp)
    3150:	43934083          	lbu	ra,1081(t1) # 0xffffffffba3d4439
    3154:	1eb8                	addi	a4,sp,888
    3156:	e45a410f          	0xe45a410f
    315a:	4458                	lw	a4,12(s0)
    315c:	075c                	addi	a5,sp,900
    315e:	4405                	li	s0,1
    3160:	85a2                	mv	a1,s0
    3162:	42dc                	lw	a5,4(a3)
    3164:	444b8bc7          	0x444b8bc7
    3168:	4c6a                	lw	s8,152(sp)
    316a:	75c343c7          	0x75c343c7
    316e:	4215                	li	tp,5
    3170:	4db2                	lw	s11,12(sp)
    3172:	3f2b4443          	fmadd.q	fs0,fs6,fs2,ft7,rmm
    3176:	4412                	lw	s0,4(sp)
    3178:	a906                	fsd	ft1,144(sp)
    317a:	4421                	li	s0,8
    317c:	f810                	sd	a2,48(s0)
    317e:	4438                	lw	a4,72(s0)
    3180:	9042                	c.add	zero,a6
    3182:	d6a843bb          	0xd6a843bb
    3186:	441a                	lw	s0,132(sp)
    3188:	d591                	beqz	a1,0x3094
    318a:	d28f446b          	0xd28f446b
    318e:	42a0443f 0df44460 	0xdf4446042a0443f
    3196:	5ee943ef          	jal	t2,0x97784
    319a:	88314413          	xori	s0,sp,-1917
    319e:	4266                	lw	tp,88(sp)
    31a0:	2d0e                	fld	fs10,192(sp)
    31a2:	4232                	lw	tp,12(sp)
    31a4:	b042                	fsd	fa6,32(sp)
    31a6:	15e3446f          	jal	s0,0x37304
    31aa:	4390                	lw	a2,0(a5)
    31ac:	1ae1                	addi	s5,s5,-8
    31ae:	4444                	lw	s1,12(s0)
    31b0:	5550                	lw	a2,44(a0)
    31b2:	6ab04453          	0x6ab04453
    31b6:	4476                	lw	s0,92(sp)
    31b8:	b560                	fsd	fs0,232(a0)
    31ba:	4439                	li	s0,14
    31bc:	5c19                	li	s8,-26
    31be:	4451                	li	s0,20
    31c0:	020c                	addi	a1,sp,256
    31c2:	42c6                	lw	t0,80(sp)
    31c4:	d24e                	sw	s3,36(sp)
    31c6:	4399                	li	t2,6
    31c8:	a46a                	fsd	fs10,8(sp)
    31ca:	4402                	lw	s0,0(sp)
    31cc:	d70a                	sw	sp,172(sp)
    31ce:	de984287          	flq	ft5,-535(a6) # 0xbde9
    31d2:	43dd                	li	t2,23
    31d4:	12a0                	addi	s0,sp,360
    31d6:	444e                	lw	s0,208(sp)
    31d8:	2a3d                	addiw	s4,s4,15
    31da:	43d8                	lw	a4,4(a5)
    31dc:	275c                	fld	fa5,136(a4)
    31de:	4479                	li	s0,30
    31e0:	e831                	bnez	s0,0x3234
    31e2:	4325                	li	t1,9
    31e4:	443b4dd3          	0x443b4dd3
    31e8:	4468b883          	ld	a7,1094(a7) # 0xffffffffffff5446
    31ec:	432b9b23          	sh	s2,1078(s7)
    31f0:	851f 41e7 8052      	0x805241e7851f
    31f6:	444e                	lw	s0,208(sp)
    31f8:	d51f 43e6 6354      	0x635443e6d51f
    31fe:	fe14441b          	0xfe14441b
    3202:	43a1                	li	t2,8
    3204:	4ac1                	li	s5,16
    3206:	41cb431b          	0x41cb431b
    320a:	4388                	lw	a0,0(a5)
    320c:	8635                	srai	a2,a2,0xd
    320e:	444e                	lw	s0,208(sp)
    3210:	4fdf 43bc 6873      	0x687343bc4fdf
    3216:	422d                	li	tp,11
    3218:	5d71                	li	s10,-4
    321a:	43aa                	lw	t2,136(sp)
    321c:	86b8                	0x86b8
    321e:	442d                	li	s0,11
    3220:	88b4                	0x88b4
    3222:	4460                	lw	s0,76(s0)
    3224:	f6c9                	bnez	a3,0x31ae
    3226:	42a1                	li	t0,8
    3228:	431e5f3b          	0x431e5f3b
    322c:	4a3d                	li	s4,15
    322e:	436c                	lw	a1,68(a4)
    3230:	bfbe                	fsd	fa5,504(sp)
    3232:	4328                	lw	a0,64(a4)
    3234:	ea7f                	0xea7f
    3236:	443a                	lw	s0,140(sp)
    3238:	c148                	sw	a0,4(a0)
    323a:	43dd                	li	t2,23
    323c:	1062                	c.slli	zero,0x38
    323e:	443a                	lw	s0,140(sp)
    3240:	4341bbe7          	0x4341bbe7
    3244:	f604                	sd	s1,40(a2)
    3246:	4384                	lw	s1,0(a5)
    3248:	cccd                	beqz	s1,0x3302
    324a:	441d                	li	s0,7
    324c:	9375                	srli	a4,a4,0x3d
    324e:	42f8                	lw	a4,68(a3)
    3250:	4469f927          	0x4469f927
    3254:	d8c5                	beqz	s1,0x3204
    3256:	4436                	lw	s0,76(sp)
    3258:	02f2                	slli	t0,t0,0x1c
    325a:	4389                	li	t2,2
    325c:	7cfe                	ld	s9,504(sp)
    325e:	6958446b          	0x6958446b
    3262:	ce144443          	fmadd.q	fs0,fs0,ft1,fs9,rmm
    3266:	43d4                	lw	a3,4(a5)
    3268:	4339926f          	jal	tp,0x9ce9a
    326c:	20c5                	addiw	ra,ra,17
    326e:	43b9                	li	t2,14
    3270:	f6e9                	bnez	a3,0x323a
    3272:	441a                	lw	s0,132(sp)
    3274:	23b6                	fld	ft7,328(sp)
    3276:	43a0                	lw	s0,64(a5)
    3278:	2ccd                	addiw	s9,s9,19
    327a:	4392                	lw	t2,4(sp)
    327c:	9fdf 4386 553f      	0x553f43869fdf
    3282:	4469                	li	s0,26
    3284:	beb8                	fsd	fa4,120(a3)
    3286:	67ae4407          	flq	fs0,1658(t3)
    328a:	431c                	lw	a5,0(a4)
    328c:	d74c                	sw	a1,44(a4)
    328e:	443e                	lw	s0,204(sp)
    3290:	d7be                	sw	a5,236(sp)
    3292:	444e                	lw	s0,208(sp)
    3294:	14fe                	slli	s1,s1,0x3f
    3296:	443c                	lw	a5,72(s0)
    3298:	86a8                	0x86a8
    329a:	42b1                	li	t0,12
    329c:	4464f26f          	jal	tp,0x526e2
    32a0:	e2b0                	sd	a2,64(a3)
    32a2:	4476                	lw	s0,92(sp)
    32a4:	4167df3b          	sraw	t5,a5,s6
    32a8:	441d5e87          	0x441d5e87
    32ac:	d0e5                	beqz	s1,0x328c
    32ae:	3f82                	fld	ft11,32(sp)
    32b0:	4148                	lw	a0,4(a0)
    32b2:	4422                	lw	s0,8(sp)
    32b4:	44629083          	lh	ra,1094(t0)
    32b8:	9db2                	add	s11,s11,a2
    32ba:	4200                	lw	s0,0(a2)
    32bc:	4478e3e7          	0x4478e3e7
    32c0:	a7f0                	fsd	fa2,200(a5)
    32c2:	3f96                	fld	ft11,352(sp)
    32c4:	7364                	ld	s1,224(a4)
    32c6:	444a                	lw	s0,144(sp)
    32c8:	443a3927          	fsd	ft3,1106(s4)
    32cc:	440c3e87          	fld	ft9,1088(s8)
    32d0:	9aa0                	0x9aa0
    32d2:	706243c7          	fmsub.s	ft7,ft4,ft6,fa4,rmm
    32d6:	445a                	lw	s0,148(sp)
    32d8:	d78d                	beqz	a5,0x3202
    32da:	4464                	lw	s1,76(s0)
    32dc:	20c5                	addiw	ra,ra,17
    32de:	fd814473          	0xfd814473
    32e2:	4445                	li	s0,17
    32e4:	4390b3d7          	0x4390b3d7
    32e8:	a581                	j	0x3928
    32ea:	440a                	lw	s0,128(sp)
    32ec:	43fec9db          	0x43fec9db
    32f0:	0625                	addi	a2,a2,9
    32f2:	4476                	lw	s0,92(sp)
    32f4:	440bb083          	ld	ra,1088(s7)
    32f8:	aa5e                	fsd	fs7,272(sp)
    32fa:	4404                	lw	s1,8(s0)
    32fc:	8550                	0x8550
    32fe:	4472                	lw	s0,28(sp)
    3300:	250e                	fld	fa0,192(sp)
    3302:	4416                	lw	s0,68(sp)
    3304:	43cacdd3          	0x43cacdd3
    3308:	e1ec                	sd	a1,192(a1)
    330a:	43c8                	lw	a0,4(a5)
    330c:	4410e333          	0x4410e333
    3310:	442ac893          	xori	a7,s5,1090
    3314:	c646                	sw	a7,12(sp)
    3316:	4392                	lw	t2,4(sp)
    3318:	4407172b          	0x4407172b
    331c:	437b2dd3          	0x437b2dd3
    3320:	fc19                	bnez	s0,0x323e
    3322:	4461                	li	s0,24
    3324:	6f4c                	ld	a1,152(a4)
    3326:	4454                	lw	a3,12(s0)
    3328:	b1aa                	fsd	fa0,224(sp)
    332a:	42f1                	li	t0,28
    332c:	174c                	addi	a1,sp,932
    332e:	4301                	li	t1,0
    3330:	f7ae                	sd	a1,488(sp)
    3332:	4478                	lw	a4,76(s0)
    3334:	6eb8                	ld	a4,88(a3)
    3336:	43e2                	lw	t2,24(sp)
    3338:	76d9                	lui	a3,0xffff6
    333a:	4402                	lw	s0,0(sp)
    333c:	0c9c                	addi	a5,sp,592
    333e:	89ec4433          	0x89ec4433
    3342:	3852441b          	0x3852441b
    3346:	42ad                	li	t0,11
    3348:	a6a8                	fsd	fa0,72(a3)
    334a:	4360                	lw	s0,68(a4)
    334c:	4429b117          	auipc	sp,0x4429b
    3350:	d44a                	sw	s2,40(sp)
    3352:	445f c5a2 4335      	0x4335c5a2445f
    3358:	94ee                	add	s1,s1,s11
    335a:	4404                	lw	s1,8(s0)
    335c:	dcee                	sw	s11,120(sp)
    335e:	4370                	lw	a2,68(a4)
    3360:	33b6                	fld	ft7,360(sp)
    3362:	444d                	li	s0,19
    3364:	fefa                	sd	t5,376(sp)
    3366:	ed2f43a7          	fsq	fs2,-313(t5)
    336a:	4422                	lw	s0,8(sp)
    336c:	77ae                	ld	a5,232(sp)
    336e:	4446                	lw	s0,80(sp)
    3370:	2979                	addiw	s2,s2,30
    3372:	4362                	lw	t1,24(sp)
    3374:	6e04                	ld	s1,24(a2)
    3376:	4420                	lw	s0,72(s0)
    3378:	449c                	lw	a5,8(s1)
    337a:	42c0                	lw	s0,4(a3)
    337c:	28f6                	fld	fa7,344(sp)
    337e:	3fbc                	fld	fa5,120(a5)
    3380:	438373d7          	0x438373d7
    3384:	43a01b23          	sh	s10,1078(zero) # 0x436
    3388:	4cdd                	li	s9,23
    338a:	440e                	lw	s0,192(sp)
    338c:	4476d117          	auipc	sp,0x4476d
    3390:	a666                	fsd	fs9,264(sp)
    3392:	436e                	lw	t1,216(sp)
    3394:	bb54                	fsd	fa3,176(a4)
    3396:	4421                	li	s0,8
    3398:	fae1                	bnez	a3,0x3368
    339a:	42fc                	lw	a5,68(a3)
    339c:	b7ae                	fsd	fa1,488(sp)
    339e:	443c                	lw	a5,72(s0)
    33a0:	b6c9                	j	0x2f62
    33a2:	4418                	lw	a4,8(s0)
    33a4:	b581                	j	0x31e4
    33a6:	9917446f          	jal	s0,0xfffffffffff77d36
    33aa:	9efa433f eac1434b 	0xeac1434b9efa433f
    33b2:	436e                	lw	t1,216(sp)
    33b4:	1cac                	addi	a1,sp,632
    33b6:	430e                	lw	t1,192(sp)
    33b8:	3df4                	fld	fa3,248(a1)
    33ba:	28734447          	fmsub.s	fs0,ft6,ft7,ft5,rmm
    33be:	4334                	lw	a3,64(a4)
    33c0:	2591                	addiw	a1,a1,4
    33c2:	445d                	li	s0,23
    33c4:	4395fd2f          	0x4395fd2f
    33c8:	440f45c3          	0x440f45c3
    33cc:	ec08                	sd	a0,24(s0)
    33ce:	4325                	li	t1,9
    33d0:	42d8028f          	0x42d8028f
    33d4:	5d71                	li	s10,-4
    33d6:	443e                	lw	s0,204(sp)
    33d8:	974c                	0x974c
    33da:	430c                	lw	a1,0(a4)
    33dc:	9948                	0x9948
    33de:	70624473          	0x70624473
    33e2:	4445                	li	s0,17
    33e4:	b604                	fsd	fs1,40(a2)
    33e6:	4421                	li	s0,8
    33e8:	44553d3f 440bf396 	0x440bf39644553d3f
    33f0:	ae14                	fsd	fa3,24(a2)
    33f2:	41bd                	li	gp,15
    33f4:	f44a                	sd	s2,40(sp)
    33f6:	441a                	lw	s0,132(sp)
    33f8:	24ee                	fld	fs1,216(sp)
    33fa:	4430                	lw	a2,72(s0)
    33fc:	7eb8                	ld	a4,120(a3)
    33fe:	b0b443d3          	0xb0b443d3
    3402:	445e                	lw	s0,212(sp)
    3404:	68b4                	ld	a3,80(s1)
    3406:	4382                	lw	t2,0(sp)
    3408:	40e5                	li	ra,25
    340a:	43f0                	lw	a2,68(a5)
    340c:	7989                	lui	s3,0xfffe2
    340e:	440d                	li	s0,3
    3410:	20c5                	addiw	ra,ra,17
    3412:	8a4e4253          	0x8a4e4253
    3416:	374c4407          	flq	fs0,884(s8)
    341a:	43ba                	lw	t2,140(sp)
    341c:	3efa                	fld	ft9,440(sp)
    341e:	43f6                	lw	t2,92(sp)
    3420:	0312                	slli	t1,t1,0x4
    3422:	4349                	li	t1,18
    3424:	ecfe                	sd	t6,88(sp)
    3426:	a6d94477          	0xa6d94477
    342a:	4408                	lw	a0,8(s0)
    342c:	6831                	lui	a6,0xc
    342e:	443a                	lw	s0,140(sp)
    3430:	43cc6d2f          	0x43cc6d2f
    3434:	a666                	fsd	fs9,264(sp)
    3436:	c9ba434f          	fnmadd.s	ft6,fs4,fs11,fs9,rmm
    343a:	3b6442ef          	jal	t0,0x477f0
    343e:	43ba                	lw	t2,140(sp)
    3440:	6842                	ld	a6,16(sp)
    3442:	4421                	li	s0,8
    3444:	270a                	fld	fa4,128(sp)
    3446:	4469                	li	s0,26
    3448:	43e86b23          	0x43e86b23
    344c:	442619cb          	0x442619cb
    3450:	9aa0                	0x9aa0
    3452:	5a1d42a3          	0x5a1d42a3
    3456:	a0c5420b          	0xa0c5420b
    345a:	4392                	lw	t2,4(sp)
    345c:	7cac                	ld	a1,120(s1)
    345e:	4405                	li	s0,1
    3460:	9db2                	add	s11,s11,a2
    3462:	4251                	li	tp,20
    3464:	43ef3bc7          	fmsub.d	fs7,ft10,ft10,fs0,rup
    3468:	06c9                	addi	a3,a3,18
    346a:	445c                	lw	a5,12(s0)
    346c:	3d1f 4463 0560      	0x56044633d1f
    3472:	4360                	lw	s0,68(a4)
    3474:	0c08                	addi	a0,sp,528
    3476:	35d3434b          	0x35d3434b
    347a:	443a                	lw	s0,140(sp)
    347c:	4206926f          	jal	tp,0x6c89c
    3480:	4437e1db          	0x4437e1db
    3484:	2f9e                	fld	ft11,448(sp)
    3486:	4356                	lw	t1,84(sp)
    3488:	8010                	0x8010
    348a:	445d                	li	s0,23
    348c:	e419                	bnez	s0,0x349a
    348e:	43b6                	lw	t2,76(sp)
    3490:	58d5                	li	a7,-11
    3492:	1a3d4327          	fsq	ft3,422(s10)
    3496:	445f 0000 3ff0      	0x3ff00000445f
    349c:	44435b33          	0x44435b33
    34a0:	0c4a                	slli	s8,s8,0x12
    34a2:	4405                	li	s0,1
    34a4:	0d1f 442a b1aa      	0xb1aa442a0d1f
    34aa:	43a0                	lw	s0,64(a5)
    34ac:	44304d2f          	0x44304d2f
    34b0:	1a5e                	slli	s4,s4,0x37
    34b2:	4329                	li	t1,10
    34b4:	28f6                	fld	fa7,344(sp)
    34b6:	442c                	lw	a1,72(s0)
    34b8:	da3d                	beqz	a2,0x342e
    34ba:	43f2                	lw	t2,28(sp)
    34bc:	cab0                	sw	a2,80(a3)
    34be:	446c                	lw	a1,76(s0)
    34c0:	42cb7333          	0x42cb7333
    34c4:	43c131cb          	fnmsub.d	ft3,ft2,ft8,fs0,rup
    34c8:	4331ac8b          	0x4331ac8b
    34cc:	9ba6                	add	s7,s7,s1
    34ce:	4249                	li	tp,18
    34d0:	b22d                	j	0x2dfa
    34d2:	9aa0422b          	0x9aa0422b
    34d6:	42ca                	lw	t0,144(sp)
    34d8:	44310b33          	0x44310b33
    34dc:	7c4a                	ld	s8,176(sp)
    34de:	43ed                	li	t2,27
    34e0:	a4bc                	fsd	fa5,72(s1)
    34e2:	8b644423          	0x8b644423
    34e6:	f2e143c7          	fmsub.d	ft7,ft2,fa4,ft10,rmm
    34ea:	4464                	lw	s1,76(s0)
    34ec:	4429c093          	xori	ra,s3,1090
    34f0:	441c6c7b          	0x441c6c7b
    34f4:	1042                	c.slli	zero,0x30
    34f6:	43a5                	li	t2,9
    34f8:	2396                	fld	ft7,320(sp)
    34fa:	4372                	lw	t1,28(sp)
    34fc:	3ec9                	addiw	t4,t4,-14
    34fe:	446e                	lw	s0,216(sp)
    3500:	b581                	j	0x3340
    3502:	444d                	li	s0,19
    3504:	d4dd                	beqz	s1,0x34b2
    3506:	d60443eb          	0xd60443eb
    350a:	4446                	lw	s0,80(sp)
    350c:	43eebbe7          	0x43eebbe7
    3510:	4420426f          	jal	tp,0x7952
    3514:	7168                	ld	a0,224(a0)
    3516:	4435                	li	s0,13
    3518:	6b44                	ld	s1,144(a4)
    351a:	437c                	lw	a5,68(a4)
    351c:	70e5                	lui	ra,0xffff9
    351e:	4432                	lw	s0,12(sp)
    3520:	4375a28f          	0x4375a28f
    3524:	70d5                	lui	ra,0xffff5
    3526:	446a                	lw	s0,152(sp)
    3528:	570a                	lw	a4,160(sp)
    352a:	4a8f4317          	auipc	t1,0x4a8f4
    352e:	4404                	lw	s1,8(s0)
    3530:	1b64                	addi	s1,sp,444
    3532:	9a2d445b          	0x9a2d445b
    3536:	4459                	li	s0,22
    3538:	86a8                	0x86a8
    353a:	43a6                	lw	t2,72(sp)
    353c:	429bfbe7          	0x429bfbe7
    3540:	4396                	lw	t2,68(sp)
    3542:	4416                	lw	s0,68(sp)
    3544:	5604                	lw	s1,40(a2)
    3546:	4408                	lw	a0,8(s0)
    3548:	baf2                	fsd	ft8,368(sp)
    354a:	446a                	lw	s0,152(sp)
    354c:	ecfe                	sd	t6,88(sp)
    354e:	4462                	lw	s0,24(sp)
    3550:	4441c333          	0x4441c333
    3554:	6429                	lui	s0,0xa
    3556:	4455                	li	s0,21
    3558:	bfbe                	fsd	fa5,504(sp)
    355a:	43c6                	lw	t2,80(sp)
    355c:	430fadd3          	0x430fadd3
    3560:	c9ba                	sw	a4,208(sp)
    3562:	4369                	li	t1,26
    3564:	4474e48b          	0x4474e48b
    3568:	f20c                	sd	a1,32(a2)
    356a:	443c                	lw	a5,72(s0)
    356c:	436f35c3          	fmadd.d	fa1,ft10,fs6,fs0,rup
    3570:	07ae                	slli	a5,a5,0xb
    3572:	989343e3          	blt	t1,s1,0x2ef8
    3576:	37cf42d3          	0x37cf42d3
    357a:	43d4                	lw	a3,4(a5)
    357c:	43b6d1cb          	fnmsub.d	ft3,fa3,fs11,fs0,unknown
    3580:	0312                	slli	t1,t1,0x4
    3582:	4352                	lw	t1,20(sp)
    3584:	42c54937          	lui	s2,0x42c54
    3588:	97ae                	add	a5,a5,a1
    358a:	4470                	lw	a2,76(s0)
    358c:	3b64                	fld	fs1,240(a4)
    358e:	425a                	lw	tp,148(sp)
    3590:	3b85                	addiw	s7,s7,-31
    3592:	4461                	li	s0,24
    3594:	13f8                	addi	a4,sp,492
    3596:	42c4                	lw	s1,4(a3)
    3598:	4466c137          	lui	sp,0x4466c
    359c:	43dc0687          	0x43dc0687
    35a0:	dd91                	beqz	a1,0x34bc
    35a2:	3c8b4423          	0x3c8b4423
    35a6:	776d443f cfdf4404 	0xcfdf4404776d443f
    35ae:	439d                	li	t2,7
    35b0:	c0e5                	beqz	s1,0x3690
    35b2:	4414                	lw	a3,8(s0)
    35b4:	43a8626f          	jal	tp,0x899ee
    35b8:	42b5c72b          	0x42b5c72b
    35bc:	47be                	lw	a5,204(sp)
    35be:	442e                	lw	s0,200(sp)
    35c0:	722d                	lui	tp,0xfffeb
    35c2:	43e8                	lw	a0,68(a5)
    35c4:	4441be77          	0x4441be77
    35c8:	64cd                	lui	s1,0x13
    35ca:	977d442b          	0x977d442b
    35ce:	4435                	li	s0,13
    35d0:	e042                	sd	a6,0(sp)
    35d2:	428c                	lw	a1,0(a3)
    35d4:	4f9e                	lw	t6,196(sp)
    35d6:	43a2                	lw	t2,8(sp)
    35d8:	b99a                	fsd	ft6,240(sp)
    35da:	443c                	lw	a5,72(s0)
    35dc:	438d5d2f          	0x438d5d2f
    35e0:	0c4a                	slli	s8,s8,0x12
    35e2:	4202                	lw	tp,0(sp)
    35e4:	440603e7          	jalr	t2,1088(a2) # 0xfffffffffffe9440
    35e8:	678d                	lui	a5,0x3
    35ea:	9e5643f7          	0x9e5643f7
    35ee:	6873441b          	0x6873441b
    35f2:	41ce                	lw	gp,208(sp)
    35f4:	a2e1                	j	0x37bc
    35f6:	4414                	lw	a3,8(s0)
    35f8:	b0a4                	fsd	fs1,96(s1)
    35fa:	43c2                	lw	t2,16(sp)
    35fc:	af5c                	fsd	fa5,152(a4)
    35fe:	445e                	lw	s0,212(sp)
    3600:	1b02                	slli	s6,s6,0x20
    3602:	43f4                	lw	a3,68(a5)
    3604:	4296428f          	0x4296428f
    3608:	9db2                	add	s11,s11,a2
    360a:	4215                	li	tp,5
    360c:	4e98                	lw	a4,24(a3)
    360e:	4391                	li	t2,4
    3610:	8ac1                	andi	a3,a3,16
    3612:	43cc                	lw	a1,4(a5)
    3614:	21ec                	fld	fa1,192(a1)
    3616:	43f8                	lw	a4,68(a5)
    3618:	441ff73b          	0x441ff73b
    361c:	44359137          	lui	sp,0x44359
    3620:	020c                	addi	a1,sp,256
    3622:	41dd                	li	gp,23
    3624:	c625                	beqz	a2,0x368c
    3626:	43e0                	lw	s0,68(a5)
    3628:	b77d                	j	0x35d6
    362a:	446d                	li	s0,27
    362c:	02a0                	addi	s0,sp,328
    362e:	4409                	li	s0,2
    3630:	4406e083          	lwu	ra,1088(a3) # 0xffffffffffff6440
    3634:	82d1                	srli	a3,a3,0x14
    3636:	04194307          	flq	ft6,65(s2) # 0x42c54041
    363a:	42a1                	li	t0,8
    363c:	270a                	fld	fa4,128(sp)
    363e:	4421                	li	s0,8
    3640:	ac08                	fsd	fa0,24(s0)
    3642:	9bd74397          	auipc	t2,0x9bd74
    3646:	4451                	li	s0,20
    3648:	4434ebe7          	0x4434ebe7
    364c:	1eb8                	addi	a4,sp,888
    364e:	4391                	li	t2,4
    3650:	b862                	fsd	fs8,48(sp)
    3652:	d1274437          	lui	s0,0xd1274
    3656:	f6c9443f e72b42fb 	0xe72b42fbf6c9443f
    365e:	4322                	lw	t1,8(sp)
    3660:	2c08                	fld	fa0,24(s0)
    3662:	440a                	lw	s0,128(sp)
    3664:	eeb8                	sd	a4,88(a3)
    3666:	97cf43cf          	fnmadd.q	ft7,ft10,ft8,fs2,rmm
    366a:	4378                	lw	a4,68(a4)
    366c:	db64                	sw	s1,116(a4)
    366e:	43f5                	li	t2,29
    3670:	42d6947b          	0x42d6947b
    3674:	4ea8                	lw	a0,88(a3)
    3676:	4476                	lw	s0,92(sp)
    3678:	43b527cf          	fnmadd.d	fa5,fa0,fs11,fs0,rdn
    367c:	42e965e3          	bltu	s2,a4,0x42a6
    3680:	4242b53f 441a7a0c 	0x441a7a0c4242b53f
    3688:	64bc                	ld	a5,72(s1)
    368a:	4459                	li	s0,22
    368c:	e8e5                	bnez	s1,0x377c
    368e:	4456                	lw	s0,84(sp)
    3690:	bc29                	j	0x30aa
    3692:	4310                	lw	a2,0(a4)
    3694:	436b9b23          	sh	s6,1078(s7)
    3698:	44524bc7          	0x44524bc7
    369c:	438d4be7          	0x438d4be7
    36a0:	38e5                	addiw	a7,a7,-7
    36a2:	4435                	li	s0,13
    36a4:	e906                	sd	ra,144(sp)
    36a6:	440e                	lw	s0,192(sp)
    36a8:	8cac                	0x8cac
    36aa:	4d0e43a7          	fsq	fa6,1223(t3)
    36ae:	4464                	lw	s1,76(s0)
    36b0:	4439                	li	s0,14
    36b2:	23a643eb          	0x23a643eb
    36b6:	440c                	lw	a1,8(s0)
    36b8:	b062                	fsd	fs8,32(sp)
    36ba:	f1274383          	lbu	t2,-238(a4)
    36be:	4342                	lw	t1,16(sp)
    36c0:	43ab8333          	0x43ab8333
    36c4:	0e14                	addi	a3,sp,784
    36c6:	4372                	lw	t1,28(sp)
    36c8:	444a5f2b          	0x444a5f2b
    36cc:	b23d                	j	0x2ffa
    36ce:	40734443          	fmadd.s	fs0,ft6,ft7,fs0,rmm
    36d2:	4429                	li	s0,10
    36d4:	6a2d                	lui	s4,0xb
    36d6:	4476                	lw	s0,92(sp)
    36d8:	aeb8                	fsd	fa4,88(a3)
    36da:	43a9                	li	t2,10
    36dc:	1429                	addi	s0,s0,-22
    36de:	4436                	lw	s0,76(sp)
    36e0:	0439                	addi	s0,s0,14
    36e2:	43a8                	lw	a0,64(a5)
    36e4:	074c                	addi	a1,sp,900
    36e6:	43ac                	lw	a1,64(a5)
    36e8:	378d                	addiw	a5,a5,-29
    36ea:	43cd                	li	t2,19
    36ec:	6eb8                	ld	a4,88(a3)
    36ee:	931243d7          	0x931243d7
    36f2:	43e8                	lw	a0,68(a5)
    36f4:	44194927          	fsq	ft1,1106(s2)
    36f8:	3f7d                	addiw	t5,t5,-1
    36fa:	f9cb4263          	blt	s6,t3,0x2e7e
    36fe:	443d                	li	s0,15
    3700:	aa5e                	fsd	fs7,272(sp)
    3702:	ce984413          	xori	s0,a6,-791
    3706:	4330                	lw	a2,64(a4)
    3708:	d042                	sw	a6,32(sp)
    370a:	43f2                	lw	t2,28(sp)
    370c:	d148                	sw	a0,36(a0)
    370e:	439a                	lw	t2,132(sp)
    3710:	48f6                	lw	a7,92(sp)
    3712:	fc0843cb          	0xfc0843cb
    3716:	43a6                	lw	t2,72(sp)
    3718:	6062                	0x6062
    371a:	4478                	lw	a4,76(s0)
    371c:	43b1347b          	0x43b1347b
    3720:	94fe                	add	s1,s1,t6
    3722:	443a                	lw	s0,140(sp)
    3724:	0e35                	addi	t3,t3,13
    3726:	e831439b          	0xe831439b
    372a:	436e                	lw	t1,216(sp)
    372c:	442eea8f          	0x442eea8f
    3730:	4a0c                	lw	a1,16(a2)
    3732:	2b024403          	lbu	s0,688(tp) # 0xfffffffffffeb2b0
    3736:	4239                	li	tp,14
    3738:	2646                	fld	fa2,80(sp)
    373a:	43a8                	lw	a0,64(a5)
    373c:	9ba6                	add	s7,s7,s1
    373e:	0d7143f3          	0xd7143f3
    3742:	4380                	lw	s0,0(a5)
    3744:	43fbdf3b          	0x43fbdf3b
    3748:	c2d1                	beqz	a3,0x37cc
    374a:	4306                	lw	t1,64(sp)
    374c:	42c97be7          	0x42c97be7
    3750:	44089a6f          	jal	s4,0x8cb90
    3754:	b51f 43c4 bdb2      	0xbdb243c4b51f
    375a:	4434                	lw	a3,72(s0)
    375c:	4df4                	lw	a3,92(a1)
    375e:	4386                	lw	t2,64(sp)
    3760:	cfdf 43b7 2873      	0x287343b7cfdf
    3766:	439d                	li	t2,7
    3768:	fc6a                	sd	s10,56(sp)
    376a:	3646446b          	0x3646446b
    376e:	4296                	lw	t0,68(sp)
    3770:	05a2                	slli	a1,a1,0x8
    3772:	42d5                	li	t0,21
    3774:	fe56                	sd	s5,312(sp)
    3776:	43ac                	lw	a1,64(a5)
    3778:	441d553f 4476f25e 	0x4476f25e441d553f
    3780:	43c64083          	lbu	ra,1084(a2)
    3784:	2666                	fld	fa2,88(sp)
    3786:	4416                	lw	s0,68(sp)
    3788:	bcac                	fsd	fa1,120(s1)
    378a:	4350                	lw	a2,4(a4)
    378c:	44632f2b          	0x44632f2b
    3790:	43d6cc8b          	0x43d6cc8b
    3794:	7958                	ld	a4,176(a0)
    3796:	43c0                	lw	s0,4(a5)
    3798:	f46a                	sd	s10,40(sp)
    379a:	4402                	lw	s0,0(sp)
    379c:	42b82f1b          	0x42b82f1b
    37a0:	de35                	beqz	a2,0x371c
    37a2:	4302                	lw	t1,0(sp)
    37a4:	44084b33          	0x44084b33
    37a8:	ea1d                	bnez	a2,0x37de
    37aa:	43b1                	li	t2,12
    37ac:	9000                	0x9000
    37ae:	438a                	lw	t2,128(sp)
    37b0:	b560                	fsd	fs0,232(a0)
    37b2:	23854477          	0x23854477
    37b6:	56c94427          	fsq	fa2,1384(s2)
    37ba:	4428                	lw	a0,72(s0)
    37bc:	bd91                	j	0x3610
    37be:	d1aa43af          	0xd1aa43af
    37c2:	6e984477          	0x6e984477
    37c6:	4455                	li	s0,21
    37c8:	4433fdd3          	0x4433fdd3
    37cc:	c6b8                	sw	a4,72(a3)
    37ce:	922d4457          	0x922d4457
    37d2:	43e0                	lw	s0,68(a5)
    37d4:	6189                	lui	gp,0x2
    37d6:	439c                	lw	a5,0(a5)
    37d8:	e354                	sd	a3,128(a4)
    37da:	42a9                	li	t0,10
    37dc:	5eb8                	lw	a4,120(a3)
    37de:	42c9                	li	t0,18
    37e0:	1062                	c.slli	zero,0x38
    37e2:	441a                	lw	s0,132(sp)
    37e4:	1fae                	slli	t6,t6,0x2b
    37e6:	4405                	li	s0,1
    37e8:	4353672b          	0x4353672b
    37ec:	f20c                	sd	a1,32(a2)
    37ee:	440d                	li	s0,3
    37f0:	e0a4                	sd	s1,64(s1)
    37f2:	4430                	lw	a2,72(s0)
    37f4:	1052                	c.slli	zero,0x34
    37f6:	4451                	li	s0,20
    37f8:	56e9                	li	a3,-6
    37fa:	4438                	lw	a4,72(s0)
    37fc:	64fe                	ld	s1,472(sp)
    37fe:	43b9                	li	t2,14
    3800:	d625                	beqz	a2,0x3768
    3802:	7e464453          	0x7e464453
    3806:	672b4477          	0x672b4477
    380a:	43e2                	lw	t2,24(sp)
    380c:	43e6b53f 439e0df4 	0x439e0df443e6b53f
    3814:	44642333          	0x44642333
    3818:	8c6a                	mv	s8,s10
    381a:	0a7f4473          	0xa7f4473
    381e:	4336                	lw	t1,76(sp)
    3820:	443a95c3          	0x443a95c3
    3824:	2fdf 4386 24bc      	0x24bc43862fdf
    382a:	445a4447          	0x445a4447
    382e:	4320                	lw	s0,64(a4)
    3830:	93a6                	add	t2,t2,s1
    3832:	4402                	lw	s0,0(sp)
    3834:	f302                	sd	zero,416(sp)
    3836:	4440                	lw	s0,12(s0)
    3838:	8c4a                	mv	s8,s2
    383a:	441a                	lw	s0,132(sp)
    383c:	851f 41b5 3958      	0x395841b5851f
    3842:	42e6                	lw	t0,88(sp)
    3844:	89ec                	0x89ec
    3846:	4455                	li	s0,21
    3848:	e604                	sd	s1,8(a2)
    384a:	4435                	li	s0,13
    384c:	3ba6                	fld	fs7,104(sp)
    384e:	4421                	li	s0,8
    3850:	0042                	c.slli	zero,0x10
    3852:	4362                	lw	t1,24(sp)
    3854:	4189c28f          	0x4189c28f
    3858:	4325dd2f          	0x4325dd2f
    385c:	dbb6                	sw	a3,244(sp)
    385e:	4442                	lw	s0,16(sp)
    3860:	13f8                	addi	a4,sp,492
    3862:	4348                	lw	a0,4(a4)
    3864:	db02                	sw	zero,180(sp)
    3866:	8e874463          	blt	a4,s0,0x294e
    386a:	e189444f          	fnmadd.s	fs0,fs2,fs8,ft8,rmm
    386e:	4455                	li	s0,21
    3870:	9e35                	addw	a2,a2,a3
    3872:	4439                	li	s0,14
    3874:	8b02                	jr	s6
    3876:	4309                	li	t1,2
    3878:	a666                	fsd	fs9,264(sp)
    387a:	ec9c433b          	0xec9c433b
    387e:	4475                	li	s0,29
    3880:	44304117          	auipc	sp,0x44304
    3884:	47ae                	lw	a5,200(sp)
    3886:	f0f64433          	0xf0f64433
    388a:	50b44427          	fsq	fa1,1288(s0) # 0xffffffffd1274508
    388e:	440d                	li	s0,3
    3890:	4e46                	lw	t3,80(sp)
    3892:	4444                	lw	s1,12(s0)
    3894:	ce04                	sw	s1,24(a2)
    3896:	94fe4433          	0x94fe4433
    389a:	445d                	li	s0,23
    389c:	7c29                	lui	s8,0xfffea
    389e:	437d                	li	t1,31
    38a0:	a4ac                	fsd	fa1,72(s1)
    38a2:	4470                	lw	a2,76(s0)
    38a4:	6375                	lui	t1,0x1d
    38a6:	4444                	lw	s1,12(s0)
    38a8:	4424771b          	0x4424771b
    38ac:	89fc                	0x89fc
    38ae:	431a                	lw	t1,132(sp)
    38b0:	fcac                	sd	a1,120(s1)
    38b2:	4392                	lw	t2,4(sp)
    38b4:	eac1                	bnez	a3,0x3944
    38b6:	4344                	lw	s1,4(a4)
    38b8:	04dd                	addi	s1,s1,23
    38ba:	cfdf441b          	0xcfdf441b
    38be:	437d                	li	t1,31
    38c0:	43105687          	0x43105687
    38c4:	43df85c3          	fmadd.d	fa1,ft11,ft9,fs0,rne
    38c8:	432d4937          	lui	s2,0x432d4
    38cc:	de25                	beqz	a2,0x3844
    38ce:	4460                	lw	s0,76(s0)
    38d0:	44470dc3          	0x44470dc3
    38d4:	40aad917          	auipc	s2,0x40aad
    38d8:	ff7d                	bnez	a4,0x38d6
    38da:	4290                	lw	a2,0(a3)
    38dc:	fccd                	bnez	s1,0x3896
    38de:	43a2                	lw	t2,8(sp)
    38e0:	8062                	c.mv	zero,s8
    38e2:	4429                	li	s0,10
    38e4:	1b12                	slli	s6,s6,0x24
    38e6:	441a                	lw	s0,132(sp)
    38e8:	2148                	fld	fa0,128(a0)
    38ea:	42a0                	lw	s0,64(a3)
    38ec:	88f6                	mv	a7,t4
    38ee:	439a                	lw	t2,132(sp)
    38f0:	5571                	li	a0,-4
    38f2:	4446                	lw	s0,80(sp)
    38f4:	46e9                	li	a3,26
    38f6:	420c432f          	0x420c432f
    38fa:	e148442b          	0xe148442b
    38fe:	431f 6419 441f      	0x441f6419431f
    3904:	e45a                	sd	s6,8(sp)
    3906:	42f6                	lw	t0,92(sp)
    3908:	d7be                	sw	a5,236(sp)
    390a:	4471                	li	s0,28
    390c:	b550                	fsd	fa2,168(a0)
    390e:	4451                	li	s0,20
    3910:	86e9                	srai	a3,a3,0x1a
    3912:	4371                	li	t1,28
    3914:	4432e9cb          	0x4432e9cb
    3918:	a168                	fsd	fa0,192(a0)
    391a:	4460                	lw	s0,76(s0)
    391c:	a2b0                	fsd	fa2,64(a3)
    391e:	4409                	li	s0,2
    3920:	4021                	c.li	zero,8
    3922:	442d                	li	s0,11
    3924:	43665127          	0x43665127
    3928:	524e                	lw	tp,240(sp)
    392a:	43ba                	lw	t2,140(sp)
    392c:	c625                	beqz	a2,0x3994
    392e:	42a4                	lw	s1,64(a3)
    3930:	4e66                	lw	t3,88(sp)
    3932:	4416                	lw	s0,68(sp)
    3934:	441cd083          	lhu	ra,1089(s9)
    3938:	5312                	lw	t1,36(sp)
    393a:	4434                	lw	a3,72(s0)
    393c:	47ae                	lw	a5,200(sp)
    393e:	43a2                	lw	t2,8(sp)
    3940:	3f7d                	addiw	t5,t5,-1
    3942:	c6d943c7          	fmsub.q	ft7,fs2,fa3,fs8,rmm
    3946:	4bb64467          	0x4bb64467
    394a:	440a                	lw	s0,128(sp)
    394c:	3b64                	fld	fs1,240(a4)
    394e:	42ce                	lw	t0,208(sp)
    3950:	4291d917          	auipc	s2,0x4291d
    3954:	ba5e                	fsd	fs7,304(sp)
    3956:	d99a418f          	0xd99a418f
    395a:	432e                	lw	t1,200(sp)
    395c:	bb02                	fsd	ft0,432(sp)
    395e:	4471                	li	s0,28
    3960:	9ab0                	0x9ab0
    3962:	4474                	lw	a3,76(s0)
    3964:	174c                	addi	a1,sp,932
    3966:	431f 81cb 43a2      	0x43a281cb431f
    396c:	48b4                	lw	a3,80(s1)
    396e:	4331                	li	t1,12
    3970:	b158                	fsd	fa4,160(a0)
    3972:	56d9440b          	0x56d9440b
    3976:	4414                	lw	a3,8(s0)
    3978:	3efa                	fld	ft9,440(sp)
    397a:	4339                	li	t1,14
    397c:	73f8                	ld	a4,224(a5)
    397e:	43ba                	lw	t2,140(sp)
    3980:	f6a8                	sd	a0,104(a3)
    3982:	43fc                	lw	a5,68(a5)
    3984:	43c4edd3          	0x43c4edd3
    3988:	ffdf 4456 c5f4      	0xc5f44456ffdf
    398e:	4415                	li	s0,5
    3990:	d3a6                	sw	s1,228(sp)
    3992:	4422                	lw	s0,8(sp)
    3994:	7a1d                	lui	s4,0xfffe7
    3996:	443a                	lw	s0,140(sp)
    3998:	6635                	lui	a2,0xd
    399a:	8646440f          	0x8646440f
    399e:	43bc                	lw	a5,64(a5)
    39a0:	43a0a873          	csrrs	a6,0x43a,ra
    39a4:	44585de3          	bge	a6,t0,0x45fe
    39a8:	9852                	add	a6,a6,s4
    39aa:	43ae                	lw	t2,200(sp)
    39ac:	4413dbe7          	0x4413dbe7
    39b0:	1e35                	addi	t3,t3,-19
    39b2:	43c8                	lw	a0,4(a5)
    39b4:	440a5127          	0x440a5127
    39b8:	9666                	add	a2,a2,s9
    39ba:	445e                	lw	s0,212(sp)
    39bc:	22f2                	fld	ft5,280(sp)
    39be:	43dc                	lw	a5,4(a5)
    39c0:	2148                	fld	fa0,128(a0)
    39c2:	f4194453          	0xf4194453
    39c6:	43ac                	lw	a1,64(a5)
    39c8:	423d                	li	tp,15
    39ca:	445d                	li	s0,23
    39cc:	44146bd7          	0x44146bd7
    39d0:	4158                	lw	a4,4(a0)
    39d2:	4469                	li	s0,26
    39d4:	48b4                	lw	a3,80(s1)
    39d6:	4391                	li	t2,4
    39d8:	3591                	addiw	a1,a1,-28
    39da:	4475                	li	s0,29
    39dc:	44630937          	lui	s2,0x44630
    39e0:	4e35                	li	t3,13
    39e2:	43e0                	lw	s0,68(a5)
    39e4:	44083127          	fsd	ft0,1090(a6) # 0xc442
    39e8:	5d0e                	lw	s10,224(sp)
    39ea:	efbe4477          	0xefbe4477
    39ee:	43bc                	lw	a5,64(a5)
    39f0:	424a21cb          	fnmsub.d	ft3,fs4,ft4,fs0,rdn
    39f4:	1c08                	addi	a0,sp,560
    39f6:	43e4                	lw	s1,68(a5)
    39f8:	2e56                	fld	ft8,336(sp)
    39fa:	43a6                	lw	t2,72(sp)
    39fc:	4312                	lw	t1,4(sp)
    39fe:	11ec4443          	fmadd.s	fs0,fs8,ft10,ft2,rmm
    3a02:	4461                	li	s0,24
    3a04:	42dc5d2f          	0x42dc5d2f
    3a08:	3b64                	fld	fs1,240(a4)
    3a0a:	f3d74433          	0xf3d74433
    3a0e:	f72b43f7          	0xf72b43f7
    3a12:	443a                	lw	s0,140(sp)
    3a14:	1344                	addi	s1,sp,420
    3a16:	4460                	lw	s0,76(s0)
    3a18:	1e14                	addi	a3,sp,816
    3a1a:	43de                	lw	t2,212(sp)
    3a1c:	a906                	fsd	ft1,144(sp)
    3a1e:	4449                	li	s0,18
    3a20:	40d3f7cf          	fnmadd.s	fa5,ft7,fa3,fs0
    3a24:	3ac1                	addiw	s5,s5,-16
    3a26:	46a8442f          	0x46a8442f
    3a2a:	43c5                	li	t2,17
    3a2c:	440907cf          	0x440907cf
    3a30:	438eddd3          	0x438eddd3
    3a34:	2b85                	addiw	s7,s7,1
    3a36:	43aa                	lw	t2,136(sp)
    3a38:	dc19                	beqz	s0,0x3956
    3a3a:	5e35442f          	0x5e35442f
    3a3e:	5a1d41eb          	0x5a1d41eb
    3a42:	43e1                	li	t2,24
    3a44:	444f7883          	0x444f7883
    3a48:	22f2                	fld	ft5,280(sp)
    3a4a:	a1684423          	0xa1684423
    3a4e:	441d                	li	s0,7
    3a50:	f4ac                	sd	a1,104(s1)
    3a52:	4440                	lw	s0,12(s0)
    3a54:	85a2                	mv	a1,s0
    3a56:	4408                	lw	a0,8(s0)
    3a58:	9604                	0x9604
    3a5a:	43f2                	lw	t2,28(sp)
    3a5c:	6302                	ld	t1,0(sp)
    3a5e:	4419                	li	s0,6
    3a60:	a408                	fsd	fa0,8(s0)
    3a62:	4405                	li	s0,1
    3a64:	1158                	addi	a4,sp,164
    3a66:	c0734473          	0xc0734473
    3a6a:	9e35440b          	0x9e35440b
    3a6e:	42e8                	lw	a0,68(a3)
    3a70:	c1aa                	sw	a0,192(sp)
    3a72:	43f0                	lw	a2,68(a5)
    3a74:	e7f0                	sd	a2,200(a5)
    3a76:	439c                	lw	a5,0(a5)
    3a78:	43fd9f1b          	0x43fd9f1b
    3a7c:	0b64                	addi	s1,sp,412
    3a7e:	4462                	lw	s0,24(sp)
    3a80:	420c                	lw	a1,0(a2)
    3a82:	43d9                	li	t2,22
    3a84:	caf2                	sw	t3,84(sp)
    3a86:	4472                	lw	s0,28(sp)
    3a88:	d0e5                	beqz	s1,0x3a68
    3a8a:	c73b43ab          	0xc73b43ab
    3a8e:	a8f64417          	auipc	s0,0xa8f64
    3a92:	4229                	li	tp,10
    3a94:	a6a8                	fsd	fa0,72(a3)
    3a96:	4446                	lw	s0,80(sp)
    3a98:	10e5                	addi	ra,ra,-7
    3a9a:	4444                	lw	s1,12(s0)
    3a9c:	9ae1                	andi	a3,a3,-8
    3a9e:	4329                	li	t1,10
    3aa0:	445869db          	0x445869db
    3aa4:	2698                	fld	fa4,8(a3)
    3aa6:	4460                	lw	s0,76(s0)
    3aa8:	f168                	sd	a0,224(a0)
    3aaa:	43d2                	lw	t2,20(sp)
    3aac:	43fda26f          	jal	tp,0xde6ea
    3ab0:	9c6a                	add	s8,s8,s10
    3ab2:	13c743cf          	fnmadd.d	ft7,fa4,ft8,ft2,rmm
    3ab6:	4465                	li	s0,25
    3ab8:	f27f                	0xf27f
    3aba:	4459                	li	s0,22
    3abc:	a106                	fsd	ft1,128(sp)
    3abe:	e51f43d7          	0xe51f43d7
    3ac2:	4406                	lw	s0,64(sp)
    3ac4:	dd91                	beqz	a1,0x39e0
    3ac6:	43a9                	li	t2,10
    3ac8:	7810                	ld	a2,48(s0)
    3aca:	4322                	lw	t1,8(sp)
    3acc:	ec4a                	sd	s2,24(sp)
    3ace:	2f1b4313          	xori	t1,s6,753
    3ad2:	42d2                	lw	t0,20(sp)
    3ad4:	4360d9db          	0x4360d9db
    3ad8:	f604                	sd	s1,40(a2)
    3ada:	43f0                	lw	a2,68(a5)
    3adc:	b958                	fsd	fa4,176(a0)
    3ade:	42e0                	lw	s0,68(a3)
    3ae0:	dc4a                	sw	s2,56(sp)
    3ae2:	4414                	lw	a3,8(s0)
    3ae4:	441115c3          	0x441115c3
    3ae8:	38d5                	addiw	a7,a7,-11
    3aea:	42e6                	lw	t0,88(sp)
    3aec:	9c6a                	add	s8,s8,s10
    3aee:	4450                	lw	a2,12(s0)
    3af0:	0106                	slli	sp,sp,0x1
    3af2:	008343af          	0x8343af
    3af6:	4306                	lw	t1,64(sp)
    3af8:	24cd                	addiw	s1,s1,19
    3afa:	4471                	li	s0,28
    3afc:	446d228f          	0x446d228f
    3b00:	b106                	fsd	ft1,160(sp)
    3b02:	9f3b438f          	0x9f3b438f
    3b06:	4349                	li	t1,18
    3b08:	8ccd                	or	s1,s1,a1
    3b0a:	4368                	lw	a0,68(a4)
    3b0c:	45d27a17          	auipc	s4,0x45d27
    3b10:	52fe                	lw	t0,252(sp)
    3b12:	4686                	lw	a3,64(sp)
    3b14:	d905                	beqz	a0,0x3a44
    3b16:	48a5                	li	a7,9
    3b18:	f3c5                	bnez	a5,0x3ab8
    3b1a:	4631                	li	a2,12
    3b1c:	7da8                	ld	a0,120(a1)
    3b1e:	4902                	lw	s2,0(sp)
    3b20:	ab12                	fsd	ft4,400(sp)
    3b22:	4485                	li	s1,1
    3b24:	8658                	0x8658
    3b26:	45b0                	lw	a2,72(a1)
    3b28:	ef14                	sd	a3,24(a4)
    3b2a:	4961                	li	s2,24
    3b2c:	adc6                	fsd	fa7,216(sp)
    3b2e:	490c                	lw	a1,16(a0)
    3b30:	d718                	sw	a4,40(a4)
    3b32:	461a                	lw	a2,132(sp)
    3b34:	2a79                	addiw	s4,s4,30
    3b36:	4895                	li	a7,5
    3b38:	5096                	lw	ra,100(sp)
    3b3a:	4746                	lw	a4,80(sp)
    3b3c:	8a5a                	mv	s4,s6
    3b3e:	1738466b          	0x1738466b
    3b42:	46dd                	li	a3,23
    3b44:	2664                	fld	fs1,200(a2)
    3b46:	480a                	lw	a6,128(sp)
    3b48:	5a41                	li	s4,-16
    3b4a:	ff78474b          	fnmsub.q	fa4,fa6,fs7,ft11,rmm
    3b4e:	470d                	li	a4,3
    3b50:	955c                	0x955c
    3b52:	4791                	li	a5,4
    3b54:	47e7ad27          	fsw	ft10,1146(a5) # 0x347a
    3b58:	ec3d                	bnez	s0,0x3bd6
    3b5a:	64924797          	auipc	a5,0x64924
    3b5e:	48fe                	lw	a7,220(sp)
    3b60:	479657cb          	fnmsub.q	fa5,fa2,fs9,fs0,unknown
    3b64:	8af6                	mv	s5,t4
    3b66:	45ad                	li	a1,11
    3b68:	7f09                	lui	t5,0xfffe2
    3b6a:	4905                	li	s2,1
    3b6c:	e702                	sd	zero,392(sp)
    3b6e:	48c4                	lw	s1,20(s1)
    3b70:	3cf1                	addiw	s9,s9,-4
    3b72:	4854                	lw	a3,20(s0)
    3b74:	c128                	sw	a0,64(a0)
    3b76:	47f5                	li	a5,29
    3b78:	dbaa                	sw	a0,244(sp)
    3b7a:	4865                	li	a6,25
    3b7c:	0902                	c.slli64	s2
    3b7e:	47a2                	lw	a5,8(sp)
    3b80:	495984a7          	0x495984a7
    3b84:	8c5a                	mv	s8,s6
    3b86:	490a                	lw	s2,128(sp)
    3b88:	76a5                	lui	a3,0xfffe9
    3b8a:	475e                	lw	a4,212(sp)
    3b8c:	c6f5                	beqz	a3,0x3c78
    3b8e:	4940                	lw	s0,20(a0)
    3b90:	7c04                	ld	s1,56(s0)
    3b92:	457e                	lw	a0,220(sp)
    3b94:	4773aecf          	fnmadd.q	ft9,ft7,fs7,fs0,rdn
    3b98:	9c04                	0x9c04
    3b9a:	0cc74933          	0xcc74933
    3b9e:	4726                	lw	a4,72(sp)
    3ba0:	6a2d                	lui	s4,0xb
    3ba2:	4932                	lw	s2,12(sp)
    3ba4:	6518                	ld	a4,8(a0)
    3ba6:	4832                	lw	a6,12(sp)
    3ba8:	5534                	lw	a3,104(a0)
    3baa:	4878                	lw	a4,84(s0)
    3bac:	467d                	li	a2,31
    3bae:	484e                	lw	a6,208(sp)
    3bb0:	18c1                	addi	a7,a7,-16
    3bb2:	4802                	lw	a6,0(sp)
    3bb4:	34d1                	addiw	s1,s1,-12
    3bb6:	4879                	li	a6,30
    3bb8:	7e28                	ld	a0,120(a2)
    3bba:	4848                	lw	a0,20(s0)
    3bbc:	967a                	add	a2,a2,t5
    3bbe:	a97f4913          	xori	s2,t5,-1385
    3bc2:	486e                	lw	a6,216(sp)
    3bc4:	4ec6                	lw	t4,80(sp)
    3bc6:	47f1                	li	a5,28
    3bc8:	7c80                	ld	s0,56(s1)
    3bca:	4885                	li	a7,1
    3bcc:	666d                	lui	a2,0x1b
    3bce:	4806                	lw	a6,64(sp)
    3bd0:	0446                	slli	s0,s0,0x11
    3bd2:	48c9                	li	a7,18
    3bd4:	2b62                	fld	fs6,24(sp)
    3bd6:	4905                	li	s2,1
    3bd8:	db16                	sw	t0,180(sp)
    3bda:	4712                	lw	a4,4(sp)
    3bdc:	1ac0                	addi	s0,sp,372
    3bde:	481a                	lw	a6,132(sp)
    3be0:	4812c73f 4848771a 	0x4848771a4812c73f
    3be8:	7a4a                	ld	s4,176(sp)
    3bea:	4895                	li	a7,5
    3bec:	48c2c92b          	0x48c2c92b
    3bf0:	2c09                	addiw	s8,s8,2
    3bf2:	4870                	lw	a2,84(s0)
    3bf4:	04f2                	slli	s1,s1,0x1c
    3bf6:	48d2                	lw	a7,20(sp)
    3bf8:	dd98                	sw	a4,56(a1)
    3bfa:	4820                	lw	s0,80(s0)
    3bfc:	56d4                	lw	a3,44(a3)
    3bfe:	9e4b48cf          	fnmadd.q	fa7,fs6,ft4,fs3,rmm
    3c02:	48e6                	lw	a7,88(sp)
    3c04:	962a                	add	a2,a2,a0
    3c06:	48f2                	lw	a7,28(sp)
    3c08:	48907177          	0x48907177
    3c0c:	ccfc                	sw	a5,92(s1)
    3c0e:	481d                	li	a6,7
    3c10:	ce46                	sw	a7,28(sp)
    3c12:	478d                	li	a5,3
    3c14:	485cf333          	0x485cf333
    3c18:	e91e                	sd	t2,144(sp)
    3c1a:	48e6                	lw	a7,88(sp)
    3c1c:	824e                	mv	tp,s3
    3c1e:	490c                	lw	a1,16(a0)
    3c20:	30b6                	fld	ft1,360(sp)
    3c22:	4920                	lw	s0,80(a0)
    3c24:	12b1                	addi	t0,t0,-20
    3c26:	4778                	lw	a4,76(a4)
    3c28:	3c32                	fld	fs8,296(sp)
    3c2a:	4819                	li	a6,6
    3c2c:	c184                	sw	s1,0(a1)
    3c2e:	4848                	lw	a0,20(s0)
    3c30:	a9e0                	fsd	fs0,208(a1)
    3c32:	48b4                	lw	a3,80(s1)
    3c34:	4823472b          	0x4823472b
    3c38:	77f0                	ld	a2,232(a5)
    3c3a:	4952                	lw	s2,20(sp)
    3c3c:	a092                	fsd	ft4,64(sp)
    3c3e:	76a8483b          	0x76a8483b
    3c42:	48a4                	lw	s1,80(s1)
    3c44:	30dc                	fld	fa5,160(s1)
    3c46:	462e                	lw	a2,200(sp)
    3c48:	0f44                	addi	s1,sp,916
    3c4a:	4edb48cf          	fnmadd.q	fa7,fs6,fa3,fs1,rmm
    3c4e:	483e                	lw	a6,204(sp)
    3c50:	1320                	addi	s0,sp,424
    3c52:	491a                	lw	s2,132(sp)
    3c54:	c4b0                	sw	a2,72(s1)
    3c56:	4802                	lw	a6,0(sp)
    3c58:	47d972a3          	0x47d972a3
    3c5c:	0dea                	slli	s11,s11,0x1a
    3c5e:	31794883          	lbu	a7,791(s2) # 0x44630317
    3c62:	485c                	lw	a5,20(s0)
    3c64:	48bf448f          	0x48bf448f
    3c68:	4911ab47          	fmsub.s	fs6,ft3,fa7,fs1,rdn
    3c6c:	e3e9                	bnez	a5,0x3d2e
    3c6e:	48e8                	lw	a0,84(s1)
    3c70:	fd65                	bnez	a0,0x3c68
    3c72:	4778                	lw	a4,76(a4)
    3c74:	0419                	addi	s0,s0,6
    3c76:	62954827          	fsq	fs1,1584(a0)
    3c7a:	485a                	lw	a6,148(sp)
    3c7c:	0551                	addi	a0,a0,20
    3c7e:	3ac348f7          	0x3ac348f7
    3c82:	b56547cb          	0xb56547cb
    3c86:	4898                	lw	a4,16(s1)
    3c88:	4760e503          	lwu	a0,1142(ra) # 0xffffffffffff5476
    3c8c:	492eb51b          	0x492eb51b
    3c90:	2ff5                	addiw	t6,t6,29
    3c92:	488a                	lw	a7,128(sp)
    3c94:	3532                	fld	fa0,296(sp)
    3c96:	f6d3496b          	0xf6d3496b
    3c9a:	4794                	lw	a3,8(a5)
    3c9c:	4619                	li	a2,6
    3c9e:	4735                	li	a4,13
    3ca0:	6d58                	ld	a4,152(a0)
    3ca2:	4854                	lw	a3,20(s0)
    3ca4:	2b00                	fld	fs0,16(a4)
    3ca6:	495e                	lw	s2,212(sp)
    3ca8:	488418f7          	0x488418f7
    3cac:	9d82                	jalr	s11
    3cae:	47fe                	lw	a5,220(sp)
    3cb0:	af99                	j	0x4406
    3cb2:	4940                	lw	s0,20(a0)
    3cb4:	4762bcef          	jal	s9,0x2f12a
    3cb8:	961a                	add	a2,a2,t1
    3cba:	4972                	lw	s2,28(sp)
    3cbc:	48a04d03          	lbu	s10,1162(zero) # 0x48a
    3cc0:	d0c5                	beqz	s1,0x3c60
    3cc2:	4856                	lw	a6,84(sp)
    3cc4:	4786e44b          	fnmsub.q	fs0,fa3,fs8,fs0,unknown
    3cc8:	964d                	srai	a2,a2,0x33
    3cca:	49624763          	blt	tp,s6,0x4158
    3cce:	47f9                	li	a5,30
    3cd0:	e32c                	sd	a1,64(a4)
    3cd2:	480d                	li	a6,3
    3cd4:	47ae15ef          	jal	a1,0xe514e
    3cd8:	494938db          	0x494938db
    3cdc:	7519                	lui	a0,0xfffe6
    3cde:	952d47eb          	0x952d47eb
    3ce2:	48a2                	lw	a7,8(sp)
    3ce4:	469b2ab7          	lui	s5,0x469b2
    3ce8:	e5b6                	sd	a3,200(sp)
    3cea:	06294727          	fsq	ft2,110(s2)
    3cee:	4860                	lw	s0,84(s0)
    3cf0:	90ba                	add	ra,ra,a4
    3cf2:	48d6                	lw	a7,84(sp)
    3cf4:	afc1                	j	0x44c4
    3cf6:	4858                	lw	a4,20(s0)
    3cf8:	d85c                	sw	a5,52(s0)
    3cfa:	4902                	lw	s2,0(sp)
    3cfc:	e889                	bnez	s1,0x3d0e
    3cfe:	479a                	lw	a5,132(sp)
    3d00:	4378                	lw	a4,68(a4)
    3d02:	46ad                	li	a3,11
    3d04:	47d2bccf          	fnmadd.q	fs9,ft5,ft9,fs0,rup
    3d08:	484dc7ab          	0x484dc7ab
    3d0c:	ad2d                	j	0x4346
    3d0e:	31d345f7          	0x31d345f7
    3d12:	48b6                	lw	a7,76(sp)
    3d14:	480940bb          	0x480940bb
    3d18:	fc10                	sd	a2,56(s0)
    3d1a:	4732                	lw	a4,12(sp)
    3d1c:	48e54333          	0x48e54333
    3d20:	a13d                	j	0x414e
    3d22:	4851                	li	a6,20
    3d24:	fb96                	sd	t0,496(sp)
    3d26:	470e                	lw	a4,192(sp)
    3d28:	92c0                	0x92c0
    3d2a:	4905                	li	s2,1
    3d2c:	6a34                	ld	a3,80(a2)
    3d2e:	48d9                	li	a7,22
    3d30:	0cd5                	addi	s9,s9,21
    3d32:	228f4537          	lui	a0,0x228f4
    3d36:	482e                	lw	a6,200(sp)
    3d38:	47be                	lw	a5,204(sp)
    3d3a:	4835                	li	a6,13
    3d3c:	c9dc                	sw	a5,20(a1)
    3d3e:	4890                	lw	a2,16(s1)
    3d40:	4adf 47b8 2974      	0x297447b84adf
    3d46:	634548bb          	0x634548bb
    3d4a:	493d                	li	s2,15
    3d4c:	3346                	fld	ft6,112(sp)
    3d4e:	483c                	lw	a5,80(s0)
    3d50:	b510                	fsd	fa2,40(a0)
    3d52:	fe4948c7          	fmsub.q	fa7,fs2,ft4,ft11,rmm
    3d56:	fae34647          	fmsub.d	fa2,ft6,fa4,ft11,rmm
    3d5a:	4690                	lw	a2,8(a3)
    3d5c:	db1a                	sw	t1,180(sp)
    3d5e:	170048cf          	fnmadd.q	fa7,ft0,fa6,ft2,rmm
    3d62:	1a3047a7          	fsq	ft3,431(zero) # 0x1af
    3d66:	490a                	lw	s2,128(sp)
    3d68:	0761                	addi	a4,a4,24
    3d6a:	486c                	lw	a1,84(s0)
    3d6c:	b375                	j	0x3b18
    3d6e:	4922                	lw	s2,8(sp)
    3d70:	48e13bb3          	0x48e13bb3
    3d74:	488205eb          	0x488205eb
    3d78:	e7b6                	sd	a3,456(sp)
    3d7a:	45f2                	lw	a1,28(sp)
    3d7c:	9b14                	0x9b14
    3d7e:	4786                	lw	a5,64(sp)
    3d80:	6d01                	0x6d01
    3d82:	d6be4833          	0xd6be4833
    3d86:	4778                	lw	a4,76(a4)
    3d88:	486a61b7          	lui	gp,0x486a6
    3d8c:	f50c                	sd	a1,40(a0)
    3d8e:	88014867          	0x88014867
    3d92:	4888                	lw	a0,16(s1)
    3d94:	9705                	srai	a4,a4,0x21
    3d96:	47e8                	lw	a0,76(a5)
    3d98:	3f34                	fld	fa3,120(a4)
    3d9a:	46dc                	lw	a5,12(a3)
    3d9c:	0728                	addi	a0,sp,904
    3d9e:	48e1                	li	a7,24
    3da0:	48efd1d3          	0x48efd1d3
    3da4:	1e64                	addi	s1,sp,828
    3da6:	d2ab47cb          	fnmsub.d	fa5,fs6,fa0,fs10,rmm
    3daa:	4602                	lw	a2,0(sp)
    3dac:	2532                	fld	fa0,264(sp)
    3dae:	489d                	li	a7,7
    3db0:	8131                	srli	a0,a0,0xc
    3db2:	284a48b3          	0x284a48b3
    3db6:	4855                	li	a6,21
    3db8:	9e6a                	add	t3,t3,s10
    3dba:	487d                	li	a6,31
    3dbc:	06df 478a be57      	0xbe57478a06df
    3dc2:	6df7483f 90994860 	0x909948606df7483f
    3dca:	3b44488b          	0x3b44488b
    3dce:	4679                	li	a2,30
    3dd0:	0e29                	addi	t3,t3,10
    3dd2:	4878                	lw	a4,84(s0)
    3dd4:	1a7f                	0x1a7f
    3dd6:	ba104873          	0xba104873
    3dda:	47a1                	li	a5,8
    3ddc:	4738d563          	bge	a7,s3,0x4246
    3de0:	f659                	bnez	a2,0x3d6e
    3de2:	4818                	lw	a4,16(s0)
    3de4:	e30c                	sd	a1,0(a4)
    3de6:	cf054667          	0xcf054667
    3dea:	4732                	lw	a4,12(sp)
    3dec:	ddcd                	beqz	a1,0x3da6
    3dee:	cc9f4933          	0xcc9f4933
    3df2:	48b8                	lw	a4,80(s1)
    3df4:	908e                	add	ra,ra,gp
    3df6:	4892                	lw	a7,4(sp)
    3df8:	3278                	fld	fa4,224(a2)
    3dfa:	4815                	li	a6,5
    3dfc:	0bc1                	addi	s7,s7,16
    3dfe:	47b4                	lw	a3,72(a5)
    3e00:	f35a                	sd	s6,416(sp)
    3e02:	506e48a3          	0x506e48a3
    3e06:	89a2477b          	0x89a2477b
    3e0a:	b7a4484b          	fnmsub.q	fa6,fs0,fs10,fs6,rmm
    3e0e:	c5c948c7          	0xc5c948c7
    3e12:	47f6                	lw	a5,92(sp)
    3e14:	dd75                	beqz	a0,0x3e10
    3e16:	4950                	lw	a2,20(a0)
    3e18:	6ac0                	ld	s0,144(a3)
    3e1a:	4838                	lw	a4,80(s0)
    3e1c:	2b1f 48a1 e5c9      	0xe5c948a12b1f
    3e22:	4781                	li	a5,0
    3e24:	90b4                	0x90b4
    3e26:	47b8                	lw	a4,72(a5)
    3e28:	1274                	addi	a3,sp,300
    3e2a:	4849                	li	a6,18
    3e2c:	9318                	0x9318
    3e2e:	725a4873          	0x725a4873
    3e32:	6c034843          	0x6c034843
    3e36:	481d                	li	a6,7
    3e38:	49289fbf 47985c3e 	0x47985c3e49289fbf
    3e40:	478854d7          	0x478854d7
    3e44:	fa94                	sd	a3,48(a3)
    3e46:	46c9                	li	a3,18
    3e48:	10c9                	addi	ra,ra,-14
    3e4a:	487c                	lw	a5,84(s0)
    3e4c:	47b7fda7          	0x47b7fda7
    3e50:	e950                	sd	a2,144(a0)
    3e52:	4780                	lw	s0,8(a5)
    3e54:	7640                	ld	s0,168(a2)
    3e56:	4952                	lw	s2,20(sp)
    3e58:	63b5                	lui	t2,0xd
    3e5a:	4906                	lw	s2,64(sp)
    3e5c:	675a                	ld	a4,400(sp)
    3e5e:	3fbc4653          	0x3fbc4653
    3e62:	452f4893          	xori	a7,t5,1106
    3e66:	444c                	lw	a1,12(s0)
    3e68:	a655                	j	0x420c
    3e6a:	48b0                	lw	a2,80(s1)
    3e6c:	48f4b523          	sd	a5,1162(s1) # 0x1348a
    3e70:	7535                	lui	a0,0xfffed
    3e72:	46e8                	lw	a0,76(a3)
    3e74:	bf9d                	j	0x3dea
    3e76:	48d1                	li	a7,20
    3e78:	50c5                	li	ra,-15
    3e7a:	446a                	lw	s0,152(sp)
    3e7c:	49004b53          	0x49004b53
    3e80:	1d94                	addi	a3,sp,752
    3e82:	4882                	lw	a7,0(sp)
    3e84:	6b3a                	ld	s6,392(sp)
    3e86:	4902                	lw	s2,0(sp)
    3e88:	b066                	fsd	fs9,32(sp)
    3e8a:	48ad                	li	a7,11
    3e8c:	9469                	srai	s0,s0,0x3a
    3e8e:	4875                	li	a6,29
    3e90:	da6a                	sw	s10,52(sp)
    3e92:	4914                	lw	a3,16(a0)
    3e94:	8595                	srai	a1,a1,0x5
    3e96:	4694                	lw	a3,8(a3)
    3e98:	14e0                	addi	s0,sp,620
    3e9a:	6c1748c7          	0x6c1748c7
    3e9e:	4661                	li	a2,24
    3ea0:	149f 4897 db2b      	0xdb2b4897149f
    3ea6:	072d472b          	0x72d472b
    3eaa:	4951                	li	s2,20
    3eac:	2820                	fld	fs0,80(s0)
    3eae:	4750                	lw	a2,12(a4)
    3eb0:	48dd1ad7          	0x48dd1ad7
    3eb4:	48d10b3f 48811860 	0x4881186048d10b3f
    3ebc:	9d94                	0x9d94
    3ebe:	4868                	lw	a0,84(s0)
    3ec0:	df12                	sw	tp,188(sp)
    3ec2:	049b46bf 6a9c48ae 	0x6a9c48ae049b46bf
    3eca:	48e2                	lw	a7,24(sp)
    3ecc:	19d0                	addi	a2,sp,244
    3ece:	3f1947db          	0x3f1947db
    3ed2:	4851                	li	a6,20
    3ed4:	d272                	sw	t3,36(sp)
    3ed6:	4789                	li	a5,2
    3ed8:	4607a387          	flw	ft7,1120(a5) # 0x64927fba
    3edc:	b93e                	fsd	fa5,176(sp)
    3ede:	804a4927          	fsq	ft4,-2030(s4) # 0xa812
    3ee2:	4502                	lw	a0,0(sp)
    3ee4:	f7fc                	sd	a5,232(a5)
    3ee6:	47f4                	lw	a3,76(a5)
    3ee8:	4825e6c7          	fmsub.s	fa3,fa1,ft2,fs1,unknown
    3eec:	2d8d                	addiw	s11,s11,3
    3eee:	48b5                	li	a7,13
    3ef0:	684a                	ld	a6,144(sp)
    3ef2:	4814                	lw	a3,16(s0)
    3ef4:	1e92                	slli	t4,t4,0x24
    3ef6:	4871                	li	a6,28
    3ef8:	0911                	addi	s2,s2,4
    3efa:	8db04867          	0x8db04867
    3efe:	4718                	lw	a4,8(a4)
    3f00:	3994                	fld	fa3,48(a1)
    3f02:	e54247eb          	0xe54247eb
    3f06:	48a9                	li	a7,10
    3f08:	7939                	lui	s2,0xfffee
    3f0a:	4822                	lw	a6,8(sp)
    3f0c:	5724                	lw	s1,104(a4)
    3f0e:	7d0d482b          	0x7d0d482b
    3f12:	48ed                	li	a7,27
    3f14:	47a39b53          	0x47a39b53
    3f18:	562e                	lw	a2,232(sp)
    3f1a:	48d8                	lw	a4,20(s1)
    3f1c:	4884ab8b          	0x4884ab8b
    3f20:	491c6dbf 492b0898 	0x492b0898491c6dbf
    3f28:	0b71                	addi	s6,s6,28
    3f2a:	4844                	lw	s1,20(s0)
    3f2c:	6fd8                	ld	a4,152(a5)
    3f2e:	48a8                	lw	a0,80(s1)
    3f30:	9539                	srai	a0,a0,0x2e
    3f32:	45a4                	lw	s1,72(a1)
    3f34:	e6a0                	sd	s0,72(a3)
    3f36:	44ad                	li	s1,11
    3f38:	481d3133          	0x481d3133
    3f3c:	4950                	lw	a2,20(a0)
    3f3e:	3a2b485b          	0x3a2b485b
    3f42:	4904                	lw	s1,16(a0)
    3f44:	a419                	j	0x414a
    3f46:	b0f348ab          	0xb0f348ab
    3f4a:	47df 68f8 48b3      	0x48b368f847df
    3f50:	b626                	fsd	fs1,296(sp)
    3f52:	4695                	li	a3,5
    3f54:	50df 4924 bd27      	0xbd27492450df
    3f5a:	4591                	li	a1,4
    3f5c:	46a56637          	lui	a2,0x46a56
    3f60:	3bca                	fld	fs7,176(sp)
    3f62:	47f0                	lw	a2,76(a5)
    3f64:	e9f0                	sd	a2,208(a1)
    3f66:	47e1                	li	a5,24
    3f68:	85a1                	srai	a1,a1,0x8
    3f6a:	479c                	lw	a5,8(a5)
    3f6c:	d611                	beqz	a2,0x3e78
    3f6e:	47b8                	lw	a4,72(a5)
    3f70:	0f66                	slli	t5,t5,0x19
    3f72:	490e                	lw	s2,192(sp)
    3f74:	dc7c                	sw	a5,124(s0)
    3f76:	4794                	lw	a3,8(a5)
    3f78:	5f8e                	lw	t6,224(sp)
    3f7a:	47a4                	lw	s1,72(a5)
    3f7c:	7a5a                	ld	s4,432(sp)
    3f7e:	47fe                	lw	a5,220(sp)
    3f80:	48cbd0bb          	0x48cbd0bb
    3f84:	0952                	slli	s2,s2,0x14
    3f86:	46ce                	lw	a3,208(sp)
    3f88:	46eca827          	fsw	fa4,1136(s9)
    3f8c:	14b4                	addi	a3,sp,616
    3f8e:	06b644eb          	0x6b644eb
    3f92:	4759                	li	a4,22
    3f94:	e38e                	sd	gp,448(sp)
    3f96:	479f c9bc 4904      	0x4904c9bc479f
    3f9c:	780c                	ld	a1,48(s0)
    3f9e:	481c                	lw	a5,16(s0)
    3fa0:	b738                	fsd	fa4,104(a4)
    3fa2:	493d                	li	s2,15
    3fa4:	1d11                	addi	s10,s10,-28
    3fa6:	46d8                	lw	a4,12(a3)
    3fa8:	ac00                	fsd	fs0,24(s0)
    3faa:	4630                	lw	a2,72(a2)
    3fac:	bc24                	fsd	fs1,120(s0)
    3fae:	34364883          	lbu	a7,835(a2) # 0x46a56343
    3fb2:	490c                	lw	a1,16(a0)
    3fb4:	c67c                	sw	a5,76(a2)
    3fb6:	ab4d48a3          	0xab4d48a3
    3fba:	491e                	lw	s2,196(sp)
    3fbc:	5e92                	lw	t4,36(sp)
    3fbe:	485d                	li	a6,23
    3fc0:	d454                	sw	a3,44(s0)
    3fc2:	47f8                	lw	a4,76(a5)
    3fc4:	6930                	ld	a2,80(a0)
    3fc6:	4886                	lw	a7,64(sp)
    3fc8:	d0fe                	sw	t6,96(sp)
    3fca:	45d2                	lw	a1,20(sp)
    3fcc:	5202                	lw	tp,32(sp)
    3fce:	d946485b          	0xd946485b
    3fd2:	890f47ab          	0x890f47ab
    3fd6:	4831                	li	a6,12
    3fd8:	5a1d                	li	s4,-25
    3fda:	4728                	lw	a0,72(a4)
    3fdc:	d9d5                	beqz	a1,0x3f90
    3fde:	4904                	lw	s1,16(a0)
    3fe0:	1ee1                	addi	t4,t4,-8
    3fe2:	47c1                	li	a5,16
    3fe4:	48bc9f67          	0x48bc9f67
    3fe8:	1579                	addi	a0,a0,-2
    3fea:	4525                	li	a0,9
    3fec:	25de                	fld	fa1,464(sp)
    3fee:	4834                	lw	a3,80(s0)
    3ff0:	d77f                	0xd77f
    3ff2:	2a6c476b          	0x2a6c476b
    3ff6:	4878                	lw	a4,84(s0)
    3ff8:	ed2d                	bnez	a0,0x4072
    3ffa:	b4f548bb          	0xb4f548bb
    3ffe:	4881                	li	a7,0
    4000:	a9d0                	fsd	fa2,144(a1)
    4002:	479d                	li	a5,7
    4004:	a366                	fsd	fs9,384(sp)
    4006:	acc4482b          	0xacc4482b
    400a:	474d                	li	a4,19
    400c:	4687f12f          	0x4687f12f
    4010:	47c6b617          	auipc	a2,0x47c6b
    4014:	4817973b          	0x4817973b
    4018:	46f58d5b          	0x46f58d5b
    401c:	9954                	0x9954
    401e:	48d1                	li	a7,20
    4020:	476ce103          	lwu	sp,1142(s9)
    4024:	14d8                	addi	a4,sp,612
    4026:	ec7b483f f7e64839 	0xf7e64839ec7b483f
    402e:	4810                	lw	a2,16(s0)
    4030:	777d                	lui	a4,0xfffff
    4032:	fdfa48ef          	jal	a7,0xfffffffffffa9010
    4036:	46b4                	lw	a3,72(a3)
    4038:	791e                	ld	s2,480(sp)
    403a:	48de                	lw	a7,212(sp)
    403c:	2d42                	fld	fs10,16(sp)
    403e:	4752                	lw	a4,20(sp)
    4040:	8e10                	0x8e10
    4042:	47d2                	lw	a5,20(sp)
    4044:	6ded                	lui	s11,0x1b
    4046:	488c                	lw	a1,16(s1)
    4048:	46ac61b3          	0x46ac61b3
    404c:	48f22d3f 44c23cc5 	0x44c23cc548f22d3f
    4054:	a900                	fsd	fs0,16(a0)
    4056:	4866                	lw	a6,88(sp)
    4058:	48ad5af3          	csrrwi	s5,0x48a,26
    405c:	48af7cb3          	0x48af7cb3
    4060:	233e                	fld	ft6,456(sp)
    4062:	4808                	lw	a0,16(s0)
    4064:	89bc                	0x89bc
    4066:	29fe48bb          	0x29fe48bb
    406a:	47a1                	li	a5,8
    406c:	4858c0b7          	lui	ra,0x4858c
    4070:	ca5e                	sw	s7,20(sp)
    4072:	48b2                	lw	a7,12(sp)
    4074:	1949                	addi	s2,s2,-14
    4076:	f16a495b          	0xf16a495b
    407a:	f54e4647          	0xf54e4647
    407e:	47d8                	lw	a4,12(a5)
    4080:	47d97ea3          	0x47d97ea3
    4084:	42c4                	lw	s1,4(a3)
    4086:	4722                	lw	a4,8(sp)
    4088:	b79e                	fsd	ft7,488(sp)
    408a:	441a                	lw	s0,132(sp)
    408c:	46f15057          	0x46f15057
    4090:	579c                	lw	a5,40(a5)
    4092:	45ea                	lw	a1,152(sp)
    4094:	efd1                	bnez	a5,0x4130
    4096:	48b6                	lw	a7,76(sp)
    4098:	488100a7          	0x488100a7
    409c:	f5e8                	sd	a0,232(a1)
    409e:	488e                	lw	a7,192(sp)
    40a0:	9b0c                	0x9b0c
    40a2:	47bd                	li	a5,15
    40a4:	491f1fd3          	0x491f1fd3
    40a8:	ea46                	sd	a7,272(sp)
    40aa:	48d6                	lw	a7,84(sp)
    40ac:	5550                	lw	a2,44(a0)
    40ae:	47ec                	lw	a1,76(a5)
    40b0:	7758                	ld	a4,168(a4)
    40b2:	4841                	li	a6,16
    40b4:	2532                	fld	fa0,264(sp)
    40b6:	4928                	lw	a0,80(a0)
    40b8:	ac82                	fsd	ft0,88(sp)
    40ba:	4941                	li	s2,16
    40bc:	8d2d                	xor	a0,a0,a1
    40be:	d40f4807          	flq	fa6,-704(t5) # 0xfffffffffffe1d40
    40c2:	489d                	li	a7,7
    40c4:	6fc1                	lui	t6,0x10
    40c6:	d8a348e3          	blt	t1,a0,0x3e56
    40ca:	4908                	lw	a0,16(a0)
    40cc:	9404                	0x9404
    40ce:	198848e7          	0x198848e7
    40d2:	82994853          	0x82994853
    40d6:	4902                	lw	s2,0(sp)
    40d8:	258e                	fld	fa1,192(sp)
    40da:	46a6                	lw	a3,72(sp)
    40dc:	5785                	li	a5,-31
    40de:	019d47a7          	fsq	fs9,15(s10)
    40e2:	c14c460f          	0xc14c460f
    40e6:	6cf44843          	0x6cf44843
    40ea:	490d                	li	s2,3
    40ec:	725c                	ld	a5,160(a2)
    40ee:	401347b3          	0x401347b3
    40f2:	4859                	li	a6,22
    40f4:	f154                	sd	a3,160(a0)
    40f6:	45fa                	lw	a1,156(sp)
    40f8:	b282                	fsd	ft0,352(sp)
    40fa:	620547b3          	0x620547b3
    40fe:	7ab1484b          	fnmsub.d	fa6,ft2,fa1,fa5,rmm
    4102:	47de                	lw	a5,212(sp)
    4104:	6fa6                	ld	t6,72(sp)
    4106:	4910                	lw	a2,16(a0)
    4108:	8596                	mv	a1,t0
    410a:	4794                	lw	a3,8(a5)
    410c:	09dd                	addi	s3,s3,23
    410e:	492c                	lw	a1,80(a0)
    4110:	2bc5                	addiw	s7,s7,17
    4112:	4820                	lw	s0,80(s0)
    4114:	e7c2                	sd	a6,456(sp)
    4116:	d52147eb          	0xd52147eb
    411a:	b6d14757          	0xb6d14757
    411e:	48aa                	lw	a7,136(sp)
    4120:	9b62                	add	s6,s6,s8
    4122:	4612                	lw	a2,4(sp)
    4124:	470a8e6f          	jal	t3,0xac594
    4128:	d9dd                	beqz	a1,0x40de
    412a:	596f483b          	0x596f483b
    412e:	45b4                	lw	a3,72(a1)
    4130:	088a                	slli	a7,a7,0x2
    4132:	48c8                	lw	a0,20(s1)
    4134:	39dc                	fld	fa5,176(a1)
    4136:	4748                	lw	a0,12(a4)
    4138:	60fc                	ld	a5,192(s1)
    413a:	4731                	li	a4,12
    413c:	14e8                	addi	a0,sp,620
    413e:	47b8                	lw	a4,72(a5)
    4140:	f285                	bnez	a3,0x4060
    4142:	4911                	li	s2,4
    4144:	3cea                	fld	fs9,184(sp)
    4146:	4692                	lw	a3,4(sp)
    4148:	489f189b          	0x489f189b
    414c:	675e                	ld	a4,464(sp)
    414e:	474c                	lw	a1,12(a4)
    4150:	b815                	j	0x3984
    4152:	c471494f          	0xc471494f
    4156:	48a2                	lw	a7,8(sp)
    4158:	48e4e7db          	0x48e4e7db
    415c:	daae                	sw	a1,116(sp)
    415e:	48c2                	lw	a7,16(sp)
    4160:	48a78e87          	0x48a78e87
    4164:	159f 4881 28cc      	0x28cc4881159f
    416a:	482e                	lw	a6,200(sp)
    416c:	caf4                	sw	a3,84(a3)
    416e:	4842                	lw	a6,16(sp)
    4170:	6d79                	lui	s10,0x1e
    4172:	479d                	li	a5,7
    4174:	2e96                	fld	ft9,320(sp)
    4176:	f3e0460f          	0xf3e0460f
    417a:	489a                	lw	a7,132(sp)
    417c:	21e5                	addiw	gp,gp,25
    417e:	36db4803          	lbu	a6,877(s6)
    4182:	161c46c3          	fmadd.q	fa3,fs8,ft1,ft2,rmm
    4186:	eaa94733          	0xeaa94733
    418a:	87c04707          	flq	fa4,-1924(zero) # 0xfffffffffffff87c
    418e:	4719                	li	a4,6
    4190:	48cb1ebb          	0x48cb1ebb
    4194:	b4cc                	fsd	fa1,168(s1)
    4196:	75304713          	xori	a4,zero,1875
    419a:	4688                	lw	a0,8(a3)
    419c:	772a                	ld	a4,168(sp)
    419e:	48c6                	lw	a7,80(sp)
    41a0:	5618                	lw	a4,40(a2)
    41a2:	48ea                	lw	a7,152(sp)
    41a4:	25f0                	fld	fa2,200(a1)
    41a6:	4862                	lw	a6,24(sp)
    41a8:	a1f5                	j	0x4694
    41aa:	4681                	li	a3,0
    41ac:	248a                	fld	fs1,128(sp)
    41ae:	490a                	lw	s2,128(sp)
    41b0:	25ba                	fld	fa1,392(sp)
    41b2:	4825                	li	a6,9
    41b4:	7628                	ld	a0,104(a2)
    41b6:	4709                	li	a4,2
    41b8:	0bbc                	addi	a5,sp,472
    41ba:	4846                	lw	a6,80(sp)
    41bc:	7fc2                	ld	t6,48(sp)
    41be:	4618                	lw	a4,8(a2)
    41c0:	463131ef          	jal	gp,0x17e22
    41c4:	f8bc                	sd	a5,112(s1)
    41c6:	3f2346fb          	0x3f2346fb
    41ca:	7417482f          	0x7417482f
    41ce:	48cd                	li	a7,19
    41d0:	49066b13          	ori	s6,a2,1168
    41d4:	fd00                	sd	s0,56(a0)
    41d6:	489a                	lw	a7,132(sp)
    41d8:	5a04                	lw	s1,48(a2)
    41da:	581b45af          	0x581b45af
    41de:	47e0                	lw	s0,76(a5)
    41e0:	3c70                	fld	fa2,248(s0)
    41e2:	48de                	lw	a7,212(sp)
    41e4:	3294                	fld	fa3,32(a3)
    41e6:	4810                	lw	a2,16(s0)
    41e8:	30f2                	fld	ft1,312(sp)
    41ea:	4902                	lw	s2,0(sp)
    41ec:	cf18                	sw	a4,24(a4)
    41ee:	4758                	lw	a4,12(a4)
    41f0:	47545763          	bge	s0,s5,0x465e
    41f4:	c384                	sw	s1,0(a5)
    41f6:	48c5                	li	a7,17
    41f8:	1056                	c.slli	zero,0x35
    41fa:	4855                	li	a6,21
    41fc:	699a                	ld	s3,384(sp)
    41fe:	070f48a3          	0x70f48a3
    4202:	be9c492f          	0xbe9c492f
    4206:	e7f2481b          	0xe7f2481b
    420a:	4872                	lw	a6,28(sp)
    420c:	2228                	fld	fa0,64(a2)
    420e:	490d                	li	s2,3
    4210:	d9d5                	beqz	a1,0x41c4
    4212:	475d                	li	a4,23
    4214:	7ba6                	ld	s7,104(sp)
    4216:	df0747b3          	0xdf0747b3
    421a:	48aa                	lw	a7,136(sp)
    421c:	40c5                	li	ra,17
    421e:	d673478b          	0xd673478b
    4222:	4716                	lw	a4,68(sp)
    4224:	1765                	addi	a4,a4,-7
    4226:	4615                	li	a2,5
    4228:	86dc                	0x86dc
    422a:	f9154787          	flq	fa5,-111(a0) # 0xfffffffffffecf91
    422e:	492e                	lw	s2,200(sp)
    4230:	4712                	lw	a4,4(sp)
    4232:	4820                	lw	s0,80(s0)
    4234:	a4e9                	j	0x44fe
    4236:	4764                	lw	s1,76(a4)
    4238:	781d                	lui	a6,0xfffe7
    423a:	46a2                	lw	a3,8(sp)
    423c:	b36d                	j	0x3fe6
    423e:	48ea                	lw	a7,152(sp)
    4240:	48d8313f 4710aedb 	0x4710aedb48d8313f
    4248:	c949                	beqz	a0,0x42da
    424a:	7b26480b          	0x7b26480b
    424e:	482d                	li	a6,11
    4250:	0310                	addi	a2,sp,384
    4252:	b26c48af          	0xb26c48af
    4256:	404a46b3          	0x404a46b3
    425a:	4610                	lw	a2,8(a2)
    425c:	47e20e23          	sb	t5,1148(tp) # 0x47c
    4260:	24ee                	fld	fs1,216(sp)
    4262:	481e                	lw	a6,196(sp)
    4264:	493e3b17          	auipc	s6,0x493e3
    4268:	4782b6e7          	0x4782b6e7
    426c:	47a850a7          	0x47a850a7
    4270:	ca8d                	beqz	a3,0x42a2
    4272:	47ae                	lw	a5,200(sp)
    4274:	bf54                	fsd	fa3,184(a4)
    4276:	4810                	lw	a2,16(s0)
    4278:	eab2                	sd	a2,336(sp)
    427a:	4802                	lw	a6,0(sp)
    427c:	e0c9                	bnez	s1,0x42fe
    427e:	47a8                	lw	a0,72(a5)
    4280:	47211c73          	csrrw	s8,0x472,sp
    4284:	478d                	li	a5,3
    4286:	4934                	lw	a3,80(a0)
    4288:	50fc                	lw	a5,100(s1)
    428a:	47e2                	lw	a5,24(sp)
    428c:	073e                	slli	a4,a4,0xf
    428e:	495e                	lw	s2,212(sp)
    4290:	48475b6b          	0x48475b6b
    4294:	48698b3f 470a7197 	0x470a719748698b3f
    429c:	e564                	sd	s1,200(a0)
    429e:	4826                	lw	a6,72(sp)
    42a0:	2c39                	addiw	s8,s8,14
    42a2:	48c2                	lw	a7,16(sp)
    42a4:	4700                	lw	s0,8(a4)
    42a6:	483a                	lw	a6,140(sp)
    42a8:	475c5527          	0x475c5527
    42ac:	c324                	sw	s1,64(a4)
    42ae:	489a                	lw	a7,132(sp)
    42b0:	4946                	lw	s2,80(sp)
    42b2:	129d4743          	fmadd.d	fa4,fs10,fs1,ft2,rmm
    42b6:	48ee                	lw	a7,216(sp)
    42b8:	eec6                	sd	a7,344(sp)
    42ba:	473c                	lw	a5,72(a4)
    42bc:	473f1b7b          	0x473f1b7b
    42c0:	5f24                	lw	s1,120(a4)
    42c2:	48ce                	lw	a7,208(sp)
    42c4:	b75d                	j	0x426a
    42c6:	486d                	li	a6,27
    42c8:	486e71c3          	fmadd.s	ft3,ft8,ft6,fs1
    42cc:	ab9c                	fsd	fa5,16(a5)
    42ce:	4714                	lw	a3,8(a4)
    42d0:	54e9                	li	s1,-6
    42d2:	4912                	lw	s2,4(sp)
    42d4:	4891cc3f 491ed648 	0x491ed6484891cc3f
    42dc:	5a10                	lw	a2,48(a2)
    42de:	4889                	li	a7,2
    42e0:	0f3d                	addi	t5,t5,15
    42e2:	2bc1484f          	fnmadd.d	fa6,ft2,ft8,ft5,rmm
    42e6:	483c                	lw	a5,80(s0)
    42e8:	489c8fbb          	0x489c8fbb
    42ec:	8584                	0x8584
    42ee:	e4fc462b          	0xe4fc462b
    42f2:	4804                	lw	s1,16(s0)
    42f4:	117d                	addi	sp,sp,-1
    42f6:	42cd467b          	0x42cd467b
    42fa:	476a                	lw	a4,152(sp)
    42fc:	f914                	sd	a3,48(a0)
    42fe:	48c0                	lw	s0,20(s1)
    4300:	4529                	li	a0,10
    4302:	47c4                	lw	s1,12(a5)
    4304:	6a35                	lui	s4,0xd
    4306:	475e                	lw	a4,212(sp)
    4308:	74f4                	ld	a3,232(s1)
    430a:	488c                	lw	a1,16(s1)
    430c:	4b66                	lw	s6,88(sp)
    430e:	4809                	li	a6,2
    4310:	8308                	0x8308
    4312:	4842                	lw	a6,16(sp)
    4314:	cfd1                	beqz	a5,0x43b0
    4316:	4852                	lw	a6,20(sp)
    4318:	481e874b          	fnmsub.s	fa4,ft9,ft1,fs1,rne
    431c:	6f39                	lui	t5,0xe
    431e:	3837487b          	0x3837487b
    4322:	4851                	li	a6,20
    4324:	62c9                	lui	t0,0x12
    4326:	475c                	lw	a5,12(a4)
    4328:	479c9e3f 47bd5c21 	0x47bd5c21479c9e3f
    4330:	f5cc                	sd	a1,168(a1)
    4332:	4910                	lw	a2,16(a0)
    4334:	d9ae                	sw	a1,240(sp)
    4336:	47a4                	lw	s1,72(a5)
    4338:	9cfa                	add	s9,s9,t5
    433a:	488c                	lw	a1,16(s1)
    433c:	8c05                	sub	s0,s0,s1
    433e:	4886                	lw	a7,64(sp)
    4340:	4810a7c3          	fmadd.s	fa5,ft1,ft1,fs1,rdn
    4344:	db1f 48c9 dbed      	0xdbed48c9db1f
    434a:	47a8                	lw	a0,72(a5)
    434c:	48859c3b          	0x48859c3b
    4350:	46de4af7          	0x46de4af7
    4354:	4ca8                	lw	a0,88(s1)
    4356:	4725                	li	a4,9
    4358:	47c1d957          	0x47c1d957
    435c:	7262                	ld	tp,56(sp)
    435e:	46b2                	lw	a3,12(sp)
    4360:	afd2                	fsd	fs4,472(sp)
    4362:	f6774693          	xori	a3,a4,-153
    4366:	4788                	lw	a0,8(a5)
    4368:	744a                	ld	s0,176(sp)
    436a:	48c0                	lw	s0,20(s1)
    436c:	b855                	j	0x3c20
    436e:	4876                	lw	a6,92(sp)
    4370:	46d95e57          	0x46d95e57
    4374:	8180                	0x8180
    4376:	482e                	lw	a6,200(sp)
    4378:	f590                	sd	a2,40(a1)
    437a:	4808                	lw	a0,16(s0)
    437c:	ed8c                	sd	a1,24(a1)
    437e:	4911                	li	s2,4
    4380:	5418                	lw	a4,40(s0)
    4382:	4892                	lw	a7,4(sp)
    4384:	4c3d                	li	s8,15
    4386:	4935                	li	s2,13
    4388:	000d                	c.nop	3
    438a:	48a4                	lw	s1,80(s1)
    438c:	bd11                	j	0x41a0
    438e:	4812                	lw	a6,4(sp)
    4390:	fb9a                	sd	t1,496(sp)
    4392:	4691                	li	a3,4
    4394:	c2f9                	beqz	a3,0x445a
    4396:	4791                	li	a5,4
    4398:	488fddbf 4881ee07 	0x4881ee07488fddbf
    43a0:	22e6                	fld	ft5,88(sp)
    43a2:	481f 9cf7 48c4      	0x48c49cf7481f
    43a8:	d0d8                	sw	a4,36(s1)
    43aa:	47f8                	lw	a4,76(a5)
    43ac:	4722beaf          	amoor.d.aqrl	t4,s2,(t0)
    43b0:	db20                	sw	s0,112(a4)
    43b2:	48ad                	li	a7,11
    43b4:	7ed9                	lui	t4,0xffff6
    43b6:	4806                	lw	a6,64(sp)
    43b8:	1040                	addi	s0,sp,36
    43ba:	3357490f          	0x3357490f
    43be:	51234953          	0x51234953
    43c2:	48a0                	lw	s0,80(s1)
    43c4:	13ad                	addi	t2,t2,-21
    43c6:	48d5                	li	a7,21
    43c8:	6400                	ld	s0,8(s0)
    43ca:	4756                	lw	a4,84(sp)
    43cc:	12d0                	addi	a2,sp,356
    43ce:	495d                	li	s2,23
    43d0:	0612                	slli	a2,a2,0x4
    43d2:	4831                	li	a6,12
    43d4:	54d8                	lw	a4,44(s1)
    43d6:	979347bb          	0x979347bb
    43da:	4926                	lw	s2,72(sp)
    43dc:	2de2                	fld	fs11,24(sp)
    43de:	483d                	li	a6,15
    43e0:	2635                	addiw	a2,a2,13
    43e2:	49b744a3          	0x49b744a3
    43e6:	4788                	lw	a0,8(a5)
    43e8:	48f5a3f3          	csrrs	t2,0x48f,a1
    43ec:	917f                	0x917f
    43ee:	b755482f          	0xb755482f
    43f2:	4815                	li	a6,5
    43f4:	46304673          	0x46304673
    43f8:	4750f45b          	0x4750f45b
    43fc:	8606                	mv	a2,ra
    43fe:	4911                	li	s2,4
    4400:	4880c2db          	0x4880c2db
    4404:	0e06                	slli	t3,t3,0x1
    4406:	469c                	lw	a5,8(a3)
    4408:	6259                	lui	tp,0x16
    440a:	47e6                	lw	a5,88(sp)
    440c:	9b68                	0x9b68
    440e:	66e045bb          	0x66e045bb
    4412:	d4ab4717          	auipc	a4,0xd4ab4
    4416:	483e                	lw	a6,204(sp)
    4418:	e419                	bnez	s0,0x4426
    441a:	46bc                	lw	a5,72(a3)
    441c:	f3bc                	sd	a5,96(a5)
    441e:	9b8f489b          	0x9b8f489b
    4422:	4704                	lw	s1,8(a4)
    4424:	4851a76b          	0x4851a76b
    4428:	44fe                	lw	s1,220(sp)
    442a:	490d                	li	s2,3
    442c:	1606                	slli	a2,a2,0x21
    442e:	479a                	lw	a5,132(sp)
    4430:	40b6                	lw	ra,76(sp)
    4432:	4a3d470f          	0x4a3d470f
    4436:	493c                	lw	a5,80(a0)
    4438:	47de0523          	sb	t4,1130(t3)
    443c:	25b9                	addiw	a1,a1,14
    443e:	c3044903          	lbu	s2,-976(s0) # 0xffffffffa8f676be
    4442:	a69448f3          	0xa69448f3
    4446:	488a                	lw	a7,128(sp)
    4448:	70c2                	ld	ra,48(sp)
    444a:	48a8                	lw	a0,80(s1)
    444c:	9f0e                	add	t5,t5,gp
    444e:	4910                	lw	a2,16(a0)
    4450:	0062                	c.slli	zero,0x18
    4452:	489a                	lw	a7,132(sp)
    4454:	9be0                	0x9be0
    4456:	484c                	lw	a1,20(s0)
    4458:	48bd8883          	lb	a7,1163(s11) # 0x1b48b
    445c:	901c                	0x901c
    445e:	4802                	lw	a6,0(sp)
    4460:	d57e                	sw	t6,168(sp)
    4462:	47b5                	li	a5,13
    4464:	b080                	fsd	fs0,32(s1)
    4466:	46c1                	li	a3,16
    4468:	4835c383          	lbu	t2,1155(a1) # 0xfffffffffffe0483
    446c:	4801cb3f 482f4354 	0x482f43544801cb3f
    4474:	2605                	addiw	a2,a2,1
    4476:	4601                	li	a2,0
    4478:	90ae                	add	ra,ra,a1
    447a:	47dc                	lw	a5,12(a5)
    447c:	cdfc                	sw	a5,92(a1)
    447e:	47b0                	lw	a2,72(a5)
    4480:	4758a03b          	0x4758a03b
    4484:	48ac                	lw	a1,80(s1)
    4486:	47fc                	lw	a5,76(a5)
    4488:	5d30                	lw	a2,120(a0)
    448a:	5ce548f7          	0x5ce548f7
    448e:	458e                	lw	a1,192(sp)
    4490:	46067f33          	0x46067f33
    4494:	aed6                	fsd	fs5,344(sp)
    4496:	46e5                	li	a3,25
    4498:	318d                	addiw	gp,gp,-29
    449a:	490d                	li	s2,3
    449c:	9572                	add	a0,a0,t3
    449e:	486d                	li	a6,27
    44a0:	3c39                	addiw	s8,s8,-18
    44a2:	45b1                	li	a1,12
    44a4:	d6d9                	beqz	a3,0x4432
    44a6:	4701                	li	a4,0
    44a8:	1410                	addi	a2,sp,544
    44aa:	491e                	lw	s2,196(sp)
    44ac:	5f30                	lw	a2,120(a4)
    44ae:	4812                	lw	a6,4(sp)
    44b0:	d614                	sw	a3,40(a2)
    44b2:	4881                	li	a7,0
    44b4:	969c                	0x969c
    44b6:	4685                	li	a3,1
    44b8:	9bdd                	andi	a5,a5,-9
    44ba:	4914                	lw	a3,16(a0)
    44bc:	e171                	bnez	a0,0x4580
    44be:	34634697          	auipc	a3,0x34634
    44c2:	4708                	lw	a0,8(a4)
    44c4:	c4e5                	beqz	s1,0x45ac
    44c6:	459d                	li	a1,7
    44c8:	d0d1                	beqz	s1,0x444c
    44ca:	c860457b          	0xc860457b
    44ce:	4905                	li	s2,1
    44d0:	314d                	addiw	sp,sp,-13
    44d2:	4919                	li	s2,6
    44d4:	47db732b          	0x47db732b
    44d8:	48eb8077          	0x48eb8077
    44dc:	6874                	ld	a3,208(s0)
    44de:	7194472f          	0x7194472f
    44e2:	4876                	lw	a6,92(sp)
    44e4:	4738e257          	0x4738e257
    44e8:	c8b0                	sw	a2,80(s1)
    44ea:	f4cf48af          	0xf4cf48af
    44ee:	4805                	li	a6,1
    44f0:	491ba953          	0x491ba953
    44f4:	4826bd0f          	0x4826bd0f
    44f8:	7704                	ld	s1,40(a4)
    44fa:	48a0                	lw	s0,80(s1)
    44fc:	b5b1                	j	0x4348
    44fe:	4820                	lw	s0,80(s0)
    4500:	48c9b867          	0x48c9b867
    4504:	f7f6                	sd	t4,488(sp)
    4506:	46c0                	lw	s0,12(a3)
    4508:	c264                	sw	s1,68(a2)
    450a:	379b4703          	lbu	a4,889(s6) # 0x493e75dd
    450e:	4644                	lw	s1,12(a2)
    4510:	ba7e                	fsd	ft11,304(sp)
    4512:	47ae                	lw	a5,200(sp)
    4514:	b5da                	fsd	fs6,232(sp)
    4516:	4932                	lw	s2,12(sp)
    4518:	4a8a                	lw	s5,128(sp)
    451a:	48ff                	0x48ff
    451c:	9209                	srli	a2,a2,0x22
    451e:	c02247db          	0xc02247db
    4522:	5c61480b          	0x5c61480b
    4526:	4609                	li	a2,2
    4528:	4869efeb          	0x4869efeb
    452c:	4743c5a7          	fsq	fs4,1131(t2) # 0xd46b
    4530:	93e5                	srli	a5,a5,0x39
    4532:	4804                	lw	s1,16(s0)
    4534:	a7b0                	fsd	fa2,72(a5)
    4536:	4891                	li	a7,4
    4538:	791d                	lui	s2,0xfffe7
    453a:	c94048b3          	0xc94048b3
    453e:	7fb448ab          	0x7fb448ab
    4542:	0b554913          	xori	s2,a0,181
    4546:	4896                	lw	a7,68(sp)
    4548:	48adf673          	csrrci	a2,0x48a,27
    454c:	01c0                	addi	s0,sp,196
    454e:	4888                	lw	a0,16(s1)
    4550:	d9dc                	sw	a5,52(a1)
    4552:	4741                	li	a4,16
    4554:	62d2                	ld	t0,272(sp)
    4556:	4835                	li	a6,13
    4558:	9c78                	0x9c78
    455a:	487a                	lw	a6,156(sp)
    455c:	c4fe                	sw	t6,72(sp)
    455e:	4646                	lw	a2,80(sp)
    4560:	d9b9                	beqz	a1,0x44b6
    4562:	4792                	lw	a5,4(sp)
    4564:	48b36f4f          	fnmadd.s	ft10,ft6,fa1,fs1,unknown
    4568:	d638                	sw	a4,104(a2)
    456a:	4608                	lw	a0,8(a2)
    456c:	dd30                	sw	a2,120(a0)
    456e:	88e64733          	0x88e64733
    4572:	490d                	li	s2,3
    4574:	473208fb          	0x473208fb
    4578:	7d78                	ld	a4,248(a0)
    457a:	4744                	lw	s1,12(a4)
    457c:	35ba                	fld	fa1,424(sp)
    457e:	4886                	lw	a7,64(sp)
    4580:	48b9b51b          	0x48b9b51b
    4584:	9130                	0x9130
    4586:	4905                	li	s2,1
    4588:	4915d247          	fmsub.s	ft4,fa1,fa7,fs1,unknown
    458c:	8031                	srli	s0,s0,0xc
    458e:	4836                	lw	a6,76(sp)
    4590:	47b981c7          	fmsub.q	ft3,fs3,fs11,fs0,rne
    4594:	49432e3f 48d52320 	0x48d5232049432e3f
    459c:	e4a2                	sd	s0,72(sp)
    459e:	48dd                	li	a7,23
    45a0:	4db6                	lw	s11,76(sp)
    45a2:	491f 17f1 47b1      	0x47b117f1491f
    45a8:	473eb0db          	0x473eb0db
    45ac:	484dea33          	0x484dea33
    45b0:	3101                	addiw	sp,sp,-32
    45b2:	482a                	lw	a6,136(sp)
    45b4:	1a0a                	slli	s4,s4,0x22
    45b6:	47ae                	lw	a5,200(sp)
    45b8:	f5e9                	bnez	a1,0x4582
    45ba:	86b3475b          	0x86b3475b
    45be:	4771                	li	a4,28
    45c0:	e33a                	sd	a4,384(sp)
    45c2:	48da                	lw	a7,148(sp)
    45c4:	5180                	lw	s0,32(a1)
    45c6:	4880                	lw	s0,16(s1)
    45c8:	5bbe                	lw	s7,236(sp)
    45ca:	485d                	li	a6,23
    45cc:	383d                	addiw	a6,a6,-17
    45ce:	4610                	lw	a2,8(a2)
    45d0:	0380                	addi	s0,sp,448
    45d2:	5b1d489b          	0x5b1d489b
    45d6:	4944                	lw	s1,20(a0)
    45d8:	74c1                	lui	s1,0xffff0
    45da:	4529                	li	a0,10
    45dc:	cea2                	sw	s0,92(sp)
    45de:	491a                	lw	s2,132(sp)
    45e0:	0c1f 46ab 31cf      	0x31cf46ab0c1f
    45e6:	6426484f          	0x6426484f
    45ea:	7643484b          	fnmsub.q	fa6,ft6,ft4,fa4,rmm
    45ee:	f0e44807          	flq	fa6,-242(s0)
    45f2:	4851                	li	a6,20
    45f4:	f196                	sd	t0,224(sp)
    45f6:	4541                	li	a0,16
    45f8:	0d54                	addi	a3,sp,660
    45fa:	4840                	lw	s0,20(s0)
    45fc:	48e295a7          	0x48e295a7
    4600:	a5d0                	fsd	fa2,136(a1)
    4602:	3b89490f          	0x3b89490f
    4606:	4910                	lw	a2,16(a0)
    4608:	6e22                	ld	t3,8(sp)
    460a:	48df bf2f 4888      	0x4888bf2f48df
    4610:	48a3bc73          	csrrc	s8,0x48a,t2
    4614:	284a                	fld	fa6,144(sp)
    4616:	4875                	li	a6,29
    4618:	48cfe90f          	0x48cfe90f
    461c:	488faa13          	slti	s4,t6,1160
    4620:	af70                	fsd	fa2,216(a4)
    4622:	d0a04887          	flq	fa7,-758(zero) # 0xfffffffffffffd0a
    4626:	4ee046b7          	lui	a3,0x4ee04
    462a:	1eb747a7          	fsq	fa1,495(a4) # 0xffffffffd4ab8601
    462e:	014b4803          	lbu	a6,20(s6)
    4632:	48e9                	li	a7,26
    4634:	490787d3          	0x490787d3
    4638:	3671                	addiw	a2,a2,-4
    463a:	509148d3          	0x509148d3
    463e:	48aa                	lw	a7,136(sp)
    4640:	4821672f          	0x4821672f
    4644:	489a95bf 45d1ca0c 	0x45d1ca0c489a95bf
    464c:	c364                	sw	s1,68(a4)
    464e:	4904                	lw	s1,16(a0)
    4650:	491d6c43          	fmadd.s	fs8,fs10,fa7,fs1,unknown
    4654:	001d                	c.nop	7
    4656:	456a                	lw	a0,152(sp)
    4658:	2c66                	fld	fs8,88(sp)
    465a:	4901                	li	s2,0
    465c:	9130                	0x9130
    465e:	4822                	lw	a6,8(sp)
    4660:	3101                	addiw	sp,sp,-32
    4662:	488c                	lw	a1,16(s1)
    4664:	d3a2                	sw	s0,228(sp)
    4666:	481a                	lw	a6,132(sp)
    4668:	96c5                	srai	a3,a3,0x31
    466a:	45be                	lw	a1,204(sp)
    466c:	c4c9                	beqz	s1,0x46f6
    466e:	185a47bf 73f447be 	0x73f447be185a47bf
    4676:	1c3147e7          	0x1c3147e7
    467a:	48d2                	lw	a7,20(sp)
    467c:	90e0                	0x90e0
    467e:	4800                	lw	s0,16(s0)
    4680:	26a8                	fld	fa0,72(a3)
    4682:	5b8f46eb          	0x5b8f46eb
    4686:	470c                	lw	a1,8(a4)
    4688:	29fc                	fld	fa5,208(a1)
    468a:	4230                	lw	a2,64(a2)
    468c:	47d59e47          	fmsub.q	ft8,fa1,ft9,fs0,rtz
    4690:	2fee                	fld	ft11,216(sp)
    4692:	48a9                	li	a7,10
    4694:	62c5                	lui	t0,0x11
    4696:	4639                	li	a2,14
    4698:	4761874f          	fnmadd.q	fa4,ft3,fs6,fs0,rne
    469c:	0f6c                	addi	a1,sp,924
    469e:	48c6                	lw	a7,80(sp)
    46a0:	47a88b57          	0x47a88b57
    46a4:	4755                	li	a4,21
    46a6:	9d774937          	lui	s2,0x9d774
    46aa:	487c                	lw	a5,84(s0)
    46ac:	8885                	andi	s1,s1,1
    46ae:	47c9                	li	a5,18
    46b0:	b591                	j	0x44f4
    46b2:	56f9493f 44a14915 	0x44a1491556f9493f
    46ba:	47f4                	lw	a3,76(a5)
    46bc:	bdda                	fsd	fs6,248(sp)
    46be:	467e                	lw	a2,220(sp)
    46c0:	47946847          	fmsub.q	fa6,fs0,fs9,fs0,unknown
