
exe:     file format elf32-littleriscv


Disassembly of section .text.init:

00000000 <entry>:
   0:	00010117          	auipc	sp,0x10
   4:	fd010113          	addi	sp,sp,-48 # ffd0 <main+0xffc0>
   8:	008000ef          	jal	ra,10 <main>

0000000c <end>:
   c:	0000006f          	j	c <end>

Disassembly of section .text:

00000010 <main>:
  10:	fd010113          	addi	sp,sp,-48
  14:	02812623          	sw	s0,44(sp)
  18:	03010413          	addi	s0,sp,48
  1c:	000107b7          	lui	a5,0x10
  20:	ffc78793          	addi	a5,a5,-4 # fffc <__sp+0xc>
  24:	fef42023          	sw	a5,-32(s0)
  28:	00c00793          	li	a5,12
  2c:	fcf42e23          	sw	a5,-36(s0)
  30:	fe042423          	sw	zero,-24(s0)
  34:	00100793          	li	a5,1
  38:	fef42223          	sw	a5,-28(s0)
  3c:	00100793          	li	a5,1
  40:	fef42623          	sw	a5,-20(s0)
  44:	fec42703          	lw	a4,-20(s0)
  48:	fdc42783          	lw	a5,-36(s0)
  4c:	04e7c063          	blt	a5,a4,8c <main+0x7c>
  50:	fe042783          	lw	a5,-32(s0)
  54:	fe842703          	lw	a4,-24(s0)
  58:	00e7a023          	sw	a4,0(a5)
  5c:	fe842703          	lw	a4,-24(s0)
  60:	fe442783          	lw	a5,-28(s0)
  64:	00f707b3          	add	a5,a4,a5
  68:	fcf42c23          	sw	a5,-40(s0)
  6c:	fe442783          	lw	a5,-28(s0)
  70:	fef42423          	sw	a5,-24(s0)
  74:	fd842783          	lw	a5,-40(s0)
  78:	fef42223          	sw	a5,-28(s0)
  7c:	fec42783          	lw	a5,-20(s0)
  80:	00178793          	addi	a5,a5,1
  84:	fef42623          	sw	a5,-20(s0)
  88:	fbdff06f          	j	44 <main+0x34>
  8c:	00000793          	li	a5,0
  90:	00078513          	mv	a0,a5
  94:	02c12403          	lw	s0,44(sp)
  98:	03010113          	addi	sp,sp,48
  9c:	00008067          	ret
