
disassembly.o:     file format elf64-littleriscv


Disassembly of section .text:

0000000000000000 <.text>:
       0:	00010117          	auipc	sp,0x10
       4:	ffc10113          	addi	sp,sp,-4 # 0xfffc
       8:	018000ef          	jal	ra,0x20
       c:	00130313          	addi	t1,t1,1
      10:	000103b7          	lui	t2,0x10
      14:	00c38393          	addi	t2,t2,12 # 0x1000c
      18:	0063a023          	sw	t1,0(t2)
      1c:	0000006f          	j	0x1c
      20:	ff010113          	addi	sp,sp,-16
      24:	00112623          	sw	ra,12(sp)
      28:	00812423          	sw	s0,8(sp)
      2c:	01010413          	addi	s0,sp,16
      30:	221000ef          	jal	ra,0xa50
      34:	00000013          	nop
      38:	00c12083          	lw	ra,12(sp)
      3c:	00812403          	lw	s0,8(sp)
      40:	01010113          	addi	sp,sp,16
      44:	00008067          	ret
      48:	fd010113          	addi	sp,sp,-48
      4c:	02812623          	sw	s0,44(sp)
      50:	03010413          	addi	s0,sp,48
      54:	00050793          	mv	a5,a0
      58:	fcf40fa3          	sb	a5,-33(s0)
      5c:	000107b7          	lui	a5,0x10
      60:	00478793          	addi	a5,a5,4 # 0x10004
      64:	fef42623          	sw	a5,-20(s0)
      68:	fdf44703          	lbu	a4,-33(s0)
      6c:	fec42783          	lw	a5,-20(s0)
      70:	00e7a023          	sw	a4,0(a5)
      74:	fec42783          	lw	a5,-20(s0)
      78:	0007a703          	lw	a4,0(a5)
      7c:	fdf44783          	lbu	a5,-33(s0)
      80:	40f707b3          	sub	a5,a4,a5
      84:	0017b793          	seqz	a5,a5
      88:	0ff7f793          	andi	a5,a5,255
      8c:	00078663          	beqz	a5,0x98
      90:	00100793          	li	a5,1
      94:	0080006f          	j	0x9c
      98:	00000793          	li	a5,0
      9c:	00078513          	mv	a0,a5
      a0:	02c12403          	lw	s0,44(sp)
      a4:	03010113          	addi	sp,sp,48
      a8:	00008067          	ret
      ac:	fd010113          	addi	sp,sp,-48
      b0:	02112623          	sw	ra,44(sp)
      b4:	02812423          	sw	s0,40(sp)
      b8:	03010413          	addi	s0,sp,48
      bc:	fca42e23          	sw	a0,-36(s0)
      c0:	fe042623          	sw	zero,-20(s0)
      c4:	00100793          	li	a5,1
      c8:	fef42423          	sw	a5,-24(s0)
      cc:	fec42783          	lw	a5,-20(s0)
      d0:	fdc42703          	lw	a4,-36(s0)
      d4:	00f707b3          	add	a5,a4,a5
      d8:	0007c783          	lbu	a5,0(a5)
      dc:	02078e63          	beqz	a5,0x118
      e0:	fec42783          	lw	a5,-20(s0)
      e4:	fdc42703          	lw	a4,-36(s0)
      e8:	00f707b3          	add	a5,a4,a5
      ec:	0007c783          	lbu	a5,0(a5)
      f0:	00078513          	mv	a0,a5
      f4:	f55ff0ef          	jal	ra,0x48
      f8:	00050713          	mv	a4,a0
      fc:	fe842783          	lw	a5,-24(s0)
     100:	00f777b3          	and	a5,a4,a5
     104:	fef42423          	sw	a5,-24(s0)
     108:	fec42783          	lw	a5,-20(s0)
     10c:	00178793          	addi	a5,a5,1
     110:	fef42623          	sw	a5,-20(s0)
     114:	fb9ff06f          	j	0xcc
     118:	00000513          	li	a0,0
     11c:	f2dff0ef          	jal	ra,0x48
     120:	00050713          	mv	a4,a0
     124:	fe842783          	lw	a5,-24(s0)
     128:	00f777b3          	and	a5,a4,a5
     12c:	fef42423          	sw	a5,-24(s0)
     130:	fe842783          	lw	a5,-24(s0)
     134:	00078513          	mv	a0,a5
     138:	02c12083          	lw	ra,44(sp)
     13c:	02812403          	lw	s0,40(sp)
     140:	03010113          	addi	sp,sp,48
     144:	00008067          	ret
     148:	fe010113          	addi	sp,sp,-32
     14c:	00812e23          	sw	s0,28(sp)
     150:	02010413          	addi	s0,sp,32
     154:	fea42623          	sw	a0,-20(s0)
     158:	feb42423          	sw	a1,-24(s0)
     15c:	fe842783          	lw	a5,-24(s0)
     160:	fec42703          	lw	a4,-20(s0)
     164:	00e7a023          	sw	a4,0(a5)
     168:	00100793          	li	a5,1
     16c:	00078513          	mv	a0,a5
     170:	01c12403          	lw	s0,28(sp)
     174:	02010113          	addi	sp,sp,32
     178:	00008067          	ret
     17c:	fd010113          	addi	sp,sp,-48
     180:	02812623          	sw	s0,44(sp)
     184:	03010413          	addi	s0,sp,48
     188:	fca42e23          	sw	a0,-36(s0)
     18c:	fcb42c23          	sw	a1,-40(s0)
     190:	fcc42a23          	sw	a2,-44(s0)
     194:	fe042623          	sw	zero,-20(s0)
     198:	fec42703          	lw	a4,-20(s0)
     19c:	fd842783          	lw	a5,-40(s0)
     1a0:	02f77863          	bgeu	a4,a5,0x1d0
     1a4:	fdc42703          	lw	a4,-36(s0)
     1a8:	fec42783          	lw	a5,-20(s0)
     1ac:	00f707b3          	add	a5,a4,a5
     1b0:	0007c783          	lbu	a5,0(a5)
     1b4:	00078713          	mv	a4,a5
     1b8:	fd442783          	lw	a5,-44(s0)
     1bc:	00e7a023          	sw	a4,0(a5)
     1c0:	fec42783          	lw	a5,-20(s0)
     1c4:	00178793          	addi	a5,a5,1
     1c8:	fef42623          	sw	a5,-20(s0)
     1cc:	fcdff06f          	j	0x198
     1d0:	fd442783          	lw	a5,-44(s0)
     1d4:	0007a023          	sw	zero,0(a5)
     1d8:	00100793          	li	a5,1
     1dc:	00078513          	mv	a0,a5
     1e0:	02c12403          	lw	s0,44(sp)
     1e4:	03010113          	addi	sp,sp,48
     1e8:	00008067          	ret
     1ec:	fd010113          	addi	sp,sp,-48
     1f0:	02812623          	sw	s0,44(sp)
     1f4:	03010413          	addi	s0,sp,48
     1f8:	fca42e23          	sw	a0,-36(s0)
     1fc:	fe042623          	sw	zero,-20(s0)
     200:	fdc42703          	lw	a4,-36(s0)
     204:	fec42783          	lw	a5,-20(s0)
     208:	00f707b3          	add	a5,a4,a5
     20c:	0007c783          	lbu	a5,0(a5)
     210:	00078a63          	beqz	a5,0x224
     214:	fec42783          	lw	a5,-20(s0)
     218:	00178793          	addi	a5,a5,1
     21c:	fef42623          	sw	a5,-20(s0)
     220:	fe1ff06f          	j	0x200
     224:	fec42783          	lw	a5,-20(s0)
     228:	00078513          	mv	a0,a5
     22c:	02c12403          	lw	s0,44(sp)
     230:	03010113          	addi	sp,sp,48
     234:	00008067          	ret
     238:	fb010113          	addi	sp,sp,-80
     23c:	04112623          	sw	ra,76(sp)
     240:	04812423          	sw	s0,72(sp)
     244:	05010413          	addi	s0,sp,80
     248:	fca42623          	sw	a0,-52(s0)
     24c:	fcb42423          	sw	a1,-56(s0)
     250:	fcc42223          	sw	a2,-60(s0)
     254:	fcd42023          	sw	a3,-64(s0)
     258:	fae42e23          	sw	a4,-68(s0)
     25c:	faf42c23          	sw	a5,-72(s0)
     260:	fbc42783          	lw	a5,-68(s0)
     264:	fef42623          	sw	a5,-20(s0)
     268:	fe042423          	sw	zero,-24(s0)
     26c:	fc842703          	lw	a4,-56(s0)
     270:	01000793          	li	a5,16
     274:	00e7f663          	bgeu	a5,a4,0x280
     278:	00000793          	li	a5,0
     27c:	1bc0006f          	j	0x438
     280:	fcc42783          	lw	a5,-52(s0)
     284:	0207d063          	bgez	a5,0x2a4
     288:	fc042783          	lw	a5,-64(s0)
     28c:	00079c63          	bnez	a5,0x2a4
     290:	00100793          	li	a5,1
     294:	fef42423          	sw	a5,-24(s0)
     298:	fcc42783          	lw	a5,-52(s0)
     29c:	40f007b3          	neg	a5,a5
     2a0:	fcf42623          	sw	a5,-52(s0)
     2a4:	fcc42783          	lw	a5,-52(s0)
     2a8:	fc842583          	lw	a1,-56(s0)
     2ac:	00078513          	mv	a0,a5
     2b0:	3e8010ef          	jal	ra,0x1698
     2b4:	00050793          	mv	a5,a0
     2b8:	fef42023          	sw	a5,-32(s0)
     2bc:	fe042703          	lw	a4,-32(s0)
     2c0:	00900793          	li	a5,9
     2c4:	00e7cc63          	blt	a5,a4,0x2dc
     2c8:	fe042783          	lw	a5,-32(s0)
     2cc:	0ff7f793          	andi	a5,a5,255
     2d0:	03078793          	addi	a5,a5,48
     2d4:	0ff7f713          	andi	a4,a5,255
     2d8:	0300006f          	j	0x308
     2dc:	fc442783          	lw	a5,-60(s0)
     2e0:	00078663          	beqz	a5,0x2ec
     2e4:	04100793          	li	a5,65
     2e8:	0080006f          	j	0x2f0
     2ec:	06100793          	li	a5,97
     2f0:	fe042703          	lw	a4,-32(s0)
     2f4:	0ff77713          	andi	a4,a4,255
     2f8:	00e787b3          	add	a5,a5,a4
     2fc:	0ff7f793          	andi	a5,a5,255
     300:	ff678793          	addi	a5,a5,-10
     304:	0ff7f713          	andi	a4,a5,255
     308:	fec42783          	lw	a5,-20(s0)
     30c:	00178693          	addi	a3,a5,1
     310:	fed42623          	sw	a3,-20(s0)
     314:	00e78023          	sb	a4,0(a5)
     318:	fcc42783          	lw	a5,-52(s0)
     31c:	fc842583          	lw	a1,-56(s0)
     320:	00078513          	mv	a0,a5
     324:	32c010ef          	jal	ra,0x1650
     328:	00050793          	mv	a5,a0
     32c:	fcf42623          	sw	a5,-52(s0)
     330:	fcc42783          	lw	a5,-52(s0)
     334:	00f05463          	blez	a5,0x33c
     338:	f6dff06f          	j	0x2a4
     33c:	fec42703          	lw	a4,-20(s0)
     340:	fbc42783          	lw	a5,-68(s0)
     344:	40f707b3          	sub	a5,a4,a5
     348:	fef42223          	sw	a5,-28(s0)
     34c:	fe442703          	lw	a4,-28(s0)
     350:	fb842783          	lw	a5,-72(s0)
     354:	02f77463          	bgeu	a4,a5,0x37c
     358:	fec42783          	lw	a5,-20(s0)
     35c:	00178713          	addi	a4,a5,1
     360:	fee42623          	sw	a4,-20(s0)
     364:	03000713          	li	a4,48
     368:	00e78023          	sb	a4,0(a5)
     36c:	fe442783          	lw	a5,-28(s0)
     370:	00178793          	addi	a5,a5,1
     374:	fef42223          	sw	a5,-28(s0)
     378:	fd5ff06f          	j	0x34c
     37c:	fe842783          	lw	a5,-24(s0)
     380:	00078c63          	beqz	a5,0x398
     384:	fec42783          	lw	a5,-20(s0)
     388:	00178713          	addi	a4,a5,1
     38c:	fee42623          	sw	a4,-20(s0)
     390:	02d00713          	li	a4,45
     394:	00e78023          	sb	a4,0(a5)
     398:	fec42783          	lw	a5,-20(s0)
     39c:	00078023          	sb	zero,0(a5)
     3a0:	fec42703          	lw	a4,-20(s0)
     3a4:	fbc42783          	lw	a5,-68(s0)
     3a8:	40f707b3          	sub	a5,a4,a5
     3ac:	fcf42e23          	sw	a5,-36(s0)
     3b0:	fe042223          	sw	zero,-28(s0)
     3b4:	fdc42783          	lw	a5,-36(s0)
     3b8:	0017d793          	srli	a5,a5,0x1
     3bc:	fe442703          	lw	a4,-28(s0)
     3c0:	06f77a63          	bgeu	a4,a5,0x434
     3c4:	fbc42703          	lw	a4,-68(s0)
     3c8:	fe442783          	lw	a5,-28(s0)
     3cc:	00f707b3          	add	a5,a4,a5
     3d0:	0007c783          	lbu	a5,0(a5)
     3d4:	fcf40da3          	sb	a5,-37(s0)
     3d8:	fdc42703          	lw	a4,-36(s0)
     3dc:	fe442783          	lw	a5,-28(s0)
     3e0:	40f707b3          	sub	a5,a4,a5
     3e4:	fff78793          	addi	a5,a5,-1
     3e8:	fbc42703          	lw	a4,-68(s0)
     3ec:	00f70733          	add	a4,a4,a5
     3f0:	fbc42683          	lw	a3,-68(s0)
     3f4:	fe442783          	lw	a5,-28(s0)
     3f8:	00f687b3          	add	a5,a3,a5
     3fc:	00074703          	lbu	a4,0(a4)
     400:	00e78023          	sb	a4,0(a5)
     404:	fdc42703          	lw	a4,-36(s0)
     408:	fe442783          	lw	a5,-28(s0)
     40c:	40f707b3          	sub	a5,a4,a5
     410:	fff78793          	addi	a5,a5,-1
     414:	fbc42703          	lw	a4,-68(s0)
     418:	00f707b3          	add	a5,a4,a5
     41c:	fdb44703          	lbu	a4,-37(s0)
     420:	00e78023          	sb	a4,0(a5)
     424:	fe442783          	lw	a5,-28(s0)
     428:	00178793          	addi	a5,a5,1
     42c:	fef42223          	sw	a5,-28(s0)
     430:	f85ff06f          	j	0x3b4
     434:	fdc42783          	lw	a5,-36(s0)
     438:	00078513          	mv	a0,a5
     43c:	04c12083          	lw	ra,76(sp)
     440:	04812403          	lw	s0,72(sp)
     444:	05010113          	addi	sp,sp,80
     448:	00008067          	ret
     44c:	fd010113          	addi	sp,sp,-48
     450:	02112623          	sw	ra,44(sp)
     454:	02812423          	sw	s0,40(sp)
     458:	03010413          	addi	s0,sp,48
     45c:	fca42e23          	sw	a0,-36(s0)
     460:	fcb42c23          	sw	a1,-40(s0)
     464:	fcc42a23          	sw	a2,-44(s0)
     468:	fdc42503          	lw	a0,-36(s0)
     46c:	6bd000ef          	jal	ra,0x1328
     470:	00050713          	mv	a4,a0
     474:	fd842783          	lw	a5,-40(s0)
     478:	00e7a023          	sw	a4,0(a5)
     47c:	00000793          	li	a5,0
     480:	fef42623          	sw	a5,-20(s0)
     484:	fd842783          	lw	a5,-40(s0)
     488:	0007a783          	lw	a5,0(a5)
     48c:	00078513          	mv	a0,a5
     490:	709000ef          	jal	ra,0x1398
     494:	00050793          	mv	a5,a0
     498:	00078593          	mv	a1,a5
     49c:	fdc42503          	lw	a0,-36(s0)
     4a0:	21d000ef          	jal	ra,0xebc
     4a4:	00050793          	mv	a5,a0
     4a8:	fef42623          	sw	a5,-20(s0)
     4ac:	00000593          	li	a1,0
     4b0:	fec42503          	lw	a0,-20(s0)
     4b4:	624000ef          	jal	ra,0xad8
     4b8:	00050793          	mv	a5,a0
     4bc:	00f05663          	blez	a5,0x4c8
     4c0:	fec42783          	lw	a5,-20(s0)
     4c4:	0100006f          	j	0x4d4
     4c8:	fec42703          	lw	a4,-20(s0)
     4cc:	800007b7          	lui	a5,0x80000
     4d0:	00f747b3          	xor	a5,a4,a5
     4d4:	fef42623          	sw	a5,-20(s0)
     4d8:	000017b7          	lui	a5,0x1
     4dc:	7d47a583          	lw	a1,2004(a5) # 0x17d4
     4e0:	fec42503          	lw	a0,-20(s0)
     4e4:	6a8000ef          	jal	ra,0xb8c
     4e8:	00050793          	mv	a5,a0
     4ec:	00078513          	mv	a0,a5
     4f0:	639000ef          	jal	ra,0x1328
     4f4:	00050713          	mv	a4,a0
     4f8:	fd442783          	lw	a5,-44(s0)
     4fc:	00e7a023          	sw	a4,0(a5)
     500:	fec42583          	lw	a1,-20(s0)
     504:	fdc42503          	lw	a0,-36(s0)
     508:	1b5000ef          	jal	ra,0xebc
     50c:	00050793          	mv	a5,a0
     510:	00078513          	mv	a0,a5
     514:	615000ef          	jal	ra,0x1328
     518:	00050713          	mv	a4,a0
     51c:	fd842783          	lw	a5,-40(s0)
     520:	00e7a023          	sw	a4,0(a5)
     524:	00000793          	li	a5,0
     528:	00078513          	mv	a0,a5
     52c:	02c12083          	lw	ra,44(sp)
     530:	02812403          	lw	s0,40(sp)
     534:	03010113          	addi	sp,sp,48
     538:	00008067          	ret
     53c:	fc010113          	addi	sp,sp,-64
     540:	02112e23          	sw	ra,60(sp)
     544:	02812c23          	sw	s0,56(sp)
     548:	04010413          	addi	s0,sp,64
     54c:	fca42623          	sw	a0,-52(s0)
     550:	fe840713          	addi	a4,s0,-24
     554:	fec40793          	addi	a5,s0,-20
     558:	00070613          	mv	a2,a4
     55c:	00078593          	mv	a1,a5
     560:	fcc42503          	lw	a0,-52(s0)
     564:	ee9ff0ef          	jal	ra,0x44c
     568:	fec42503          	lw	a0,-20(s0)
     56c:	fdc40713          	addi	a4,s0,-36
     570:	00000793          	li	a5,0
     574:	00000693          	li	a3,0
     578:	00000613          	li	a2,0
     57c:	00a00593          	li	a1,10
     580:	cb9ff0ef          	jal	ra,0x238
     584:	fe842503          	lw	a0,-24(s0)
     588:	fd040713          	addi	a4,s0,-48
     58c:	00000793          	li	a5,0
     590:	00000693          	li	a3,0
     594:	00000613          	li	a2,0
     598:	00a00593          	li	a1,10
     59c:	c9dff0ef          	jal	ra,0x238
     5a0:	fdc40793          	addi	a5,s0,-36
     5a4:	00078513          	mv	a0,a5
     5a8:	b05ff0ef          	jal	ra,0xac
     5ac:	02e00513          	li	a0,46
     5b0:	a99ff0ef          	jal	ra,0x48
     5b4:	fd040793          	addi	a5,s0,-48
     5b8:	00078513          	mv	a0,a5
     5bc:	af1ff0ef          	jal	ra,0xac
     5c0:	00000793          	li	a5,0
     5c4:	00078513          	mv	a0,a5
     5c8:	03c12083          	lw	ra,60(sp)
     5cc:	03812403          	lw	s0,56(sp)
     5d0:	04010113          	addi	sp,sp,64
     5d4:	00008067          	ret
     5d8:	fb010113          	addi	sp,sp,-80
     5dc:	04112623          	sw	ra,76(sp)
     5e0:	04812423          	sw	s0,72(sp)
     5e4:	05010413          	addi	s0,sp,80
     5e8:	faa42e23          	sw	a0,-68(s0)
     5ec:	fab42c23          	sw	a1,-72(s0)
     5f0:	fac42a23          	sw	a2,-76(s0)
     5f4:	fb842783          	lw	a5,-72(s0)
     5f8:	00178713          	addi	a4,a5,1
     5fc:	fae42c23          	sw	a4,-72(s0)
     600:	0007c783          	lbu	a5,0(a5)
     604:	fef407a3          	sb	a5,-17(s0)
     608:	fef44783          	lbu	a5,-17(s0)
     60c:	00f037b3          	snez	a5,a5
     610:	0ff7f793          	andi	a5,a5,255
     614:	22078a63          	beqz	a5,0x848
     618:	fef44703          	lbu	a4,-17(s0)
     61c:	02500793          	li	a5,37
     620:	00f70c63          	beq	a4,a5,0x638
     624:	fef44783          	lbu	a5,-17(s0)
     628:	fbc42583          	lw	a1,-68(s0)
     62c:	00078513          	mv	a0,a5
     630:	b19ff0ef          	jal	ra,0x148
     634:	fc1ff06f          	j	0x5f4
     638:	fe040723          	sb	zero,-18(s0)
     63c:	fb842783          	lw	a5,-72(s0)
     640:	00178713          	addi	a4,a5,1
     644:	fae42c23          	sw	a4,-72(s0)
     648:	0007c783          	lbu	a5,0(a5)
     64c:	fef407a3          	sb	a5,-17(s0)
     650:	fef44703          	lbu	a4,-17(s0)
     654:	03000793          	li	a5,48
     658:	04f71c63          	bne	a4,a5,0x6b0
     65c:	fb842783          	lw	a5,-72(s0)
     660:	00178713          	addi	a4,a5,1
     664:	fae42c23          	sw	a4,-72(s0)
     668:	0007c783          	lbu	a5,0(a5)
     66c:	fef407a3          	sb	a5,-17(s0)
     670:	fef44783          	lbu	a5,-17(s0)
     674:	1c078e63          	beqz	a5,0x850
     678:	fef44703          	lbu	a4,-17(s0)
     67c:	02f00793          	li	a5,47
     680:	00e7fe63          	bgeu	a5,a4,0x69c
     684:	fef44703          	lbu	a4,-17(s0)
     688:	03900793          	li	a5,57
     68c:	00e7e863          	bltu	a5,a4,0x69c
     690:	fef44783          	lbu	a5,-17(s0)
     694:	fd078793          	addi	a5,a5,-48
     698:	fef40723          	sb	a5,-18(s0)
     69c:	fb842783          	lw	a5,-72(s0)
     6a0:	00178713          	addi	a4,a5,1
     6a4:	fae42c23          	sw	a4,-72(s0)
     6a8:	0007c783          	lbu	a5,0(a5)
     6ac:	fef407a3          	sb	a5,-17(s0)
     6b0:	fef44783          	lbu	a5,-17(s0)
     6b4:	1a078263          	beqz	a5,0x858
     6b8:	1607cc63          	bltz	a5,0x830
     6bc:	07800713          	li	a4,120
     6c0:	16f74863          	blt	a4,a5,0x830
     6c4:	05800713          	li	a4,88
     6c8:	16e7c463          	blt	a5,a4,0x830
     6cc:	fa878793          	addi	a5,a5,-88
     6d0:	02000713          	li	a4,32
     6d4:	14f76e63          	bltu	a4,a5,0x830
     6d8:	00279713          	slli	a4,a5,0x2
     6dc:	000017b7          	lui	a5,0x1
     6e0:	75078793          	addi	a5,a5,1872 # 0x1750
     6e4:	00f707b3          	add	a5,a4,a5
     6e8:	0007a783          	lw	a5,0(a5)
     6ec:	00078067          	jr	a5
     6f0:	fb442783          	lw	a5,-76(s0)
     6f4:	00478713          	addi	a4,a5,4
     6f8:	fae42a23          	sw	a4,-76(s0)
     6fc:	0007a783          	lw	a5,0(a5)
     700:	00078513          	mv	a0,a5
     704:	fef44783          	lbu	a5,-17(s0)
     708:	f8b78793          	addi	a5,a5,-117
     70c:	0017b793          	seqz	a5,a5
     710:	0ff7f793          	andi	a5,a5,255
     714:	00078693          	mv	a3,a5
     718:	fee44783          	lbu	a5,-18(s0)
     71c:	fcc40713          	addi	a4,s0,-52
     720:	00000613          	li	a2,0
     724:	00a00593          	li	a1,10
     728:	b11ff0ef          	jal	ra,0x238
     72c:	fea42223          	sw	a0,-28(s0)
     730:	fcc40793          	addi	a5,s0,-52
     734:	fbc42603          	lw	a2,-68(s0)
     738:	fe442583          	lw	a1,-28(s0)
     73c:	00078513          	mv	a0,a5
     740:	a3dff0ef          	jal	ra,0x17c
     744:	1000006f          	j	0x844
     748:	fb442783          	lw	a5,-76(s0)
     74c:	00478713          	addi	a4,a5,4
     750:	fae42a23          	sw	a4,-76(s0)
     754:	0007a783          	lw	a5,0(a5)
     758:	00078513          	mv	a0,a5
     75c:	fef44783          	lbu	a5,-17(s0)
     760:	fa878793          	addi	a5,a5,-88
     764:	0017b793          	seqz	a5,a5
     768:	0ff7f793          	andi	a5,a5,255
     76c:	00078613          	mv	a2,a5
     770:	fee44783          	lbu	a5,-18(s0)
     774:	fcc40713          	addi	a4,s0,-52
     778:	00100693          	li	a3,1
     77c:	01000593          	li	a1,16
     780:	ab9ff0ef          	jal	ra,0x238
     784:	fea42223          	sw	a0,-28(s0)
     788:	fcc40793          	addi	a5,s0,-52
     78c:	fbc42603          	lw	a2,-68(s0)
     790:	fe442583          	lw	a1,-28(s0)
     794:	00078513          	mv	a0,a5
     798:	9e5ff0ef          	jal	ra,0x17c
     79c:	0a80006f          	j	0x844
     7a0:	fb442783          	lw	a5,-76(s0)
     7a4:	00478713          	addi	a4,a5,4
     7a8:	fae42a23          	sw	a4,-76(s0)
     7ac:	0007a783          	lw	a5,0(a5)
     7b0:	0ff7f793          	andi	a5,a5,255
     7b4:	fbc42583          	lw	a1,-68(s0)
     7b8:	00078513          	mv	a0,a5
     7bc:	98dff0ef          	jal	ra,0x148
     7c0:	0840006f          	j	0x844
     7c4:	fb442783          	lw	a5,-76(s0)
     7c8:	00478713          	addi	a4,a5,4
     7cc:	fae42a23          	sw	a4,-76(s0)
     7d0:	0007a783          	lw	a5,0(a5)
     7d4:	fef42423          	sw	a5,-24(s0)
     7d8:	fe842503          	lw	a0,-24(s0)
     7dc:	a11ff0ef          	jal	ra,0x1ec
     7e0:	00050793          	mv	a5,a0
     7e4:	fbc42603          	lw	a2,-68(s0)
     7e8:	00078593          	mv	a1,a5
     7ec:	fe842503          	lw	a0,-24(s0)
     7f0:	98dff0ef          	jal	ra,0x17c
     7f4:	0500006f          	j	0x844
     7f8:	fb442783          	lw	a5,-76(s0)
     7fc:	00778793          	addi	a5,a5,7
     800:	ff87f793          	andi	a5,a5,-8
     804:	00878713          	addi	a4,a5,8
     808:	fae42a23          	sw	a4,-76(s0)
     80c:	0007a703          	lw	a4,0(a5)
     810:	0047a783          	lw	a5,4(a5)
     814:	00070513          	mv	a0,a4
     818:	00078593          	mv	a1,a5
     81c:	485000ef          	jal	ra,0x14a0
     820:	00050793          	mv	a5,a0
     824:	00078513          	mv	a0,a5
     828:	d15ff0ef          	jal	ra,0x53c
     82c:	0180006f          	j	0x844
     830:	fef44783          	lbu	a5,-17(s0)
     834:	fbc42583          	lw	a1,-68(s0)
     838:	00078513          	mv	a0,a5
     83c:	90dff0ef          	jal	ra,0x148
     840:	00000013          	nop
     844:	db1ff06f          	j	0x5f4
     848:	00000013          	nop
     84c:	0100006f          	j	0x85c
     850:	00000013          	nop
     854:	0080006f          	j	0x85c
     858:	00000013          	nop
     85c:	00000793          	li	a5,0
     860:	00078513          	mv	a0,a5
     864:	04c12083          	lw	ra,76(sp)
     868:	04812403          	lw	s0,72(sp)
     86c:	05010113          	addi	sp,sp,80
     870:	00008067          	ret
     874:	fb010113          	addi	sp,sp,-80
     878:	02112623          	sw	ra,44(sp)
     87c:	02812423          	sw	s0,40(sp)
     880:	03010413          	addi	s0,sp,48
     884:	fca42e23          	sw	a0,-36(s0)
     888:	fcb42c23          	sw	a1,-40(s0)
     88c:	00c42423          	sw	a2,8(s0)
     890:	00d42623          	sw	a3,12(s0)
     894:	00e42823          	sw	a4,16(s0)
     898:	00f42a23          	sw	a5,20(s0)
     89c:	01042c23          	sw	a6,24(s0)
     8a0:	01142e23          	sw	a7,28(s0)
     8a4:	02040793          	addi	a5,s0,32
     8a8:	fcf42a23          	sw	a5,-44(s0)
     8ac:	fd442783          	lw	a5,-44(s0)
     8b0:	fe878793          	addi	a5,a5,-24
     8b4:	fef42423          	sw	a5,-24(s0)
     8b8:	fe842783          	lw	a5,-24(s0)
     8bc:	00078613          	mv	a2,a5
     8c0:	fd842583          	lw	a1,-40(s0)
     8c4:	fdc42503          	lw	a0,-36(s0)
     8c8:	d11ff0ef          	jal	ra,0x5d8
     8cc:	fea42623          	sw	a0,-20(s0)
     8d0:	fec42783          	lw	a5,-20(s0)
     8d4:	00078513          	mv	a0,a5
     8d8:	02c12083          	lw	ra,44(sp)
     8dc:	02812403          	lw	s0,40(sp)
     8e0:	05010113          	addi	sp,sp,80
     8e4:	00008067          	ret
     8e8:	fb010113          	addi	sp,sp,-80
     8ec:	02112623          	sw	ra,44(sp)
     8f0:	02812423          	sw	s0,40(sp)
     8f4:	03010413          	addi	s0,sp,48
     8f8:	fca42e23          	sw	a0,-36(s0)
     8fc:	00b42223          	sw	a1,4(s0)
     900:	00c42423          	sw	a2,8(s0)
     904:	00d42623          	sw	a3,12(s0)
     908:	00e42823          	sw	a4,16(s0)
     90c:	00f42a23          	sw	a5,20(s0)
     910:	01042c23          	sw	a6,24(s0)
     914:	01142e23          	sw	a7,28(s0)
     918:	02040793          	addi	a5,s0,32
     91c:	fcf42c23          	sw	a5,-40(s0)
     920:	fd842783          	lw	a5,-40(s0)
     924:	fe478793          	addi	a5,a5,-28
     928:	fef42423          	sw	a5,-24(s0)
     92c:	fe842783          	lw	a5,-24(s0)
     930:	00078613          	mv	a2,a5
     934:	fdc42583          	lw	a1,-36(s0)
     938:	000107b7          	lui	a5,0x10
     93c:	00478513          	addi	a0,a5,4 # 0x10004
     940:	c99ff0ef          	jal	ra,0x5d8
     944:	fea42623          	sw	a0,-20(s0)
     948:	fec42783          	lw	a5,-20(s0)
     94c:	00078513          	mv	a0,a5
     950:	02c12083          	lw	ra,44(sp)
     954:	02812403          	lw	s0,40(sp)
     958:	05010113          	addi	sp,sp,80
     95c:	00008067          	ret
     960:	fd010113          	addi	sp,sp,-48
     964:	02112623          	sw	ra,44(sp)
     968:	02812423          	sw	s0,40(sp)
     96c:	03010413          	addi	s0,sp,48
     970:	fca42e23          	sw	a0,-36(s0)
     974:	fcb42c23          	sw	a1,-40(s0)
     978:	fcc42a23          	sw	a2,-44(s0)
     97c:	fdc42503          	lw	a0,-36(s0)
     980:	1a9000ef          	jal	ra,0x1328
     984:	00050713          	mv	a4,a0
     988:	fd842783          	lw	a5,-40(s0)
     98c:	00e7a023          	sw	a4,0(a5)
     990:	00000793          	li	a5,0
     994:	fef42623          	sw	a5,-20(s0)
     998:	fd842783          	lw	a5,-40(s0)
     99c:	0007a783          	lw	a5,0(a5)
     9a0:	00078513          	mv	a0,a5
     9a4:	1f5000ef          	jal	ra,0x1398
     9a8:	00050793          	mv	a5,a0
     9ac:	00078593          	mv	a1,a5
     9b0:	fdc42503          	lw	a0,-36(s0)
     9b4:	508000ef          	jal	ra,0xebc
     9b8:	00050793          	mv	a5,a0
     9bc:	fef42623          	sw	a5,-20(s0)
     9c0:	00000593          	li	a1,0
     9c4:	fec42503          	lw	a0,-20(s0)
     9c8:	110000ef          	jal	ra,0xad8
     9cc:	00050793          	mv	a5,a0
     9d0:	00f05663          	blez	a5,0x9dc
     9d4:	fec42783          	lw	a5,-20(s0)
     9d8:	0100006f          	j	0x9e8
     9dc:	fec42703          	lw	a4,-20(s0)
     9e0:	800007b7          	lui	a5,0x80000
     9e4:	00f747b3          	xor	a5,a4,a5
     9e8:	fef42623          	sw	a5,-20(s0)
     9ec:	000017b7          	lui	a5,0x1
     9f0:	7f87a583          	lw	a1,2040(a5) # 0x17f8
     9f4:	fec42503          	lw	a0,-20(s0)
     9f8:	194000ef          	jal	ra,0xb8c
     9fc:	00050793          	mv	a5,a0
     a00:	00078513          	mv	a0,a5
     a04:	125000ef          	jal	ra,0x1328
     a08:	00050713          	mv	a4,a0
     a0c:	fd442783          	lw	a5,-44(s0)
     a10:	00e7a023          	sw	a4,0(a5)
     a14:	fec42583          	lw	a1,-20(s0)
     a18:	fdc42503          	lw	a0,-36(s0)
     a1c:	4a0000ef          	jal	ra,0xebc
     a20:	00050793          	mv	a5,a0
     a24:	00078513          	mv	a0,a5
     a28:	101000ef          	jal	ra,0x1328
     a2c:	00050713          	mv	a4,a0
     a30:	fd842783          	lw	a5,-40(s0)
     a34:	00e7a023          	sw	a4,0(a5)
     a38:	00000793          	li	a5,0
     a3c:	00078513          	mv	a0,a5
     a40:	02c12083          	lw	ra,44(sp)
     a44:	02812403          	lw	s0,40(sp)
     a48:	03010113          	addi	sp,sp,48
     a4c:	00008067          	ret
     a50:	fd010113          	addi	sp,sp,-48
     a54:	02112623          	sw	ra,44(sp)
     a58:	02812423          	sw	s0,40(sp)
     a5c:	03010413          	addi	s0,sp,48
     a60:	000017b7          	lui	a5,0x1
     a64:	7fc7a783          	lw	a5,2044(a5) # 0x17fc
     a68:	fef42623          	sw	a5,-20(s0)
     a6c:	000027b7          	lui	a5,0x2
     a70:	8007a783          	lw	a5,-2048(a5) # 0x1800
     a74:	fef42423          	sw	a5,-24(s0)
     a78:	fe842583          	lw	a1,-24(s0)
     a7c:	fec42503          	lw	a0,-20(s0)
     a80:	10c000ef          	jal	ra,0xb8c
     a84:	00050793          	mv	a5,a0
     a88:	fef42223          	sw	a5,-28(s0)
     a8c:	fdc40713          	addi	a4,s0,-36
     a90:	fe040793          	addi	a5,s0,-32
     a94:	00070613          	mv	a2,a4
     a98:	00078593          	mv	a1,a5
     a9c:	fe442503          	lw	a0,-28(s0)
     aa0:	9adff0ef          	jal	ra,0x44c
     aa4:	fe042783          	lw	a5,-32(s0)
     aa8:	fdc42703          	lw	a4,-36(s0)
     aac:	00070613          	mv	a2,a4
     ab0:	00078593          	mv	a1,a5
     ab4:	000017b7          	lui	a5,0x1
     ab8:	7d878513          	addi	a0,a5,2008 # 0x17d8
     abc:	e2dff0ef          	jal	ra,0x8e8
     ac0:	00000793          	li	a5,0
     ac4:	00078513          	mv	a0,a5
     ac8:	02c12083          	lw	ra,44(sp)
     acc:	02812403          	lw	s0,40(sp)
     ad0:	03010113          	addi	sp,sp,48
     ad4:	00008067          	ret
     ad8:	01755693          	srli	a3,a0,0x17
     adc:	008007b7          	lui	a5,0x800
     ae0:	fff78793          	addi	a5,a5,-1 # 0x7fffff
     ae4:	0175d713          	srli	a4,a1,0x17
     ae8:	0ff6f693          	andi	a3,a3,255
     aec:	0ff00813          	li	a6,255
     af0:	00a7f633          	and	a2,a5,a0
     af4:	0ff77713          	andi	a4,a4,255
     af8:	00b7f7b3          	and	a5,a5,a1
     afc:	01f55513          	srli	a0,a0,0x1f
     b00:	01f5d593          	srli	a1,a1,0x1f
     b04:	01069863          	bne	a3,a6,0xb14
     b08:	06060a63          	beqz	a2,0xb7c
     b0c:	ffe00513          	li	a0,-2
     b10:	00008067          	ret
     b14:	01071463          	bne	a4,a6,0xb1c
     b18:	fe079ae3          	bnez	a5,0xb0c
     b1c:	06069263          	bnez	a3,0xb80
     b20:	00071463          	bnez	a4,0xb28
     b24:	04078863          	beqz	a5,0xb74
     b28:	00060c63          	beqz	a2,0xb40
     b2c:	00b51463          	bne	a0,a1,0xb34
     b30:	02d75063          	bge	a4,a3,0xb50
     b34:	02050c63          	beqz	a0,0xb6c
     b38:	fff00513          	li	a0,-1
     b3c:	00008067          	ret
     b40:	fff00513          	li	a0,-1
     b44:	00058a63          	beqz	a1,0xb58
     b48:	00058513          	mv	a0,a1
     b4c:	00008067          	ret
     b50:	00e6d663          	bge	a3,a4,0xb5c
     b54:	fe0502e3          	beqz	a0,0xb38
     b58:	00008067          	ret
     b5c:	fcc7ece3          	bltu	a5,a2,0xb34
     b60:	fef66ae3          	bltu	a2,a5,0xb54
     b64:	00000513          	li	a0,0
     b68:	00008067          	ret
     b6c:	00100513          	li	a0,1
     b70:	00008067          	ret
     b74:	fe0608e3          	beqz	a2,0xb64
     b78:	fbdff06f          	j	0xb34
     b7c:	f8d70ee3          	beq	a4,a3,0xb18
     b80:	fa0716e3          	bnez	a4,0xb2c
     b84:	fa0788e3          	beqz	a5,0xb34
     b88:	fa5ff06f          	j	0xb2c
     b8c:	fe010113          	addi	sp,sp,-32
     b90:	01212823          	sw	s2,16(sp)
     b94:	01755913          	srli	s2,a0,0x17
     b98:	00912a23          	sw	s1,20(sp)
     b9c:	01312623          	sw	s3,12(sp)
     ba0:	01412423          	sw	s4,8(sp)
     ba4:	00951493          	slli	s1,a0,0x9
     ba8:	00112e23          	sw	ra,28(sp)
     bac:	00812c23          	sw	s0,24(sp)
     bb0:	01512223          	sw	s5,4(sp)
     bb4:	0ff97913          	andi	s2,s2,255
     bb8:	00058a13          	mv	s4,a1
     bbc:	0094d493          	srli	s1,s1,0x9
     bc0:	01f55993          	srli	s3,a0,0x1f
     bc4:	08090663          	beqz	s2,0xc50
     bc8:	0ff00793          	li	a5,255
     bcc:	0af90263          	beq	s2,a5,0xc70
     bd0:	00349493          	slli	s1,s1,0x3
     bd4:	040007b7          	lui	a5,0x4000
     bd8:	00f4e4b3          	or	s1,s1,a5
     bdc:	f8190913          	addi	s2,s2,-127
     be0:	00000a93          	li	s5,0
     be4:	017a5513          	srli	a0,s4,0x17
     be8:	009a1413          	slli	s0,s4,0x9
     bec:	0ff57513          	andi	a0,a0,255
     bf0:	00945413          	srli	s0,s0,0x9
     bf4:	01fa5a13          	srli	s4,s4,0x1f
     bf8:	08050c63          	beqz	a0,0xc90
     bfc:	0ff00793          	li	a5,255
     c00:	0af50863          	beq	a0,a5,0xcb0
     c04:	00341413          	slli	s0,s0,0x3
     c08:	040007b7          	lui	a5,0x4000
     c0c:	00f46433          	or	s0,s0,a5
     c10:	f8150513          	addi	a0,a0,-127
     c14:	00000793          	li	a5,0
     c18:	002a9713          	slli	a4,s5,0x2
     c1c:	00f76733          	or	a4,a4,a5
     c20:	00a90933          	add	s2,s2,a0
     c24:	fff70713          	addi	a4,a4,-1
     c28:	00e00693          	li	a3,14
     c2c:	0149c833          	xor	a6,s3,s4
     c30:	00190893          	addi	a7,s2,1
     c34:	08e6ee63          	bltu	a3,a4,0xcd0
     c38:	000026b7          	lui	a3,0x2
     c3c:	00271713          	slli	a4,a4,0x2
     c40:	80468693          	addi	a3,a3,-2044 # 0x1804
     c44:	00d70733          	add	a4,a4,a3
     c48:	00072703          	lw	a4,0(a4)
     c4c:	00070067          	jr	a4
     c50:	02048a63          	beqz	s1,0xc84
     c54:	00048513          	mv	a0,s1
     c58:	2a5000ef          	jal	ra,0x16fc
     c5c:	ffb50793          	addi	a5,a0,-5
     c60:	f8a00913          	li	s2,-118
     c64:	00f494b3          	sll	s1,s1,a5
     c68:	40a90933          	sub	s2,s2,a0
     c6c:	f75ff06f          	j	0xbe0
     c70:	0ff00913          	li	s2,255
     c74:	00200a93          	li	s5,2
     c78:	f60486e3          	beqz	s1,0xbe4
     c7c:	00300a93          	li	s5,3
     c80:	f65ff06f          	j	0xbe4
     c84:	00000913          	li	s2,0
     c88:	00100a93          	li	s5,1
     c8c:	f59ff06f          	j	0xbe4
     c90:	02040a63          	beqz	s0,0xcc4
     c94:	00040513          	mv	a0,s0
     c98:	265000ef          	jal	ra,0x16fc
     c9c:	ffb50793          	addi	a5,a0,-5
     ca0:	00f41433          	sll	s0,s0,a5
     ca4:	f8a00793          	li	a5,-118
     ca8:	40a78533          	sub	a0,a5,a0
     cac:	f69ff06f          	j	0xc14
     cb0:	0ff00513          	li	a0,255
     cb4:	00200793          	li	a5,2
     cb8:	f60400e3          	beqz	s0,0xc18
     cbc:	00300793          	li	a5,3
     cc0:	f59ff06f          	j	0xc18
     cc4:	00000513          	li	a0,0
     cc8:	00100793          	li	a5,1
     ccc:	f4dff06f          	j	0xc18
     cd0:	00010f37          	lui	t5,0x10
     cd4:	ffff0e93          	addi	t4,t5,-1 # 0xffff
     cd8:	0104df93          	srli	t6,s1,0x10
     cdc:	01045793          	srli	a5,s0,0x10
     ce0:	01d4f4b3          	and	s1,s1,t4
     ce4:	01d47433          	and	s0,s0,t4
     ce8:	00048513          	mv	a0,s1
     cec:	00040593          	mv	a1,s0
     cf0:	135000ef          	jal	ra,0x1624
     cf4:	00050313          	mv	t1,a0
     cf8:	00078593          	mv	a1,a5
     cfc:	00048513          	mv	a0,s1
     d00:	125000ef          	jal	ra,0x1624
     d04:	00050e13          	mv	t3,a0
     d08:	00040593          	mv	a1,s0
     d0c:	000f8513          	mv	a0,t6
     d10:	115000ef          	jal	ra,0x1624
     d14:	00050713          	mv	a4,a0
     d18:	00078593          	mv	a1,a5
     d1c:	000f8513          	mv	a0,t6
     d20:	105000ef          	jal	ra,0x1624
     d24:	01035793          	srli	a5,t1,0x10
     d28:	00ee0e33          	add	t3,t3,a4
     d2c:	01c787b3          	add	a5,a5,t3
     d30:	00e7f463          	bgeu	a5,a4,0xd38
     d34:	01e50533          	add	a0,a0,t5
     d38:	01d7f733          	and	a4,a5,t4
     d3c:	01071713          	slli	a4,a4,0x10
     d40:	01d37333          	and	t1,t1,t4
     d44:	00670733          	add	a4,a4,t1
     d48:	00671413          	slli	s0,a4,0x6
     d4c:	00803433          	snez	s0,s0
     d50:	0107d793          	srli	a5,a5,0x10
     d54:	01a75713          	srli	a4,a4,0x1a
     d58:	00e46733          	or	a4,s0,a4
     d5c:	00a78433          	add	s0,a5,a0
     d60:	00641413          	slli	s0,s0,0x6
     d64:	00e46433          	or	s0,s0,a4
     d68:	080007b7          	lui	a5,0x8000
     d6c:	00f477b3          	and	a5,s0,a5
     d70:	08078e63          	beqz	a5,0xe0c
     d74:	00145793          	srli	a5,s0,0x1
     d78:	00147413          	andi	s0,s0,1
     d7c:	0087e433          	or	s0,a5,s0
     d80:	07f88713          	addi	a4,a7,127
     d84:	08e05863          	blez	a4,0xe14
     d88:	00747793          	andi	a5,s0,7
     d8c:	00078a63          	beqz	a5,0xda0
     d90:	00f47793          	andi	a5,s0,15
     d94:	00400693          	li	a3,4
     d98:	00d78463          	beq	a5,a3,0xda0
     d9c:	00440413          	addi	s0,s0,4
     da0:	080007b7          	lui	a5,0x8000
     da4:	00f477b3          	and	a5,s0,a5
     da8:	00078a63          	beqz	a5,0xdbc
     dac:	f80007b7          	lui	a5,0xf8000
     db0:	fff78793          	addi	a5,a5,-1 # 0xfffffffff7ffffff
     db4:	00f47433          	and	s0,s0,a5
     db8:	08088713          	addi	a4,a7,128
     dbc:	0fe00793          	li	a5,254
     dc0:	00345413          	srli	s0,s0,0x3
     dc4:	0ae7da63          	bge	a5,a4,0xe78
     dc8:	00000413          	li	s0,0
     dcc:	0ff00713          	li	a4,255
     dd0:	0a80006f          	j	0xe78
     dd4:	00098813          	mv	a6,s3
     dd8:	00048413          	mv	s0,s1
     ddc:	000a8793          	mv	a5,s5
     de0:	00200713          	li	a4,2
     de4:	fee782e3          	beq	a5,a4,0xdc8
     de8:	00300713          	li	a4,3
     dec:	08e78063          	beq	a5,a4,0xe6c
     df0:	00100713          	li	a4,1
     df4:	f8e796e3          	bne	a5,a4,0xd80
     df8:	00000413          	li	s0,0
     dfc:	00000713          	li	a4,0
     e00:	0780006f          	j	0xe78
     e04:	000a0813          	mv	a6,s4
     e08:	fd9ff06f          	j	0xde0
     e0c:	00090893          	mv	a7,s2
     e10:	f71ff06f          	j	0xd80
     e14:	00100793          	li	a5,1
     e18:	40e787b3          	sub	a5,a5,a4
     e1c:	01b00713          	li	a4,27
     e20:	fcf74ce3          	blt	a4,a5,0xdf8
     e24:	09e88893          	addi	a7,a7,158
     e28:	00f457b3          	srl	a5,s0,a5
     e2c:	01141433          	sll	s0,s0,a7
     e30:	00803433          	snez	s0,s0
     e34:	0087e433          	or	s0,a5,s0
     e38:	00747793          	andi	a5,s0,7
     e3c:	00078a63          	beqz	a5,0xe50
     e40:	00f47793          	andi	a5,s0,15
     e44:	00400713          	li	a4,4
     e48:	00e78463          	beq	a5,a4,0xe50
     e4c:	00440413          	addi	s0,s0,4
     e50:	040007b7          	lui	a5,0x4000
     e54:	00f477b3          	and	a5,s0,a5
     e58:	00345413          	srli	s0,s0,0x3
     e5c:	fa0780e3          	beqz	a5,0xdfc
     e60:	00000413          	li	s0,0
     e64:	00100713          	li	a4,1
     e68:	0100006f          	j	0xe78
     e6c:	00400437          	lui	s0,0x400
     e70:	0ff00713          	li	a4,255
     e74:	00000813          	li	a6,0
     e78:	01771793          	slli	a5,a4,0x17
     e7c:	00941413          	slli	s0,s0,0x9
     e80:	7f800737          	lui	a4,0x7f800
     e84:	00e7f7b3          	and	a5,a5,a4
     e88:	00945413          	srli	s0,s0,0x9
     e8c:	0087e433          	or	s0,a5,s0
     e90:	01f81513          	slli	a0,a6,0x1f
     e94:	01c12083          	lw	ra,28(sp)
     e98:	00a46533          	or	a0,s0,a0
     e9c:	01812403          	lw	s0,24(sp)
     ea0:	01412483          	lw	s1,20(sp)
     ea4:	01012903          	lw	s2,16(sp)
     ea8:	00c12983          	lw	s3,12(sp)
     eac:	00812a03          	lw	s4,8(sp)
     eb0:	00412a83          	lw	s5,4(sp)
     eb4:	02010113          	addi	sp,sp,32
     eb8:	00008067          	ret
     ebc:	00800737          	lui	a4,0x800
     ec0:	ff010113          	addi	sp,sp,-16
     ec4:	fff70713          	addi	a4,a4,-1 # 0x7fffff
     ec8:	0175d613          	srli	a2,a1,0x17
     ecc:	00a777b3          	and	a5,a4,a0
     ed0:	00812423          	sw	s0,8(sp)
     ed4:	00b77733          	and	a4,a4,a1
     ed8:	00912223          	sw	s1,4(sp)
     edc:	01755413          	srli	s0,a0,0x17
     ee0:	00112623          	sw	ra,12(sp)
     ee4:	01212023          	sw	s2,0(sp)
     ee8:	0ff67613          	andi	a2,a2,255
     eec:	0ff00693          	li	a3,255
     ef0:	0ff47413          	andi	s0,s0,255
     ef4:	01f55493          	srli	s1,a0,0x1f
     ef8:	00379793          	slli	a5,a5,0x3
     efc:	01f5d593          	srli	a1,a1,0x1f
     f00:	00371713          	slli	a4,a4,0x3
     f04:	00d61463          	bne	a2,a3,0xf0c
     f08:	00071463          	bnez	a4,0xf10
     f0c:	0015c593          	xori	a1,a1,1
     f10:	40c406b3          	sub	a3,s0,a2
     f14:	18959a63          	bne	a1,s1,0x10a8
     f18:	0ad05063          	blez	a3,0xfb8
     f1c:	02061663          	bnez	a2,0xf48
     f20:	18070063          	beqz	a4,0x10a0
     f24:	fff68613          	addi	a2,a3,-1
     f28:	00061863          	bnez	a2,0xf38
     f2c:	00e787b3          	add	a5,a5,a4
     f30:	00100413          	li	s0,1
     f34:	0500006f          	j	0xf84
     f38:	0ff00593          	li	a1,255
     f3c:	02b69063          	bne	a3,a1,0xf5c
     f40:	0ff00413          	li	s0,255
     f44:	1180006f          	j	0x105c
     f48:	0ff00613          	li	a2,255
     f4c:	10c40863          	beq	s0,a2,0x105c
     f50:	04000637          	lui	a2,0x4000
     f54:	00c76733          	or	a4,a4,a2
     f58:	00068613          	mv	a2,a3
     f5c:	01b00593          	li	a1,27
     f60:	00100693          	li	a3,1
     f64:	00c5ce63          	blt	a1,a2,0xf80
     f68:	02000693          	li	a3,32
     f6c:	40c686b3          	sub	a3,a3,a2
     f70:	00c755b3          	srl	a1,a4,a2
     f74:	00d71733          	sll	a4,a4,a3
     f78:	00e03733          	snez	a4,a4
     f7c:	00e5e6b3          	or	a3,a1,a4
     f80:	00d787b3          	add	a5,a5,a3
     f84:	04000737          	lui	a4,0x4000
     f88:	00e7f733          	and	a4,a5,a4
     f8c:	0c070863          	beqz	a4,0x105c
     f90:	00140413          	addi	s0,s0,1 # 0x400001
     f94:	0ff00713          	li	a4,255
     f98:	30e40263          	beq	s0,a4,0x129c
     f9c:	7e000737          	lui	a4,0x7e000
     fa0:	0017f693          	andi	a3,a5,1
     fa4:	fff70713          	addi	a4,a4,-1 # 0x7dffffff
     fa8:	0017d793          	srli	a5,a5,0x1
     fac:	00e7f7b3          	and	a5,a5,a4
     fb0:	00d7e7b3          	or	a5,a5,a3
     fb4:	0a80006f          	j	0x105c
     fb8:	06068663          	beqz	a3,0x1024
     fbc:	408606b3          	sub	a3,a2,s0
     fc0:	02041063          	bnez	s0,0xfe0
     fc4:	2c078263          	beqz	a5,0x1288
     fc8:	fff68593          	addi	a1,a3,-1
     fcc:	f60580e3          	beqz	a1,0xf2c
     fd0:	0ff00513          	li	a0,255
     fd4:	02a69063          	bne	a3,a0,0xff4
     fd8:	00070793          	mv	a5,a4
     fdc:	f65ff06f          	j	0xf40
     fe0:	0ff00593          	li	a1,255
     fe4:	feb60ae3          	beq	a2,a1,0xfd8
     fe8:	040005b7          	lui	a1,0x4000
     fec:	00b7e7b3          	or	a5,a5,a1
     ff0:	00068593          	mv	a1,a3
     ff4:	01b00513          	li	a0,27
     ff8:	00100693          	li	a3,1
     ffc:	00b54e63          	blt	a0,a1,0x1018
    1000:	02000693          	li	a3,32
    1004:	40b686b3          	sub	a3,a3,a1
    1008:	00b7d533          	srl	a0,a5,a1
    100c:	00d797b3          	sll	a5,a5,a3
    1010:	00f037b3          	snez	a5,a5
    1014:	00f566b3          	or	a3,a0,a5
    1018:	00e687b3          	add	a5,a3,a4
    101c:	00060413          	mv	s0,a2
    1020:	f65ff06f          	j	0xf84
    1024:	00140693          	addi	a3,s0,1
    1028:	0fe6f613          	andi	a2,a3,254
    102c:	06061263          	bnez	a2,0x1090
    1030:	04041463          	bnez	s0,0x1078
    1034:	24078e63          	beqz	a5,0x1290
    1038:	02070263          	beqz	a4,0x105c
    103c:	00e787b3          	add	a5,a5,a4
    1040:	04000737          	lui	a4,0x4000
    1044:	00e7f733          	and	a4,a5,a4
    1048:	00070a63          	beqz	a4,0x105c
    104c:	fc000737          	lui	a4,0xfc000
    1050:	fff70713          	addi	a4,a4,-1 # 0xfffffffffbffffff
    1054:	00e7f7b3          	and	a5,a5,a4
    1058:	00100413          	li	s0,1
    105c:	0077f713          	andi	a4,a5,7
    1060:	24070063          	beqz	a4,0x12a0
    1064:	00f7f713          	andi	a4,a5,15
    1068:	00400693          	li	a3,4
    106c:	22d70a63          	beq	a4,a3,0x12a0
    1070:	00478793          	addi	a5,a5,4 # 0x4000004
    1074:	22c0006f          	j	0x12a0
    1078:	f60780e3          	beqz	a5,0xfd8
    107c:	ec0702e3          	beqz	a4,0xf40
    1080:	00000493          	li	s1,0
    1084:	020007b7          	lui	a5,0x2000
    1088:	0ff00413          	li	s0,255
    108c:	2140006f          	j	0x12a0
    1090:	0ff00613          	li	a2,255
    1094:	20c68263          	beq	a3,a2,0x1298
    1098:	00e787b3          	add	a5,a5,a4
    109c:	0017d793          	srli	a5,a5,0x1
    10a0:	00068413          	mv	s0,a3
    10a4:	fb9ff06f          	j	0x105c
    10a8:	08d05063          	blez	a3,0x1128
    10ac:	06061263          	bnez	a2,0x1110
    10b0:	fe0708e3          	beqz	a4,0x10a0
    10b4:	fff68613          	addi	a2,a3,-1
    10b8:	00061863          	bnez	a2,0x10c8
    10bc:	40e787b3          	sub	a5,a5,a4
    10c0:	00100413          	li	s0,1
    10c4:	0340006f          	j	0x10f8
    10c8:	0ff00593          	li	a1,255
    10cc:	e6b68ae3          	beq	a3,a1,0xf40
    10d0:	01b00593          	li	a1,27
    10d4:	00100693          	li	a3,1
    10d8:	00c5ce63          	blt	a1,a2,0x10f4
    10dc:	02000693          	li	a3,32
    10e0:	40c686b3          	sub	a3,a3,a2
    10e4:	00c755b3          	srl	a1,a4,a2
    10e8:	00d71733          	sll	a4,a4,a3
    10ec:	00e03733          	snez	a4,a4
    10f0:	00e5e6b3          	or	a3,a1,a4
    10f4:	40d787b3          	sub	a5,a5,a3
    10f8:	04000937          	lui	s2,0x4000
    10fc:	0127f733          	and	a4,a5,s2
    1100:	f4070ee3          	beqz	a4,0x105c
    1104:	fff90913          	addi	s2,s2,-1 # 0x3ffffff
    1108:	0127f933          	and	s2,a5,s2
    110c:	1180006f          	j	0x1224
    1110:	0ff00613          	li	a2,255
    1114:	f4c404e3          	beq	s0,a2,0x105c
    1118:	04000637          	lui	a2,0x4000
    111c:	00c76733          	or	a4,a4,a2
    1120:	00068613          	mv	a2,a3
    1124:	fadff06f          	j	0x10d0
    1128:	08068063          	beqz	a3,0x11a8
    112c:	408606b3          	sub	a3,a2,s0
    1130:	02041863          	bnez	s0,0x1160
    1134:	1e078063          	beqz	a5,0x1314
    1138:	fff68513          	addi	a0,a3,-1
    113c:	00051863          	bnez	a0,0x114c
    1140:	40f707b3          	sub	a5,a4,a5
    1144:	00058493          	mv	s1,a1
    1148:	f79ff06f          	j	0x10c0
    114c:	0ff00813          	li	a6,255
    1150:	03069263          	bne	a3,a6,0x1174
    1154:	00070793          	mv	a5,a4
    1158:	0ff00413          	li	s0,255
    115c:	06c0006f          	j	0x11c8
    1160:	0ff00513          	li	a0,255
    1164:	fea608e3          	beq	a2,a0,0x1154
    1168:	04000537          	lui	a0,0x4000
    116c:	00a7e7b3          	or	a5,a5,a0
    1170:	00068513          	mv	a0,a3
    1174:	01b00813          	li	a6,27
    1178:	00100693          	li	a3,1
    117c:	00a84e63          	blt	a6,a0,0x1198
    1180:	02000693          	li	a3,32
    1184:	40a686b3          	sub	a3,a3,a0
    1188:	00a7d833          	srl	a6,a5,a0
    118c:	00d797b3          	sll	a5,a5,a3
    1190:	00f037b3          	snez	a5,a5
    1194:	00f866b3          	or	a3,a6,a5
    1198:	40d707b3          	sub	a5,a4,a3
    119c:	00060413          	mv	s0,a2
    11a0:	00058493          	mv	s1,a1
    11a4:	f55ff06f          	j	0x10f8
    11a8:	00140693          	addi	a3,s0,1
    11ac:	0fe6f693          	andi	a3,a3,254
    11b0:	04069e63          	bnez	a3,0x120c
    11b4:	04041263          	bnez	s0,0x11f8
    11b8:	00079c63          	bnez	a5,0x11d0
    11bc:	00000493          	li	s1,0
    11c0:	0e070063          	beqz	a4,0x12a0
    11c4:	00070793          	mv	a5,a4
    11c8:	00058493          	mv	s1,a1
    11cc:	e91ff06f          	j	0x105c
    11d0:	e80706e3          	beqz	a4,0x105c
    11d4:	40e786b3          	sub	a3,a5,a4
    11d8:	04000637          	lui	a2,0x4000
    11dc:	00c6f633          	and	a2,a3,a2
    11e0:	40f707b3          	sub	a5,a4,a5
    11e4:	fe0612e3          	bnez	a2,0x11c8
    11e8:	00000793          	li	a5,0
    11ec:	08068063          	beqz	a3,0x126c
    11f0:	00068793          	mv	a5,a3
    11f4:	e69ff06f          	j	0x105c
    11f8:	e80792e3          	bnez	a5,0x107c
    11fc:	e80702e3          	beqz	a4,0x1080
    1200:	00070793          	mv	a5,a4
    1204:	00058493          	mv	s1,a1
    1208:	d39ff06f          	j	0xf40
    120c:	40e78933          	sub	s2,a5,a4
    1210:	040006b7          	lui	a3,0x4000
    1214:	00d976b3          	and	a3,s2,a3
    1218:	04068463          	beqz	a3,0x1260
    121c:	40f70933          	sub	s2,a4,a5
    1220:	00058493          	mv	s1,a1
    1224:	00090513          	mv	a0,s2
    1228:	4d4000ef          	jal	ra,0x16fc
    122c:	ffb50513          	addi	a0,a0,-5 # 0x3fffffb
    1230:	00a91933          	sll	s2,s2,a0
    1234:	04854063          	blt	a0,s0,0x1274
    1238:	40850533          	sub	a0,a0,s0
    123c:	00150513          	addi	a0,a0,1
    1240:	02000413          	li	s0,32
    1244:	00a957b3          	srl	a5,s2,a0
    1248:	40a40533          	sub	a0,s0,a0
    124c:	00a91933          	sll	s2,s2,a0
    1250:	01203933          	snez	s2,s2
    1254:	0127e7b3          	or	a5,a5,s2
    1258:	00000413          	li	s0,0
    125c:	e01ff06f          	j	0x105c
    1260:	fc0912e3          	bnez	s2,0x1224
    1264:	00000793          	li	a5,0
    1268:	00000413          	li	s0,0
    126c:	00000493          	li	s1,0
    1270:	0300006f          	j	0x12a0
    1274:	fc0007b7          	lui	a5,0xfc000
    1278:	fff78793          	addi	a5,a5,-1 # 0xfffffffffbffffff
    127c:	40a40433          	sub	s0,s0,a0
    1280:	00f977b3          	and	a5,s2,a5
    1284:	dd9ff06f          	j	0x105c
    1288:	00070793          	mv	a5,a4
    128c:	e15ff06f          	j	0x10a0
    1290:	00070793          	mv	a5,a4
    1294:	dc9ff06f          	j	0x105c
    1298:	0ff00413          	li	s0,255
    129c:	00000793          	li	a5,0
    12a0:	04000737          	lui	a4,0x4000
    12a4:	00e7f733          	and	a4,a5,a4
    12a8:	00070e63          	beqz	a4,0x12c4
    12ac:	00140413          	addi	s0,s0,1
    12b0:	0ff00713          	li	a4,255
    12b4:	06e40663          	beq	s0,a4,0x1320
    12b8:	fc000737          	lui	a4,0xfc000
    12bc:	fff70713          	addi	a4,a4,-1 # 0xfffffffffbffffff
    12c0:	00e7f7b3          	and	a5,a5,a4
    12c4:	0ff00713          	li	a4,255
    12c8:	0037d793          	srli	a5,a5,0x3
    12cc:	00e41863          	bne	s0,a4,0x12dc
    12d0:	00078663          	beqz	a5,0x12dc
    12d4:	004007b7          	lui	a5,0x400
    12d8:	00000493          	li	s1,0
    12dc:	7f800537          	lui	a0,0x7f800
    12e0:	01741413          	slli	s0,s0,0x17
    12e4:	00979793          	slli	a5,a5,0x9
    12e8:	00a47433          	and	s0,s0,a0
    12ec:	0097d793          	srli	a5,a5,0x9
    12f0:	00c12083          	lw	ra,12(sp)
    12f4:	00f467b3          	or	a5,s0,a5
    12f8:	00812403          	lw	s0,8(sp)
    12fc:	01f49513          	slli	a0,s1,0x1f
    1300:	00012903          	lw	s2,0(sp)
    1304:	00412483          	lw	s1,4(sp)
    1308:	00a7e533          	or	a0,a5,a0
    130c:	01010113          	addi	sp,sp,16
    1310:	00008067          	ret
    1314:	00070793          	mv	a5,a4
    1318:	00068413          	mv	s0,a3
    131c:	eadff06f          	j	0x11c8
    1320:	00000793          	li	a5,0
    1324:	fa1ff06f          	j	0x12c4
    1328:	00800637          	lui	a2,0x800
    132c:	01755713          	srli	a4,a0,0x17
    1330:	fff60793          	addi	a5,a2,-1 # 0x7fffff
    1334:	0ff77713          	andi	a4,a4,255
    1338:	07e00593          	li	a1,126
    133c:	00a7f7b3          	and	a5,a5,a0
    1340:	01f55693          	srli	a3,a0,0x1f
    1344:	04e5d663          	bge	a1,a4,0x1390
    1348:	09d00593          	li	a1,157
    134c:	00e5da63          	bge	a1,a4,0x1360
    1350:	80000537          	lui	a0,0x80000
    1354:	fff54513          	not	a0,a0
    1358:	00a68533          	add	a0,a3,a0
    135c:	00008067          	ret
    1360:	00c7e533          	or	a0,a5,a2
    1364:	09500793          	li	a5,149
    1368:	00e7dc63          	bge	a5,a4,0x1380
    136c:	f6a70713          	addi	a4,a4,-150
    1370:	00e51533          	sll	a0,a0,a4
    1374:	02068063          	beqz	a3,0x1394
    1378:	40a00533          	neg	a0,a0
    137c:	00008067          	ret
    1380:	09600793          	li	a5,150
    1384:	40e78733          	sub	a4,a5,a4
    1388:	00e55533          	srl	a0,a0,a4
    138c:	fe9ff06f          	j	0x1374
    1390:	00000513          	li	a0,0
    1394:	00008067          	ret
    1398:	ff010113          	addi	sp,sp,-16
    139c:	00112623          	sw	ra,12(sp)
    13a0:	00812423          	sw	s0,8(sp)
    13a4:	00912223          	sw	s1,4(sp)
    13a8:	0e050663          	beqz	a0,0x1494
    13ac:	41f55793          	srai	a5,a0,0x1f
    13b0:	00a7c433          	xor	s0,a5,a0
    13b4:	40f40433          	sub	s0,s0,a5
    13b8:	01f55493          	srli	s1,a0,0x1f
    13bc:	00040513          	mv	a0,s0
    13c0:	33c000ef          	jal	ra,0x16fc
    13c4:	09e00793          	li	a5,158
    13c8:	00050713          	mv	a4,a0
    13cc:	40a78533          	sub	a0,a5,a0
    13d0:	09600793          	li	a5,150
    13d4:	04a7c063          	blt	a5,a0,0x1414
    13d8:	00800793          	li	a5,8
    13dc:	00e7d663          	bge	a5,a4,0x13e8
    13e0:	ff870713          	addi	a4,a4,-8
    13e4:	00e41433          	sll	s0,s0,a4
    13e8:	00941413          	slli	s0,s0,0x9
    13ec:	01751513          	slli	a0,a0,0x17
    13f0:	00945413          	srli	s0,s0,0x9
    13f4:	00856433          	or	s0,a0,s0
    13f8:	01f49513          	slli	a0,s1,0x1f
    13fc:	00c12083          	lw	ra,12(sp)
    1400:	00a46533          	or	a0,s0,a0
    1404:	00812403          	lw	s0,8(sp)
    1408:	00412483          	lw	s1,4(sp)
    140c:	01010113          	addi	sp,sp,16
    1410:	00008067          	ret
    1414:	09900793          	li	a5,153
    1418:	02a7d063          	bge	a5,a0,0x1438
    141c:	00500793          	li	a5,5
    1420:	40e787b3          	sub	a5,a5,a4
    1424:	01b70693          	addi	a3,a4,27
    1428:	00f457b3          	srl	a5,s0,a5
    142c:	00d41433          	sll	s0,s0,a3
    1430:	00803433          	snez	s0,s0
    1434:	0087e433          	or	s0,a5,s0
    1438:	00500793          	li	a5,5
    143c:	00e7d663          	bge	a5,a4,0x1448
    1440:	ffb70793          	addi	a5,a4,-5
    1444:	00f41433          	sll	s0,s0,a5
    1448:	fc0006b7          	lui	a3,0xfc000
    144c:	fff68693          	addi	a3,a3,-1 # 0xfffffffffbffffff
    1450:	00747793          	andi	a5,s0,7
    1454:	00d476b3          	and	a3,s0,a3
    1458:	00078a63          	beqz	a5,0x146c
    145c:	00f47413          	andi	s0,s0,15
    1460:	00400793          	li	a5,4
    1464:	00f40463          	beq	s0,a5,0x146c
    1468:	00468693          	addi	a3,a3,4
    146c:	040007b7          	lui	a5,0x4000
    1470:	00f6f7b3          	and	a5,a3,a5
    1474:	00078c63          	beqz	a5,0x148c
    1478:	fc0007b7          	lui	a5,0xfc000
    147c:	fff78793          	addi	a5,a5,-1 # 0xfffffffffbffffff
    1480:	00f6f6b3          	and	a3,a3,a5
    1484:	09f00793          	li	a5,159
    1488:	40e78533          	sub	a0,a5,a4
    148c:	0036d413          	srli	s0,a3,0x3
    1490:	f59ff06f          	j	0x13e8
    1494:	00000493          	li	s1,0
    1498:	00000413          	li	s0,0
    149c:	f4dff06f          	j	0x13e8
    14a0:	0145d613          	srli	a2,a1,0x14
    14a4:	7ff67613          	andi	a2,a2,2047
    14a8:	00c59693          	slli	a3,a1,0xc
    14ac:	00160713          	addi	a4,a2,1
    14b0:	0096d793          	srli	a5,a3,0x9
    14b4:	7fe77713          	andi	a4,a4,2046
    14b8:	01d55693          	srli	a3,a0,0x1d
    14bc:	00f6e6b3          	or	a3,a3,a5
    14c0:	01f5d593          	srli	a1,a1,0x1f
    14c4:	00351793          	slli	a5,a0,0x3
    14c8:	0a070663          	beqz	a4,0x1574
    14cc:	c8060713          	addi	a4,a2,-896
    14d0:	0fe00813          	li	a6,254
    14d4:	0ce84263          	blt	a6,a4,0x1598
    14d8:	08e04063          	bgtz	a4,0x1558
    14dc:	fe900513          	li	a0,-23
    14e0:	12a74063          	blt	a4,a0,0x1600
    14e4:	00800537          	lui	a0,0x800
    14e8:	00a6e6b3          	or	a3,a3,a0
    14ec:	01e00513          	li	a0,30
    14f0:	40e50533          	sub	a0,a0,a4
    14f4:	01f00813          	li	a6,31
    14f8:	02a84863          	blt	a6,a0,0x1528
    14fc:	c8260613          	addi	a2,a2,-894
    1500:	00a7d533          	srl	a0,a5,a0
    1504:	00c797b3          	sll	a5,a5,a2
    1508:	00f037b3          	snez	a5,a5
    150c:	00c696b3          	sll	a3,a3,a2
    1510:	00d7e7b3          	or	a5,a5,a3
    1514:	00f567b3          	or	a5,a0,a5
    1518:	00000713          	li	a4,0
    151c:	0077f693          	andi	a3,a5,7
    1520:	08068063          	beqz	a3,0x15a0
    1524:	0e40006f          	j	0x1608
    1528:	ffe00813          	li	a6,-2
    152c:	40e80733          	sub	a4,a6,a4
    1530:	02000893          	li	a7,32
    1534:	00e6d733          	srl	a4,a3,a4
    1538:	00000813          	li	a6,0
    153c:	01150663          	beq	a0,a7,0x1548
    1540:	ca260613          	addi	a2,a2,-862
    1544:	00c69833          	sll	a6,a3,a2
    1548:	00f867b3          	or	a5,a6,a5
    154c:	00f037b3          	snez	a5,a5
    1550:	00f767b3          	or	a5,a4,a5
    1554:	fc5ff06f          	j	0x1518
    1558:	00651513          	slli	a0,a0,0x6
    155c:	00a03533          	snez	a0,a0
    1560:	00369693          	slli	a3,a3,0x3
    1564:	01d7d793          	srli	a5,a5,0x1d
    1568:	00d566b3          	or	a3,a0,a3
    156c:	00f6e7b3          	or	a5,a3,a5
    1570:	fadff06f          	j	0x151c
    1574:	00f6e7b3          	or	a5,a3,a5
    1578:	00061663          	bnez	a2,0x1584
    157c:	00f037b3          	snez	a5,a5
    1580:	f99ff06f          	j	0x1518
    1584:	0ff00713          	li	a4,255
    1588:	00078c63          	beqz	a5,0x15a0
    158c:	00369693          	slli	a3,a3,0x3
    1590:	020007b7          	lui	a5,0x2000
    1594:	fd9ff06f          	j	0x156c
    1598:	00000793          	li	a5,0
    159c:	0ff00713          	li	a4,255
    15a0:	040006b7          	lui	a3,0x4000
    15a4:	00d7f6b3          	and	a3,a5,a3
    15a8:	00068e63          	beqz	a3,0x15c4
    15ac:	00170713          	addi	a4,a4,1
    15b0:	0ff00693          	li	a3,255
    15b4:	06d70463          	beq	a4,a3,0x161c
    15b8:	fc0006b7          	lui	a3,0xfc000
    15bc:	fff68693          	addi	a3,a3,-1 # 0xfffffffffbffffff
    15c0:	00d7f7b3          	and	a5,a5,a3
    15c4:	0ff00693          	li	a3,255
    15c8:	0037d793          	srli	a5,a5,0x3
    15cc:	00d71863          	bne	a4,a3,0x15dc
    15d0:	00078663          	beqz	a5,0x15dc
    15d4:	004007b7          	lui	a5,0x400
    15d8:	00000593          	li	a1,0
    15dc:	7f800537          	lui	a0,0x7f800
    15e0:	01771713          	slli	a4,a4,0x17
    15e4:	00979793          	slli	a5,a5,0x9
    15e8:	00a77733          	and	a4,a4,a0
    15ec:	0097d793          	srli	a5,a5,0x9
    15f0:	00f767b3          	or	a5,a4,a5
    15f4:	01f59513          	slli	a0,a1,0x1f
    15f8:	00a7e533          	or	a0,a5,a0
    15fc:	00008067          	ret
    1600:	00100793          	li	a5,1
    1604:	00000713          	li	a4,0
    1608:	00f7f693          	andi	a3,a5,15
    160c:	00400613          	li	a2,4
    1610:	f8c688e3          	beq	a3,a2,0x15a0
    1614:	00478793          	addi	a5,a5,4 # 0x400004
    1618:	f89ff06f          	j	0x15a0
    161c:	00000793          	li	a5,0
    1620:	fa5ff06f          	j	0x15c4
    1624:	00050613          	mv	a2,a0
    1628:	00000513          	li	a0,0
    162c:	0015f693          	andi	a3,a1,1
    1630:	00068463          	beqz	a3,0x1638
    1634:	00c50533          	add	a0,a0,a2
    1638:	0015d593          	srli	a1,a1,0x1
    163c:	00161613          	slli	a2,a2,0x1
    1640:	fe0596e3          	bnez	a1,0x162c
    1644:	00008067          	ret
    1648:	06054063          	bltz	a0,0x16a8
    164c:	0605c663          	bltz	a1,0x16b8
    1650:	00058613          	mv	a2,a1
    1654:	00050593          	mv	a1,a0
    1658:	fff00513          	li	a0,-1
    165c:	02060c63          	beqz	a2,0x1694
    1660:	00100693          	li	a3,1
    1664:	00b67a63          	bgeu	a2,a1,0x1678
    1668:	00c05863          	blez	a2,0x1678
    166c:	00161613          	slli	a2,a2,0x1
    1670:	00169693          	slli	a3,a3,0x1
    1674:	feb66ae3          	bltu	a2,a1,0x1668
    1678:	00000513          	li	a0,0
    167c:	00c5e663          	bltu	a1,a2,0x1688
    1680:	40c585b3          	sub	a1,a1,a2
    1684:	00d56533          	or	a0,a0,a3
    1688:	0016d693          	srli	a3,a3,0x1
    168c:	00165613          	srli	a2,a2,0x1
    1690:	fe0696e3          	bnez	a3,0x167c
    1694:	00008067          	ret
    1698:	00008293          	mv	t0,ra
    169c:	fb5ff0ef          	jal	ra,0x1650
    16a0:	00058513          	mv	a0,a1
    16a4:	00028067          	jr	t0
    16a8:	40a00533          	neg	a0,a0
    16ac:	00b04863          	bgtz	a1,0x16bc
    16b0:	40b005b3          	neg	a1,a1
    16b4:	f9dff06f          	j	0x1650
    16b8:	40b005b3          	neg	a1,a1
    16bc:	00008293          	mv	t0,ra
    16c0:	f91ff0ef          	jal	ra,0x1650
    16c4:	40a00533          	neg	a0,a0
    16c8:	00028067          	jr	t0
    16cc:	00008293          	mv	t0,ra
    16d0:	0005ca63          	bltz	a1,0x16e4
    16d4:	00054c63          	bltz	a0,0x16ec
    16d8:	f79ff0ef          	jal	ra,0x1650
    16dc:	00058513          	mv	a0,a1
    16e0:	00028067          	jr	t0
    16e4:	40b005b3          	neg	a1,a1
    16e8:	fe0558e3          	bgez	a0,0x16d8
    16ec:	40a00533          	neg	a0,a0
    16f0:	f61ff0ef          	jal	ra,0x1650
    16f4:	40b00533          	neg	a0,a1
    16f8:	00028067          	jr	t0
    16fc:	000107b7          	lui	a5,0x10
    1700:	02f57a63          	bgeu	a0,a5,0x1734
    1704:	0ff00793          	li	a5,255
    1708:	00a7b7b3          	sltu	a5,a5,a0
    170c:	00379793          	slli	a5,a5,0x3
    1710:	00002737          	lui	a4,0x2
    1714:	02000693          	li	a3,32
    1718:	40f686b3          	sub	a3,a3,a5
    171c:	00f55533          	srl	a0,a0,a5
    1720:	84070793          	addi	a5,a4,-1984 # 0x1840
    1724:	00a78533          	add	a0,a5,a0
    1728:	00054503          	lbu	a0,0(a0) # 0x7f800000
    172c:	40a68533          	sub	a0,a3,a0
    1730:	00008067          	ret
    1734:	01000737          	lui	a4,0x1000
    1738:	01000793          	li	a5,16
    173c:	fce56ae3          	bltu	a0,a4,0x1710
    1740:	01800793          	li	a5,24
    1744:	fcdff06f          	j	0x1710
    1748:	fffc                	sd	a5,248(a5)
    174a:	0000                	unimp
    174c:	0020                	addi	s0,sp,8
    174e:	0000                	unimp
    1750:	0748                	addi	a0,sp,900
    1752:	0000                	unimp
    1754:	0830                	addi	a2,sp,24
    1756:	0000                	unimp
    1758:	0830                	addi	a2,sp,24
    175a:	0000                	unimp
    175c:	0830                	addi	a2,sp,24
    175e:	0000                	unimp
    1760:	0830                	addi	a2,sp,24
    1762:	0000                	unimp
    1764:	0830                	addi	a2,sp,24
    1766:	0000                	unimp
    1768:	0830                	addi	a2,sp,24
    176a:	0000                	unimp
    176c:	0830                	addi	a2,sp,24
    176e:	0000                	unimp
    1770:	0830                	addi	a2,sp,24
    1772:	0000                	unimp
    1774:	0830                	addi	a2,sp,24
    1776:	0000                	unimp
    1778:	0830                	addi	a2,sp,24
    177a:	0000                	unimp
    177c:	07a0                	addi	s0,sp,968
    177e:	0000                	unimp
    1780:	06f0                	addi	a2,sp,844
    1782:	0000                	unimp
    1784:	0830                	addi	a2,sp,24
    1786:	0000                	unimp
    1788:	07f8                	addi	a4,sp,972
    178a:	0000                	unimp
    178c:	0830                	addi	a2,sp,24
    178e:	0000                	unimp
    1790:	0830                	addi	a2,sp,24
    1792:	0000                	unimp
    1794:	0830                	addi	a2,sp,24
    1796:	0000                	unimp
    1798:	0830                	addi	a2,sp,24
    179a:	0000                	unimp
    179c:	0830                	addi	a2,sp,24
    179e:	0000                	unimp
    17a0:	0830                	addi	a2,sp,24
    17a2:	0000                	unimp
    17a4:	0830                	addi	a2,sp,24
    17a6:	0000                	unimp
    17a8:	0830                	addi	a2,sp,24
    17aa:	0000                	unimp
    17ac:	0830                	addi	a2,sp,24
    17ae:	0000                	unimp
    17b0:	0830                	addi	a2,sp,24
    17b2:	0000                	unimp
    17b4:	0830                	addi	a2,sp,24
    17b6:	0000                	unimp
    17b8:	0830                	addi	a2,sp,24
    17ba:	0000                	unimp
    17bc:	07c4                	addi	s1,sp,964
    17be:	0000                	unimp
    17c0:	0830                	addi	a2,sp,24
    17c2:	0000                	unimp
    17c4:	06f0                	addi	a2,sp,844
    17c6:	0000                	unimp
    17c8:	0830                	addi	a2,sp,24
    17ca:	0000                	unimp
    17cc:	0830                	addi	a2,sp,24
    17ce:	0000                	unimp
    17d0:	0748                	addi	a0,sp,900
    17d2:	0000                	unimp
    17d4:	bc20                	fsd	fs0,120(s0)
    17d6:	4cbe                	lw	s9,204(sp)
    17d8:	7270                	ld	a2,224(a2)
    17da:	6375646f          	jal	s0,0x58610
    17de:	2074                	fld	fa3,192(s0)
    17e0:	7820666f          	jal	a2,0x7f62
    17e4:	6120                	ld	s0,64(a0)
    17e6:	646e                	ld	s0,216(sp)
    17e8:	7920                	ld	s0,112(a0)
    17ea:	6920                	ld	s0,80(a0)
    17ec:	64252073          	csrs	0x642,a0
    17f0:	252e                	fld	fa0,200(sp)
    17f2:	0a64                	addi	s1,sp,284
    17f4:	0000                	unimp
    17f6:	0000                	unimp
    17f8:	bc20                	fsd	fs0,120(s0)
    17fa:	4cbe                	lw	s9,204(sp)
    17fc:	c21aaf4f          	fnmadd.d	ft10,fs5,ft1,fs8,rdn
    1800:	264c                	fld	fa1,136(a2)
    1802:	41b6                	lw	gp,76(sp)
    1804:	0de0                	addi	s0,sp,732
    1806:	0000                	unimp
    1808:	0de0                	addi	s0,sp,732
    180a:	0000                	unimp
    180c:	0e04                	addi	s1,sp,784
    180e:	0000                	unimp
    1810:	0dd8                	addi	a4,sp,724
    1812:	0000                	unimp
    1814:	0dd8                	addi	a4,sp,724
    1816:	0000                	unimp
    1818:	0e6c                	addi	a1,sp,796
    181a:	0000                	unimp
    181c:	0e04                	addi	s1,sp,784
    181e:	0000                	unimp
    1820:	0dd8                	addi	a4,sp,724
    1822:	0000                	unimp
    1824:	0e6c                	addi	a1,sp,796
    1826:	0000                	unimp
    1828:	0dd8                	addi	a4,sp,724
    182a:	0000                	unimp
    182c:	0e04                	addi	s1,sp,784
    182e:	0000                	unimp
    1830:	0dd4                	addi	a3,sp,724
    1832:	0000                	unimp
    1834:	0dd4                	addi	a3,sp,724
    1836:	0000                	unimp
    1838:	0dd4                	addi	a3,sp,724
    183a:	0000                	unimp
    183c:	0e6c                	addi	a1,sp,796
    183e:	0000                	unimp
    1840:	0100                	addi	s0,sp,128
    1842:	0202                	c.slli64	tp
    1844:	03030303          	lb	t1,48(t1)
    1848:	0404                	addi	s1,sp,512
    184a:	0404                	addi	s1,sp,512
    184c:	0404                	addi	s1,sp,512
    184e:	0404                	addi	s1,sp,512
    1850:	0505                	addi	a0,a0,1
    1852:	0505                	addi	a0,a0,1
    1854:	0505                	addi	a0,a0,1
    1856:	0505                	addi	a0,a0,1
    1858:	0505                	addi	a0,a0,1
    185a:	0505                	addi	a0,a0,1
    185c:	0505                	addi	a0,a0,1
    185e:	0505                	addi	a0,a0,1
    1860:	0606                	slli	a2,a2,0x1
    1862:	0606                	slli	a2,a2,0x1
    1864:	0606                	slli	a2,a2,0x1
    1866:	0606                	slli	a2,a2,0x1
    1868:	0606                	slli	a2,a2,0x1
    186a:	0606                	slli	a2,a2,0x1
    186c:	0606                	slli	a2,a2,0x1
    186e:	0606                	slli	a2,a2,0x1
    1870:	0606                	slli	a2,a2,0x1
    1872:	0606                	slli	a2,a2,0x1
    1874:	0606                	slli	a2,a2,0x1
    1876:	0606                	slli	a2,a2,0x1
    1878:	0606                	slli	a2,a2,0x1
    187a:	0606                	slli	a2,a2,0x1
    187c:	0606                	slli	a2,a2,0x1
    187e:	0606                	slli	a2,a2,0x1
    1880:	07070707          	0x7070707
    1884:	07070707          	0x7070707
    1888:	07070707          	0x7070707
    188c:	07070707          	0x7070707
    1890:	07070707          	0x7070707
    1894:	07070707          	0x7070707
    1898:	07070707          	0x7070707
    189c:	07070707          	0x7070707
    18a0:	07070707          	0x7070707
    18a4:	07070707          	0x7070707
    18a8:	07070707          	0x7070707
    18ac:	07070707          	0x7070707
    18b0:	07070707          	0x7070707
    18b4:	07070707          	0x7070707
    18b8:	07070707          	0x7070707
    18bc:	07070707          	0x7070707
    18c0:	0808                	addi	a0,sp,16
    18c2:	0808                	addi	a0,sp,16
    18c4:	0808                	addi	a0,sp,16
    18c6:	0808                	addi	a0,sp,16
    18c8:	0808                	addi	a0,sp,16
    18ca:	0808                	addi	a0,sp,16
    18cc:	0808                	addi	a0,sp,16
    18ce:	0808                	addi	a0,sp,16
    18d0:	0808                	addi	a0,sp,16
    18d2:	0808                	addi	a0,sp,16
    18d4:	0808                	addi	a0,sp,16
    18d6:	0808                	addi	a0,sp,16
    18d8:	0808                	addi	a0,sp,16
    18da:	0808                	addi	a0,sp,16
    18dc:	0808                	addi	a0,sp,16
    18de:	0808                	addi	a0,sp,16
    18e0:	0808                	addi	a0,sp,16
    18e2:	0808                	addi	a0,sp,16
    18e4:	0808                	addi	a0,sp,16
    18e6:	0808                	addi	a0,sp,16
    18e8:	0808                	addi	a0,sp,16
    18ea:	0808                	addi	a0,sp,16
    18ec:	0808                	addi	a0,sp,16
    18ee:	0808                	addi	a0,sp,16
    18f0:	0808                	addi	a0,sp,16
    18f2:	0808                	addi	a0,sp,16
    18f4:	0808                	addi	a0,sp,16
    18f6:	0808                	addi	a0,sp,16
    18f8:	0808                	addi	a0,sp,16
    18fa:	0808                	addi	a0,sp,16
    18fc:	0808                	addi	a0,sp,16
    18fe:	0808                	addi	a0,sp,16
    1900:	0808                	addi	a0,sp,16
    1902:	0808                	addi	a0,sp,16
    1904:	0808                	addi	a0,sp,16
    1906:	0808                	addi	a0,sp,16
    1908:	0808                	addi	a0,sp,16
    190a:	0808                	addi	a0,sp,16
    190c:	0808                	addi	a0,sp,16
    190e:	0808                	addi	a0,sp,16
    1910:	0808                	addi	a0,sp,16
    1912:	0808                	addi	a0,sp,16
    1914:	0808                	addi	a0,sp,16
    1916:	0808                	addi	a0,sp,16
    1918:	0808                	addi	a0,sp,16
    191a:	0808                	addi	a0,sp,16
    191c:	0808                	addi	a0,sp,16
    191e:	0808                	addi	a0,sp,16
    1920:	0808                	addi	a0,sp,16
    1922:	0808                	addi	a0,sp,16
    1924:	0808                	addi	a0,sp,16
    1926:	0808                	addi	a0,sp,16
    1928:	0808                	addi	a0,sp,16
    192a:	0808                	addi	a0,sp,16
    192c:	0808                	addi	a0,sp,16
    192e:	0808                	addi	a0,sp,16
    1930:	0808                	addi	a0,sp,16
    1932:	0808                	addi	a0,sp,16
    1934:	0808                	addi	a0,sp,16
    1936:	0808                	addi	a0,sp,16
    1938:	0808                	addi	a0,sp,16
    193a:	0808                	addi	a0,sp,16
    193c:	0808                	addi	a0,sp,16
    193e:	0808                	addi	a0,sp,16
