
disassembly.o:     file format elf64-littleriscv


Disassembly of section .text:

0000000000000000 <.text>:
       0:	00010117          	auipc	sp,0x10
       4:	ffc10113          	addi	sp,sp,-4 # 0xfffc
       8:	018000ef          	jal	ra,0x20
       c:	00130313          	addi	t1,t1,1
      10:	000103b7          	lui	t2,0x10
      14:	00c38393          	addi	t2,t2,12 # 0x1000c
      18:	0063a023          	sw	t1,0(t2)
      1c:	0000006f          	j	0x1c
      20:	ff010113          	addi	sp,sp,-16
      24:	00112623          	sw	ra,12(sp)
      28:	00812423          	sw	s0,8(sp)
      2c:	01010413          	addi	s0,sp,16
      30:	660010ef          	jal	ra,0x1690
      34:	00000013          	nop
      38:	00c12083          	lw	ra,12(sp)
      3c:	00812403          	lw	s0,8(sp)
      40:	01010113          	addi	sp,sp,16
      44:	00008067          	ret
      48:	fd010113          	addi	sp,sp,-48
      4c:	02812423          	sw	s0,40(sp)
      50:	02912223          	sw	s1,36(sp)
      54:	01412c23          	sw	s4,24(sp)
      58:	01512a23          	sw	s5,20(sp)
      5c:	01712623          	sw	s7,12(sp)
      60:	02112623          	sw	ra,44(sp)
      64:	03212023          	sw	s2,32(sp)
      68:	01312e23          	sw	s3,28(sp)
      6c:	01612823          	sw	s6,16(sp)
      70:	00050413          	mv	s0,a0
      74:	00058b93          	mv	s7,a1
      78:	00070493          	mv	s1,a4
      7c:	00078a13          	mv	s4,a5
      80:	00000a93          	li	s5,0
      84:	1c054863          	bltz	a0,0x254
      88:	06100913          	li	s2,97
      8c:	00060463          	beqz	a2,0x94
      90:	04100913          	li	s2,65
      94:	00048b13          	mv	s6,s1
      98:	00900993          	li	s3,9
      9c:	ff690913          	addi	s2,s2,-10
      a0:	000b8593          	mv	a1,s7
      a4:	00040513          	mv	a0,s0
      a8:	538010ef          	jal	ra,0x15e0
      ac:	00050713          	mv	a4,a0
      b0:	0ff77693          	andi	a3,a4,255
      b4:	03068793          	addi	a5,a3,48
      b8:	000b8593          	mv	a1,s7
      bc:	00040513          	mv	a0,s0
      c0:	012686b3          	add	a3,a3,s2
      c4:	16e9ec63          	bltu	s3,a4,0x23c
      c8:	00fb0023          	sb	a5,0(s6)
      cc:	4cc010ef          	jal	ra,0x1598
      d0:	00050413          	mv	s0,a0
      d4:	001b0b13          	addi	s6,s6,1
      d8:	fca044e3          	bgtz	a0,0xa0
      dc:	409b0733          	sub	a4,s6,s1
      e0:	0f477263          	bgeu	a4,s4,0x1c4
      e4:	fffa0693          	addi	a3,s4,-1
      e8:	416007b3          	neg	a5,s6
      ec:	40e686b3          	sub	a3,a3,a4
      f0:	00500613          	li	a2,5
      f4:	40ea0533          	sub	a0,s4,a4
      f8:	0037f793          	andi	a5,a5,3
      fc:	16d67a63          	bgeu	a2,a3,0x270
     100:	16078263          	beqz	a5,0x264
     104:	03000693          	li	a3,48
     108:	00db0023          	sb	a3,0(s6)
     10c:	00100613          	li	a2,1
     110:	001b0593          	addi	a1,s6,1
     114:	00170893          	addi	a7,a4,1
     118:	02c78263          	beq	a5,a2,0x13c
     11c:	00db00a3          	sb	a3,1(s6)
     120:	00200613          	li	a2,2
     124:	002b0593          	addi	a1,s6,2
     128:	00270893          	addi	a7,a4,2
     12c:	00c78863          	beq	a5,a2,0x13c
     130:	003b0593          	addi	a1,s6,3
     134:	00db0123          	sb	a3,2(s6)
     138:	00370893          	addi	a7,a4,3
     13c:	40f50833          	sub	a6,a0,a5
     140:	ffc80693          	addi	a3,a6,-4
     144:	0026d693          	srli	a3,a3,0x2
     148:	30303637          	lui	a2,0x30303
     14c:	00168693          	addi	a3,a3,1
     150:	00fb07b3          	add	a5,s6,a5
     154:	00000713          	li	a4,0
     158:	03060613          	addi	a2,a2,48 # 0x30303030
     15c:	00c7a023          	sw	a2,0(a5)
     160:	00170713          	addi	a4,a4,1
     164:	00478793          	addi	a5,a5,4
     168:	fed76ae3          	bltu	a4,a3,0x15c
     16c:	00269693          	slli	a3,a3,0x2
     170:	00d88733          	add	a4,a7,a3
     174:	00d587b3          	add	a5,a1,a3
     178:	04d80463          	beq	a6,a3,0x1c0
     17c:	03000693          	li	a3,48
     180:	00d78023          	sb	a3,0(a5)
     184:	00170613          	addi	a2,a4,1
     188:	03467c63          	bgeu	a2,s4,0x1c0
     18c:	00d780a3          	sb	a3,1(a5)
     190:	00270613          	addi	a2,a4,2
     194:	03467663          	bgeu	a2,s4,0x1c0
     198:	00d78123          	sb	a3,2(a5)
     19c:	00370613          	addi	a2,a4,3
     1a0:	03467063          	bgeu	a2,s4,0x1c0
     1a4:	00d781a3          	sb	a3,3(a5)
     1a8:	00470613          	addi	a2,a4,4
     1ac:	01467a63          	bgeu	a2,s4,0x1c0
     1b0:	00d78223          	sb	a3,4(a5)
     1b4:	00570713          	addi	a4,a4,5
     1b8:	01477463          	bgeu	a4,s4,0x1c0
     1bc:	00d782a3          	sb	a3,5(a5)
     1c0:	00ab0b33          	add	s6,s6,a0
     1c4:	000a8863          	beqz	s5,0x1d4
     1c8:	02d00793          	li	a5,45
     1cc:	00fb0023          	sb	a5,0(s6)
     1d0:	001b0b13          	addi	s6,s6,1
     1d4:	409b0533          	sub	a0,s6,s1
     1d8:	000b0023          	sb	zero,0(s6)
     1dc:	00155593          	srli	a1,a0,0x1
     1e0:	02058863          	beqz	a1,0x210
     1e4:	fff50793          	addi	a5,a0,-1
     1e8:	00048713          	mv	a4,s1
     1ec:	00f487b3          	add	a5,s1,a5
     1f0:	00b485b3          	add	a1,s1,a1
     1f4:	0007c603          	lbu	a2,0(a5)
     1f8:	00074683          	lbu	a3,0(a4)
     1fc:	00170713          	addi	a4,a4,1
     200:	fff78793          	addi	a5,a5,-1
     204:	fec70fa3          	sb	a2,-1(a4)
     208:	00d780a3          	sb	a3,1(a5)
     20c:	feb714e3          	bne	a4,a1,0x1f4
     210:	02c12083          	lw	ra,44(sp)
     214:	02812403          	lw	s0,40(sp)
     218:	02412483          	lw	s1,36(sp)
     21c:	02012903          	lw	s2,32(sp)
     220:	01c12983          	lw	s3,28(sp)
     224:	01812a03          	lw	s4,24(sp)
     228:	01412a83          	lw	s5,20(sp)
     22c:	01012b03          	lw	s6,16(sp)
     230:	00c12b83          	lw	s7,12(sp)
     234:	03010113          	addi	sp,sp,48
     238:	00008067          	ret
     23c:	00db0023          	sb	a3,0(s6)
     240:	358010ef          	jal	ra,0x1598
     244:	00050413          	mv	s0,a0
     248:	001b0b13          	addi	s6,s6,1
     24c:	e4a04ae3          	bgtz	a0,0xa0
     250:	e8dff06f          	j	0xdc
     254:	e2069ae3          	bnez	a3,0x88
     258:	40a00433          	neg	s0,a0
     25c:	00100a93          	li	s5,1
     260:	e29ff06f          	j	0x88
     264:	000b0593          	mv	a1,s6
     268:	00070893          	mv	a7,a4
     26c:	ed1ff06f          	j	0x13c
     270:	000b0793          	mv	a5,s6
     274:	f09ff06f          	j	0x17c
     278:	fd010113          	addi	sp,sp,-48
     27c:	02812423          	sw	s0,40(sp)
     280:	02912223          	sw	s1,36(sp)
     284:	01312e23          	sw	s3,28(sp)
     288:	01412c23          	sw	s4,24(sp)
     28c:	02112623          	sw	ra,44(sp)
     290:	03212023          	sw	s2,32(sp)
     294:	01512a23          	sw	s5,20(sp)
     298:	01612823          	sw	s6,16(sp)
     29c:	01712623          	sw	s7,12(sp)
     2a0:	00050413          	mv	s0,a0
     2a4:	00060493          	mv	s1,a2
     2a8:	00068993          	mv	s3,a3
     2ac:	00000a13          	li	s4,0
     2b0:	1a054063          	bltz	a0,0x450
     2b4:	00048913          	mv	s2,s1
     2b8:	00900b93          	li	s7,9
     2bc:	00a00593          	li	a1,10
     2c0:	00040513          	mv	a0,s0
     2c4:	31c010ef          	jal	ra,0x15e0
     2c8:	03050793          	addi	a5,a0,48
     2cc:	00f90023          	sb	a5,0(s2)
     2d0:	00040513          	mv	a0,s0
     2d4:	00a00593          	li	a1,10
     2d8:	00040b13          	mv	s6,s0
     2dc:	2bc010ef          	jal	ra,0x1598
     2e0:	00090a93          	mv	s5,s2
     2e4:	00050413          	mv	s0,a0
     2e8:	00190913          	addi	s2,s2,1
     2ec:	fd6be8e3          	bltu	s7,s6,0x2bc
     2f0:	40990733          	sub	a4,s2,s1
     2f4:	0f377263          	bgeu	a4,s3,0x3d8
     2f8:	fff98693          	addi	a3,s3,-1
     2fc:	412007b3          	neg	a5,s2
     300:	40e686b3          	sub	a3,a3,a4
     304:	00500613          	li	a2,5
     308:	40e985b3          	sub	a1,s3,a4
     30c:	0037f793          	andi	a5,a5,3
     310:	14d67e63          	bgeu	a2,a3,0x46c
     314:	14078663          	beqz	a5,0x460
     318:	03000693          	li	a3,48
     31c:	00d90023          	sb	a3,0(s2)
     320:	00100613          	li	a2,1
     324:	002a8a93          	addi	s5,s5,2
     328:	00170813          	addi	a6,a4,1
     32c:	02c78263          	beq	a5,a2,0x350
     330:	00d900a3          	sb	a3,1(s2)
     334:	00200613          	li	a2,2
     338:	00290a93          	addi	s5,s2,2
     33c:	00270813          	addi	a6,a4,2
     340:	00c78863          	beq	a5,a2,0x350
     344:	00390a93          	addi	s5,s2,3
     348:	00d90123          	sb	a3,2(s2)
     34c:	00370813          	addi	a6,a4,3
     350:	40f58533          	sub	a0,a1,a5
     354:	ffc50693          	addi	a3,a0,-4
     358:	0026d693          	srli	a3,a3,0x2
     35c:	30303637          	lui	a2,0x30303
     360:	00168693          	addi	a3,a3,1
     364:	00f907b3          	add	a5,s2,a5
     368:	00000713          	li	a4,0
     36c:	03060613          	addi	a2,a2,48 # 0x30303030
     370:	00c7a023          	sw	a2,0(a5)
     374:	00170713          	addi	a4,a4,1
     378:	00478793          	addi	a5,a5,4
     37c:	fed76ae3          	bltu	a4,a3,0x370
     380:	00269693          	slli	a3,a3,0x2
     384:	01068733          	add	a4,a3,a6
     388:	00da8ab3          	add	s5,s5,a3
     38c:	04a68463          	beq	a3,a0,0x3d4
     390:	03000793          	li	a5,48
     394:	00fa8023          	sb	a5,0(s5)
     398:	00170693          	addi	a3,a4,1
     39c:	0336fc63          	bgeu	a3,s3,0x3d4
     3a0:	00fa80a3          	sb	a5,1(s5)
     3a4:	00270693          	addi	a3,a4,2
     3a8:	0336f663          	bgeu	a3,s3,0x3d4
     3ac:	00fa8123          	sb	a5,2(s5)
     3b0:	00370693          	addi	a3,a4,3
     3b4:	0336f063          	bgeu	a3,s3,0x3d4
     3b8:	00fa81a3          	sb	a5,3(s5)
     3bc:	00470693          	addi	a3,a4,4
     3c0:	0136fa63          	bgeu	a3,s3,0x3d4
     3c4:	00fa8223          	sb	a5,4(s5)
     3c8:	00570713          	addi	a4,a4,5
     3cc:	01377463          	bgeu	a4,s3,0x3d4
     3d0:	00fa82a3          	sb	a5,5(s5)
     3d4:	00b90933          	add	s2,s2,a1
     3d8:	000a0863          	beqz	s4,0x3e8
     3dc:	02d00793          	li	a5,45
     3e0:	00f90023          	sb	a5,0(s2)
     3e4:	00190913          	addi	s2,s2,1
     3e8:	40990533          	sub	a0,s2,s1
     3ec:	00090023          	sb	zero,0(s2)
     3f0:	00155593          	srli	a1,a0,0x1
     3f4:	02058863          	beqz	a1,0x424
     3f8:	fff50793          	addi	a5,a0,-1
     3fc:	00048613          	mv	a2,s1
     400:	00f487b3          	add	a5,s1,a5
     404:	00b485b3          	add	a1,s1,a1
     408:	0007c683          	lbu	a3,0(a5)
     40c:	00064703          	lbu	a4,0(a2)
     410:	00160613          	addi	a2,a2,1
     414:	fff78793          	addi	a5,a5,-1
     418:	fed60fa3          	sb	a3,-1(a2)
     41c:	00e780a3          	sb	a4,1(a5)
     420:	feb614e3          	bne	a2,a1,0x408
     424:	02c12083          	lw	ra,44(sp)
     428:	02812403          	lw	s0,40(sp)
     42c:	02412483          	lw	s1,36(sp)
     430:	02012903          	lw	s2,32(sp)
     434:	01c12983          	lw	s3,28(sp)
     438:	01812a03          	lw	s4,24(sp)
     43c:	01412a83          	lw	s5,20(sp)
     440:	01012b03          	lw	s6,16(sp)
     444:	00c12b83          	lw	s7,12(sp)
     448:	03010113          	addi	sp,sp,48
     44c:	00008067          	ret
     450:	e60592e3          	bnez	a1,0x2b4
     454:	40a00433          	neg	s0,a0
     458:	00100a13          	li	s4,1
     45c:	e59ff06f          	j	0x2b4
     460:	00090a93          	mv	s5,s2
     464:	00070813          	mv	a6,a4
     468:	ee9ff06f          	j	0x350
     46c:	00090a93          	mv	s5,s2
     470:	f21ff06f          	j	0x390
     474:	000107b7          	lui	a5,0x10
     478:	00a7a223          	sw	a0,4(a5) # 0x10004
     47c:	0047a783          	lw	a5,4(a5)
     480:	40f50533          	sub	a0,a0,a5
     484:	00153513          	seqz	a0,a0
     488:	00008067          	ret
     48c:	00054703          	lbu	a4,0(a0)
     490:	04070463          	beqz	a4,0x4d8
     494:	00150693          	addi	a3,a0,1
     498:	00100613          	li	a2,1
     49c:	000105b7          	lui	a1,0x10
     4a0:	00e5a223          	sw	a4,4(a1) # 0x10004
     4a4:	0045a783          	lw	a5,4(a1)
     4a8:	00168693          	addi	a3,a3,1
     4ac:	40f707b3          	sub	a5,a4,a5
     4b0:	fff6c703          	lbu	a4,-1(a3)
     4b4:	0017b793          	seqz	a5,a5
     4b8:	00c7f633          	and	a2,a5,a2
     4bc:	00060793          	mv	a5,a2
     4c0:	fe0710e3          	bnez	a4,0x4a0
     4c4:	0005a223          	sw	zero,4(a1)
     4c8:	0045a503          	lw	a0,4(a1)
     4cc:	00153513          	seqz	a0,a0
     4d0:	00f57533          	and	a0,a0,a5
     4d4:	00008067          	ret
     4d8:	000105b7          	lui	a1,0x10
     4dc:	0005a223          	sw	zero,4(a1) # 0x10004
     4e0:	0045a503          	lw	a0,4(a1)
     4e4:	00100793          	li	a5,1
     4e8:	00153513          	seqz	a0,a0
     4ec:	00f57533          	and	a0,a0,a5
     4f0:	00008067          	ret
     4f4:	00a5a023          	sw	a0,0(a1)
     4f8:	00100513          	li	a0,1
     4fc:	00008067          	ret
     500:	00058c63          	beqz	a1,0x518
     504:	00b505b3          	add	a1,a0,a1
     508:	00054783          	lbu	a5,0(a0)
     50c:	00150513          	addi	a0,a0,1
     510:	00f62023          	sw	a5,0(a2)
     514:	fea59ae3          	bne	a1,a0,0x508
     518:	00062023          	sw	zero,0(a2)
     51c:	00100513          	li	a0,1
     520:	00008067          	ret
     524:	00054783          	lbu	a5,0(a0)
     528:	00050713          	mv	a4,a0
     52c:	00000513          	li	a0,0
     530:	00078c63          	beqz	a5,0x548
     534:	00150513          	addi	a0,a0,1
     538:	00a707b3          	add	a5,a4,a0
     53c:	0007c783          	lbu	a5,0(a5)
     540:	fe079ae3          	bnez	a5,0x534
     544:	00008067          	ret
     548:	00008067          	ret
     54c:	01000813          	li	a6,16
     550:	00b86463          	bltu	a6,a1,0x558
     554:	af5ff06f          	j	0x48
     558:	00000513          	li	a0,0
     55c:	00008067          	ret
     560:	fe010113          	addi	sp,sp,-32
     564:	00112e23          	sw	ra,28(sp)
     568:	00812c23          	sw	s0,24(sp)
     56c:	00912a23          	sw	s1,20(sp)
     570:	01212823          	sw	s2,16(sp)
     574:	01312623          	sw	s3,12(sp)
     578:	00058913          	mv	s2,a1
     57c:	00060993          	mv	s3,a2
     580:	00050493          	mv	s1,a0
     584:	4ed000ef          	jal	ra,0x1270
     588:	559000ef          	jal	ra,0x12e0
     58c:	00050593          	mv	a1,a0
     590:	00048513          	mv	a0,s1
     594:	071000ef          	jal	ra,0xe04
     598:	00000593          	li	a1,0
     59c:	00050413          	mv	s0,a0
     5a0:	480000ef          	jal	ra,0xa20
     5a4:	00a04663          	bgtz	a0,0x5b0
     5a8:	800007b7          	lui	a5,0x80000
     5ac:	0087c433          	xor	s0,a5,s0
     5b0:	000027b7          	lui	a5,0x2
     5b4:	b207a583          	lw	a1,-1248(a5) # 0x1b20
     5b8:	00040513          	mv	a0,s0
     5bc:	518000ef          	jal	ra,0xad4
     5c0:	4b1000ef          	jal	ra,0x1270
     5c4:	00040593          	mv	a1,s0
     5c8:	00a9a023          	sw	a0,0(s3)
     5cc:	00048513          	mv	a0,s1
     5d0:	035000ef          	jal	ra,0xe04
     5d4:	49d000ef          	jal	ra,0x1270
     5d8:	01c12083          	lw	ra,28(sp)
     5dc:	01812403          	lw	s0,24(sp)
     5e0:	00a92023          	sw	a0,0(s2)
     5e4:	01412483          	lw	s1,20(sp)
     5e8:	01012903          	lw	s2,16(sp)
     5ec:	00c12983          	lw	s3,12(sp)
     5f0:	00000513          	li	a0,0
     5f4:	02010113          	addi	sp,sp,32
     5f8:	00008067          	ret
     5fc:	fd010113          	addi	sp,sp,-48
     600:	02112623          	sw	ra,44(sp)
     604:	02812423          	sw	s0,40(sp)
     608:	02912223          	sw	s1,36(sp)
     60c:	00050493          	mv	s1,a0
     610:	461000ef          	jal	ra,0x1270
     614:	4cd000ef          	jal	ra,0x12e0
     618:	00050593          	mv	a1,a0
     61c:	00048513          	mv	a0,s1
     620:	7e4000ef          	jal	ra,0xe04
     624:	00000593          	li	a1,0
     628:	00050413          	mv	s0,a0
     62c:	3f4000ef          	jal	ra,0xa20
     630:	00a04663          	bgtz	a0,0x63c
     634:	800007b7          	lui	a5,0x80000
     638:	0087c433          	xor	s0,a5,s0
     63c:	00040593          	mv	a1,s0
     640:	00048513          	mv	a0,s1
     644:	7c0000ef          	jal	ra,0xe04
     648:	429000ef          	jal	ra,0x1270
     64c:	00000693          	li	a3,0
     650:	00810613          	addi	a2,sp,8
     654:	00000593          	li	a1,0
     658:	c21ff0ef          	jal	ra,0x278
     65c:	000027b7          	lui	a5,0x2
     660:	b207a583          	lw	a1,-1248(a5) # 0x1b20
     664:	00040513          	mv	a0,s0
     668:	46c000ef          	jal	ra,0xad4
     66c:	405000ef          	jal	ra,0x1270
     670:	00000693          	li	a3,0
     674:	01410613          	addi	a2,sp,20
     678:	00000593          	li	a1,0
     67c:	bfdff0ef          	jal	ra,0x278
     680:	00814703          	lbu	a4,8(sp)
     684:	000107b7          	lui	a5,0x10
     688:	02070063          	beqz	a4,0x6a8
     68c:	00910693          	addi	a3,sp,9
     690:	000107b7          	lui	a5,0x10
     694:	00e7a223          	sw	a4,4(a5) # 0x10004
     698:	0006c703          	lbu	a4,0(a3)
     69c:	0047a603          	lw	a2,4(a5)
     6a0:	00168693          	addi	a3,a3,1
     6a4:	fe0718e3          	bnez	a4,0x694
     6a8:	0007a223          	sw	zero,4(a5)
     6ac:	0047a703          	lw	a4,4(a5)
     6b0:	02e00693          	li	a3,46
     6b4:	00d7a223          	sw	a3,4(a5)
     6b8:	01414703          	lbu	a4,20(sp)
     6bc:	0047a683          	lw	a3,4(a5)
     6c0:	00070e63          	beqz	a4,0x6dc
     6c4:	01510693          	addi	a3,sp,21
     6c8:	00e7a223          	sw	a4,4(a5)
     6cc:	0006c703          	lbu	a4,0(a3)
     6d0:	0047a603          	lw	a2,4(a5)
     6d4:	00168693          	addi	a3,a3,1
     6d8:	fe0718e3          	bnez	a4,0x6c8
     6dc:	02c12083          	lw	ra,44(sp)
     6e0:	02812403          	lw	s0,40(sp)
     6e4:	0007a223          	sw	zero,4(a5)
     6e8:	02412483          	lw	s1,36(sp)
     6ec:	0047a783          	lw	a5,4(a5)
     6f0:	00000513          	li	a0,0
     6f4:	03010113          	addi	sp,sp,48
     6f8:	00008067          	ret
     6fc:	0005c783          	lbu	a5,0(a1)
     700:	1e078a63          	beqz	a5,0x8f4
     704:	fb010113          	addi	sp,sp,-80
     708:	03512a23          	sw	s5,52(sp)
     70c:	00001ab7          	lui	s5,0x1
     710:	04812423          	sw	s0,72(sp)
     714:	04912223          	sw	s1,68(sp)
     718:	05212023          	sw	s2,64(sp)
     71c:	03312e23          	sw	s3,60(sp)
     720:	03412c23          	sw	s4,56(sp)
     724:	03612823          	sw	s6,48(sp)
     728:	03712623          	sw	s7,44(sp)
     72c:	04112623          	sw	ra,76(sp)
     730:	00058413          	mv	s0,a1
     734:	00050493          	mv	s1,a0
     738:	00060993          	mv	s3,a2
     73c:	00158713          	addi	a4,a1,1
     740:	02500a13          	li	s4,37
     744:	03000b13          	li	s6,48
     748:	02000b93          	li	s7,32
     74c:	6d8a8a93          	addi	s5,s5,1752 # 0x16d8
     750:	00900913          	li	s2,9
     754:	05478463          	beq	a5,s4,0x79c
     758:	00f4a023          	sw	a5,0(s1)
     75c:	00070413          	mv	s0,a4
     760:	00044783          	lbu	a5,0(s0)
     764:	00140713          	addi	a4,s0,1
     768:	fe0796e3          	bnez	a5,0x754
     76c:	04c12083          	lw	ra,76(sp)
     770:	04812403          	lw	s0,72(sp)
     774:	04412483          	lw	s1,68(sp)
     778:	04012903          	lw	s2,64(sp)
     77c:	03c12983          	lw	s3,60(sp)
     780:	03812a03          	lw	s4,56(sp)
     784:	03412a83          	lw	s5,52(sp)
     788:	03012b03          	lw	s6,48(sp)
     78c:	02c12b83          	lw	s7,44(sp)
     790:	00000513          	li	a0,0
     794:	05010113          	addi	sp,sp,80
     798:	00008067          	ret
     79c:	00144583          	lbu	a1,1(s0)
     7a0:	13658663          	beq	a1,s6,0x8cc
     7a4:	00240413          	addi	s0,s0,2
     7a8:	00000793          	li	a5,0
     7ac:	fc0580e3          	beqz	a1,0x76c
     7b0:	fa858613          	addi	a2,a1,-88
     7b4:	0ff67713          	andi	a4,a2,255
     7b8:	00ebea63          	bltu	s7,a4,0x7cc
     7bc:	00271713          	slli	a4,a4,0x2
     7c0:	01570733          	add	a4,a4,s5
     7c4:	00072703          	lw	a4,0(a4)
     7c8:	00070067          	jr	a4
     7cc:	00b4a023          	sw	a1,0(s1)
     7d0:	f91ff06f          	j	0x760
     7d4:	0009a503          	lw	a0,0(s3)
     7d8:	f8b58593          	addi	a1,a1,-117
     7dc:	00078693          	mv	a3,a5
     7e0:	00810613          	addi	a2,sp,8
     7e4:	0015b593          	seqz	a1,a1
     7e8:	a91ff0ef          	jal	ra,0x278
     7ec:	00498993          	addi	s3,s3,4
     7f0:	00050e63          	beqz	a0,0x80c
     7f4:	00810793          	addi	a5,sp,8
     7f8:	00a786b3          	add	a3,a5,a0
     7fc:	0007c703          	lbu	a4,0(a5)
     800:	00178793          	addi	a5,a5,1
     804:	00e4a023          	sw	a4,0(s1)
     808:	fef69ae3          	bne	a3,a5,0x7fc
     80c:	0004a023          	sw	zero,0(s1)
     810:	f51ff06f          	j	0x760
     814:	0009a503          	lw	a0,0(s3)
     818:	00810713          	addi	a4,sp,8
     81c:	00100693          	li	a3,1
     820:	00163613          	seqz	a2,a2
     824:	01000593          	li	a1,16
     828:	821ff0ef          	jal	ra,0x48
     82c:	00498993          	addi	s3,s3,4
     830:	fc050ee3          	beqz	a0,0x80c
     834:	00810793          	addi	a5,sp,8
     838:	00a786b3          	add	a3,a5,a0
     83c:	0007c703          	lbu	a4,0(a5)
     840:	00178793          	addi	a5,a5,1
     844:	00e4a023          	sw	a4,0(s1)
     848:	fed79ae3          	bne	a5,a3,0x83c
     84c:	0004a023          	sw	zero,0(s1)
     850:	f11ff06f          	j	0x760
     854:	00798993          	addi	s3,s3,7
     858:	ff89f993          	andi	s3,s3,-8
     85c:	0009a503          	lw	a0,0(s3)
     860:	0049a583          	lw	a1,4(s3)
     864:	00898993          	addi	s3,s3,8
     868:	381000ef          	jal	ra,0x13e8
     86c:	d91ff0ef          	jal	ra,0x5fc
     870:	ef1ff06f          	j	0x760
     874:	0009a783          	lw	a5,0(s3)
     878:	00000713          	li	a4,0
     87c:	00498993          	addi	s3,s3,4
     880:	0007c683          	lbu	a3,0(a5)
     884:	f80684e3          	beqz	a3,0x80c
     888:	00170713          	addi	a4,a4,1
     88c:	00e786b3          	add	a3,a5,a4
     890:	0006c583          	lbu	a1,0(a3)
     894:	fe059ae3          	bnez	a1,0x888
     898:	0007c703          	lbu	a4,0(a5)
     89c:	00178793          	addi	a5,a5,1
     8a0:	00e4a023          	sw	a4,0(s1)
     8a4:	f6f684e3          	beq	a3,a5,0x80c
     8a8:	0007c703          	lbu	a4,0(a5)
     8ac:	00178793          	addi	a5,a5,1
     8b0:	00e4a023          	sw	a4,0(s1)
     8b4:	fef692e3          	bne	a3,a5,0x898
     8b8:	f55ff06f          	j	0x80c
     8bc:	0009c783          	lbu	a5,0(s3)
     8c0:	00498993          	addi	s3,s3,4
     8c4:	00f4a023          	sw	a5,0(s1)
     8c8:	e99ff06f          	j	0x760
     8cc:	00244783          	lbu	a5,2(s0)
     8d0:	e8078ee3          	beqz	a5,0x76c
     8d4:	fd078793          	addi	a5,a5,-48
     8d8:	0ff7f793          	andi	a5,a5,255
     8dc:	00f93733          	sltu	a4,s2,a5
     8e0:	fff70713          	addi	a4,a4,-1
     8e4:	00344583          	lbu	a1,3(s0)
     8e8:	00e7f7b3          	and	a5,a5,a4
     8ec:	00440413          	addi	s0,s0,4
     8f0:	ebdff06f          	j	0x7ac
     8f4:	00000513          	li	a0,0
     8f8:	00008067          	ret
     8fc:	fc010113          	addi	sp,sp,-64
     900:	02810313          	addi	t1,sp,40
     904:	02c12423          	sw	a2,40(sp)
     908:	00030613          	mv	a2,t1
     90c:	00112e23          	sw	ra,28(sp)
     910:	02d12623          	sw	a3,44(sp)
     914:	02e12823          	sw	a4,48(sp)
     918:	02f12a23          	sw	a5,52(sp)
     91c:	03012c23          	sw	a6,56(sp)
     920:	03112e23          	sw	a7,60(sp)
     924:	00612623          	sw	t1,12(sp)
     928:	dd5ff0ef          	jal	ra,0x6fc
     92c:	01c12083          	lw	ra,28(sp)
     930:	04010113          	addi	sp,sp,64
     934:	00008067          	ret
     938:	fc010113          	addi	sp,sp,-64
     93c:	02410313          	addi	t1,sp,36
     940:	02b12223          	sw	a1,36(sp)
     944:	00050593          	mv	a1,a0
     948:	00010537          	lui	a0,0x10
     94c:	02c12423          	sw	a2,40(sp)
     950:	00450513          	addi	a0,a0,4 # 0x10004
     954:	00030613          	mv	a2,t1
     958:	00112e23          	sw	ra,28(sp)
     95c:	02d12623          	sw	a3,44(sp)
     960:	02e12823          	sw	a4,48(sp)
     964:	02f12a23          	sw	a5,52(sp)
     968:	03012c23          	sw	a6,56(sp)
     96c:	03112e23          	sw	a7,60(sp)
     970:	00612623          	sw	t1,12(sp)
     974:	d89ff0ef          	jal	ra,0x6fc
     978:	01c12083          	lw	ra,28(sp)
     97c:	04010113          	addi	sp,sp,64
     980:	00008067          	ret
     984:	fe010113          	addi	sp,sp,-32
     988:	00112e23          	sw	ra,28(sp)
     98c:	00812c23          	sw	s0,24(sp)
     990:	00912a23          	sw	s1,20(sp)
     994:	01212823          	sw	s2,16(sp)
     998:	01312623          	sw	s3,12(sp)
     99c:	00058913          	mv	s2,a1
     9a0:	00060993          	mv	s3,a2
     9a4:	00050493          	mv	s1,a0
     9a8:	0c9000ef          	jal	ra,0x1270
     9ac:	135000ef          	jal	ra,0x12e0
     9b0:	00050593          	mv	a1,a0
     9b4:	00048513          	mv	a0,s1
     9b8:	44c000ef          	jal	ra,0xe04
     9bc:	00000593          	li	a1,0
     9c0:	00050413          	mv	s0,a0
     9c4:	05c000ef          	jal	ra,0xa20
     9c8:	00a04663          	bgtz	a0,0x9d4
     9cc:	800007b7          	lui	a5,0x80000
     9d0:	0087c433          	xor	s0,a5,s0
     9d4:	000027b7          	lui	a5,0x2
     9d8:	b207a583          	lw	a1,-1248(a5) # 0x1b20
     9dc:	00040513          	mv	a0,s0
     9e0:	0f4000ef          	jal	ra,0xad4
     9e4:	08d000ef          	jal	ra,0x1270
     9e8:	00040593          	mv	a1,s0
     9ec:	00a9a023          	sw	a0,0(s3)
     9f0:	00048513          	mv	a0,s1
     9f4:	410000ef          	jal	ra,0xe04
     9f8:	079000ef          	jal	ra,0x1270
     9fc:	01c12083          	lw	ra,28(sp)
     a00:	01812403          	lw	s0,24(sp)
     a04:	00a92023          	sw	a0,0(s2)
     a08:	01412483          	lw	s1,20(sp)
     a0c:	01012903          	lw	s2,16(sp)
     a10:	00c12983          	lw	s3,12(sp)
     a14:	00000513          	li	a0,0
     a18:	02010113          	addi	sp,sp,32
     a1c:	00008067          	ret
     a20:	01755693          	srli	a3,a0,0x17
     a24:	008007b7          	lui	a5,0x800
     a28:	fff78793          	addi	a5,a5,-1 # 0x7fffff
     a2c:	0175d713          	srli	a4,a1,0x17
     a30:	0ff6f693          	andi	a3,a3,255
     a34:	0ff00813          	li	a6,255
     a38:	00a7f633          	and	a2,a5,a0
     a3c:	0ff77713          	andi	a4,a4,255
     a40:	00b7f7b3          	and	a5,a5,a1
     a44:	01f55513          	srli	a0,a0,0x1f
     a48:	01f5d593          	srli	a1,a1,0x1f
     a4c:	01069863          	bne	a3,a6,0xa5c
     a50:	06060a63          	beqz	a2,0xac4
     a54:	ffe00513          	li	a0,-2
     a58:	00008067          	ret
     a5c:	01071463          	bne	a4,a6,0xa64
     a60:	fe079ae3          	bnez	a5,0xa54
     a64:	06069263          	bnez	a3,0xac8
     a68:	00071463          	bnez	a4,0xa70
     a6c:	04078863          	beqz	a5,0xabc
     a70:	00060c63          	beqz	a2,0xa88
     a74:	00b51463          	bne	a0,a1,0xa7c
     a78:	02d75063          	bge	a4,a3,0xa98
     a7c:	02050c63          	beqz	a0,0xab4
     a80:	fff00513          	li	a0,-1
     a84:	00008067          	ret
     a88:	fff00513          	li	a0,-1
     a8c:	00058a63          	beqz	a1,0xaa0
     a90:	00058513          	mv	a0,a1
     a94:	00008067          	ret
     a98:	00e6d663          	bge	a3,a4,0xaa4
     a9c:	fe0502e3          	beqz	a0,0xa80
     aa0:	00008067          	ret
     aa4:	fcc7ece3          	bltu	a5,a2,0xa7c
     aa8:	fef66ae3          	bltu	a2,a5,0xa9c
     aac:	00000513          	li	a0,0
     ab0:	00008067          	ret
     ab4:	00100513          	li	a0,1
     ab8:	00008067          	ret
     abc:	fe0608e3          	beqz	a2,0xaac
     ac0:	fbdff06f          	j	0xa7c
     ac4:	f8d70ee3          	beq	a4,a3,0xa60
     ac8:	fa0716e3          	bnez	a4,0xa74
     acc:	fa0788e3          	beqz	a5,0xa7c
     ad0:	fa5ff06f          	j	0xa74
     ad4:	fe010113          	addi	sp,sp,-32
     ad8:	01212823          	sw	s2,16(sp)
     adc:	01755913          	srli	s2,a0,0x17
     ae0:	00912a23          	sw	s1,20(sp)
     ae4:	01312623          	sw	s3,12(sp)
     ae8:	01412423          	sw	s4,8(sp)
     aec:	00951493          	slli	s1,a0,0x9
     af0:	00112e23          	sw	ra,28(sp)
     af4:	00812c23          	sw	s0,24(sp)
     af8:	01512223          	sw	s5,4(sp)
     afc:	0ff97913          	andi	s2,s2,255
     b00:	00058a13          	mv	s4,a1
     b04:	0094d493          	srli	s1,s1,0x9
     b08:	01f55993          	srli	s3,a0,0x1f
     b0c:	08090663          	beqz	s2,0xb98
     b10:	0ff00793          	li	a5,255
     b14:	0af90263          	beq	s2,a5,0xbb8
     b18:	00349493          	slli	s1,s1,0x3
     b1c:	040007b7          	lui	a5,0x4000
     b20:	00f4e4b3          	or	s1,s1,a5
     b24:	f8190913          	addi	s2,s2,-127
     b28:	00000a93          	li	s5,0
     b2c:	017a5513          	srli	a0,s4,0x17
     b30:	009a1413          	slli	s0,s4,0x9
     b34:	0ff57513          	andi	a0,a0,255
     b38:	00945413          	srli	s0,s0,0x9
     b3c:	01fa5a13          	srli	s4,s4,0x1f
     b40:	08050c63          	beqz	a0,0xbd8
     b44:	0ff00793          	li	a5,255
     b48:	0af50863          	beq	a0,a5,0xbf8
     b4c:	00341413          	slli	s0,s0,0x3
     b50:	040007b7          	lui	a5,0x4000
     b54:	00f46433          	or	s0,s0,a5
     b58:	f8150513          	addi	a0,a0,-127
     b5c:	00000793          	li	a5,0
     b60:	002a9713          	slli	a4,s5,0x2
     b64:	00f76733          	or	a4,a4,a5
     b68:	00a90933          	add	s2,s2,a0
     b6c:	fff70713          	addi	a4,a4,-1
     b70:	00e00693          	li	a3,14
     b74:	0149c833          	xor	a6,s3,s4
     b78:	00190893          	addi	a7,s2,1
     b7c:	08e6ee63          	bltu	a3,a4,0xc18
     b80:	000016b7          	lui	a3,0x1
     b84:	00271713          	slli	a4,a4,0x2
     b88:	75c68693          	addi	a3,a3,1884 # 0x175c
     b8c:	00d70733          	add	a4,a4,a3
     b90:	00072703          	lw	a4,0(a4)
     b94:	00070067          	jr	a4
     b98:	02048a63          	beqz	s1,0xbcc
     b9c:	00048513          	mv	a0,s1
     ba0:	2a5000ef          	jal	ra,0x1644
     ba4:	ffb50793          	addi	a5,a0,-5
     ba8:	f8a00913          	li	s2,-118
     bac:	00f494b3          	sll	s1,s1,a5
     bb0:	40a90933          	sub	s2,s2,a0
     bb4:	f75ff06f          	j	0xb28
     bb8:	0ff00913          	li	s2,255
     bbc:	00200a93          	li	s5,2
     bc0:	f60486e3          	beqz	s1,0xb2c
     bc4:	00300a93          	li	s5,3
     bc8:	f65ff06f          	j	0xb2c
     bcc:	00000913          	li	s2,0
     bd0:	00100a93          	li	s5,1
     bd4:	f59ff06f          	j	0xb2c
     bd8:	02040a63          	beqz	s0,0xc0c
     bdc:	00040513          	mv	a0,s0
     be0:	265000ef          	jal	ra,0x1644
     be4:	ffb50793          	addi	a5,a0,-5
     be8:	00f41433          	sll	s0,s0,a5
     bec:	f8a00793          	li	a5,-118
     bf0:	40a78533          	sub	a0,a5,a0
     bf4:	f69ff06f          	j	0xb5c
     bf8:	0ff00513          	li	a0,255
     bfc:	00200793          	li	a5,2
     c00:	f60400e3          	beqz	s0,0xb60
     c04:	00300793          	li	a5,3
     c08:	f59ff06f          	j	0xb60
     c0c:	00000513          	li	a0,0
     c10:	00100793          	li	a5,1
     c14:	f4dff06f          	j	0xb60
     c18:	00010f37          	lui	t5,0x10
     c1c:	ffff0e93          	addi	t4,t5,-1 # 0xffff
     c20:	0104df93          	srli	t6,s1,0x10
     c24:	01045793          	srli	a5,s0,0x10
     c28:	01d4f4b3          	and	s1,s1,t4
     c2c:	01d47433          	and	s0,s0,t4
     c30:	00048513          	mv	a0,s1
     c34:	00040593          	mv	a1,s0
     c38:	135000ef          	jal	ra,0x156c
     c3c:	00050313          	mv	t1,a0
     c40:	00078593          	mv	a1,a5
     c44:	00048513          	mv	a0,s1
     c48:	125000ef          	jal	ra,0x156c
     c4c:	00050e13          	mv	t3,a0
     c50:	00040593          	mv	a1,s0
     c54:	000f8513          	mv	a0,t6
     c58:	115000ef          	jal	ra,0x156c
     c5c:	00050713          	mv	a4,a0
     c60:	00078593          	mv	a1,a5
     c64:	000f8513          	mv	a0,t6
     c68:	105000ef          	jal	ra,0x156c
     c6c:	01035793          	srli	a5,t1,0x10
     c70:	00ee0e33          	add	t3,t3,a4
     c74:	01c787b3          	add	a5,a5,t3
     c78:	00e7f463          	bgeu	a5,a4,0xc80
     c7c:	01e50533          	add	a0,a0,t5
     c80:	01d7f733          	and	a4,a5,t4
     c84:	01071713          	slli	a4,a4,0x10
     c88:	01d37333          	and	t1,t1,t4
     c8c:	00670733          	add	a4,a4,t1
     c90:	00671413          	slli	s0,a4,0x6
     c94:	00803433          	snez	s0,s0
     c98:	0107d793          	srli	a5,a5,0x10
     c9c:	01a75713          	srli	a4,a4,0x1a
     ca0:	00e46733          	or	a4,s0,a4
     ca4:	00a78433          	add	s0,a5,a0
     ca8:	00641413          	slli	s0,s0,0x6
     cac:	00e46433          	or	s0,s0,a4
     cb0:	080007b7          	lui	a5,0x8000
     cb4:	00f477b3          	and	a5,s0,a5
     cb8:	08078e63          	beqz	a5,0xd54
     cbc:	00145793          	srli	a5,s0,0x1
     cc0:	00147413          	andi	s0,s0,1
     cc4:	0087e433          	or	s0,a5,s0
     cc8:	07f88713          	addi	a4,a7,127
     ccc:	08e05863          	blez	a4,0xd5c
     cd0:	00747793          	andi	a5,s0,7
     cd4:	00078a63          	beqz	a5,0xce8
     cd8:	00f47793          	andi	a5,s0,15
     cdc:	00400693          	li	a3,4
     ce0:	00d78463          	beq	a5,a3,0xce8
     ce4:	00440413          	addi	s0,s0,4
     ce8:	080007b7          	lui	a5,0x8000
     cec:	00f477b3          	and	a5,s0,a5
     cf0:	00078a63          	beqz	a5,0xd04
     cf4:	f80007b7          	lui	a5,0xf8000
     cf8:	fff78793          	addi	a5,a5,-1 # 0xfffffffff7ffffff
     cfc:	00f47433          	and	s0,s0,a5
     d00:	08088713          	addi	a4,a7,128
     d04:	0fe00793          	li	a5,254
     d08:	00345413          	srli	s0,s0,0x3
     d0c:	0ae7da63          	bge	a5,a4,0xdc0
     d10:	00000413          	li	s0,0
     d14:	0ff00713          	li	a4,255
     d18:	0a80006f          	j	0xdc0
     d1c:	00098813          	mv	a6,s3
     d20:	00048413          	mv	s0,s1
     d24:	000a8793          	mv	a5,s5
     d28:	00200713          	li	a4,2
     d2c:	fee782e3          	beq	a5,a4,0xd10
     d30:	00300713          	li	a4,3
     d34:	08e78063          	beq	a5,a4,0xdb4
     d38:	00100713          	li	a4,1
     d3c:	f8e796e3          	bne	a5,a4,0xcc8
     d40:	00000413          	li	s0,0
     d44:	00000713          	li	a4,0
     d48:	0780006f          	j	0xdc0
     d4c:	000a0813          	mv	a6,s4
     d50:	fd9ff06f          	j	0xd28
     d54:	00090893          	mv	a7,s2
     d58:	f71ff06f          	j	0xcc8
     d5c:	00100793          	li	a5,1
     d60:	40e787b3          	sub	a5,a5,a4
     d64:	01b00713          	li	a4,27
     d68:	fcf74ce3          	blt	a4,a5,0xd40
     d6c:	09e88893          	addi	a7,a7,158
     d70:	00f457b3          	srl	a5,s0,a5
     d74:	01141433          	sll	s0,s0,a7
     d78:	00803433          	snez	s0,s0
     d7c:	0087e433          	or	s0,a5,s0
     d80:	00747793          	andi	a5,s0,7
     d84:	00078a63          	beqz	a5,0xd98
     d88:	00f47793          	andi	a5,s0,15
     d8c:	00400713          	li	a4,4
     d90:	00e78463          	beq	a5,a4,0xd98
     d94:	00440413          	addi	s0,s0,4
     d98:	040007b7          	lui	a5,0x4000
     d9c:	00f477b3          	and	a5,s0,a5
     da0:	00345413          	srli	s0,s0,0x3
     da4:	fa0780e3          	beqz	a5,0xd44
     da8:	00000413          	li	s0,0
     dac:	00100713          	li	a4,1
     db0:	0100006f          	j	0xdc0
     db4:	00400437          	lui	s0,0x400
     db8:	0ff00713          	li	a4,255
     dbc:	00000813          	li	a6,0
     dc0:	01771793          	slli	a5,a4,0x17
     dc4:	00941413          	slli	s0,s0,0x9
     dc8:	7f800737          	lui	a4,0x7f800
     dcc:	00e7f7b3          	and	a5,a5,a4
     dd0:	00945413          	srli	s0,s0,0x9
     dd4:	0087e433          	or	s0,a5,s0
     dd8:	01f81513          	slli	a0,a6,0x1f
     ddc:	01c12083          	lw	ra,28(sp)
     de0:	00a46533          	or	a0,s0,a0
     de4:	01812403          	lw	s0,24(sp)
     de8:	01412483          	lw	s1,20(sp)
     dec:	01012903          	lw	s2,16(sp)
     df0:	00c12983          	lw	s3,12(sp)
     df4:	00812a03          	lw	s4,8(sp)
     df8:	00412a83          	lw	s5,4(sp)
     dfc:	02010113          	addi	sp,sp,32
     e00:	00008067          	ret
     e04:	00800737          	lui	a4,0x800
     e08:	ff010113          	addi	sp,sp,-16
     e0c:	fff70713          	addi	a4,a4,-1 # 0x7fffff
     e10:	0175d613          	srli	a2,a1,0x17
     e14:	00a777b3          	and	a5,a4,a0
     e18:	00812423          	sw	s0,8(sp)
     e1c:	00b77733          	and	a4,a4,a1
     e20:	00912223          	sw	s1,4(sp)
     e24:	01755413          	srli	s0,a0,0x17
     e28:	00112623          	sw	ra,12(sp)
     e2c:	01212023          	sw	s2,0(sp)
     e30:	0ff67613          	andi	a2,a2,255
     e34:	0ff00693          	li	a3,255
     e38:	0ff47413          	andi	s0,s0,255
     e3c:	01f55493          	srli	s1,a0,0x1f
     e40:	00379793          	slli	a5,a5,0x3
     e44:	01f5d593          	srli	a1,a1,0x1f
     e48:	00371713          	slli	a4,a4,0x3
     e4c:	00d61463          	bne	a2,a3,0xe54
     e50:	00071463          	bnez	a4,0xe58
     e54:	0015c593          	xori	a1,a1,1
     e58:	40c406b3          	sub	a3,s0,a2
     e5c:	18959a63          	bne	a1,s1,0xff0
     e60:	0ad05063          	blez	a3,0xf00
     e64:	02061663          	bnez	a2,0xe90
     e68:	18070063          	beqz	a4,0xfe8
     e6c:	fff68613          	addi	a2,a3,-1
     e70:	00061863          	bnez	a2,0xe80
     e74:	00e787b3          	add	a5,a5,a4
     e78:	00100413          	li	s0,1
     e7c:	0500006f          	j	0xecc
     e80:	0ff00593          	li	a1,255
     e84:	02b69063          	bne	a3,a1,0xea4
     e88:	0ff00413          	li	s0,255
     e8c:	1180006f          	j	0xfa4
     e90:	0ff00613          	li	a2,255
     e94:	10c40863          	beq	s0,a2,0xfa4
     e98:	04000637          	lui	a2,0x4000
     e9c:	00c76733          	or	a4,a4,a2
     ea0:	00068613          	mv	a2,a3
     ea4:	01b00593          	li	a1,27
     ea8:	00100693          	li	a3,1
     eac:	00c5ce63          	blt	a1,a2,0xec8
     eb0:	02000693          	li	a3,32
     eb4:	40c686b3          	sub	a3,a3,a2
     eb8:	00c755b3          	srl	a1,a4,a2
     ebc:	00d71733          	sll	a4,a4,a3
     ec0:	00e03733          	snez	a4,a4
     ec4:	00e5e6b3          	or	a3,a1,a4
     ec8:	00d787b3          	add	a5,a5,a3
     ecc:	04000737          	lui	a4,0x4000
     ed0:	00e7f733          	and	a4,a5,a4
     ed4:	0c070863          	beqz	a4,0xfa4
     ed8:	00140413          	addi	s0,s0,1 # 0x400001
     edc:	0ff00713          	li	a4,255
     ee0:	30e40263          	beq	s0,a4,0x11e4
     ee4:	7e000737          	lui	a4,0x7e000
     ee8:	0017f693          	andi	a3,a5,1
     eec:	fff70713          	addi	a4,a4,-1 # 0x7dffffff
     ef0:	0017d793          	srli	a5,a5,0x1
     ef4:	00e7f7b3          	and	a5,a5,a4
     ef8:	00d7e7b3          	or	a5,a5,a3
     efc:	0a80006f          	j	0xfa4
     f00:	06068663          	beqz	a3,0xf6c
     f04:	408606b3          	sub	a3,a2,s0
     f08:	02041063          	bnez	s0,0xf28
     f0c:	2c078263          	beqz	a5,0x11d0
     f10:	fff68593          	addi	a1,a3,-1
     f14:	f60580e3          	beqz	a1,0xe74
     f18:	0ff00513          	li	a0,255
     f1c:	02a69063          	bne	a3,a0,0xf3c
     f20:	00070793          	mv	a5,a4
     f24:	f65ff06f          	j	0xe88
     f28:	0ff00593          	li	a1,255
     f2c:	feb60ae3          	beq	a2,a1,0xf20
     f30:	040005b7          	lui	a1,0x4000
     f34:	00b7e7b3          	or	a5,a5,a1
     f38:	00068593          	mv	a1,a3
     f3c:	01b00513          	li	a0,27
     f40:	00100693          	li	a3,1
     f44:	00b54e63          	blt	a0,a1,0xf60
     f48:	02000693          	li	a3,32
     f4c:	40b686b3          	sub	a3,a3,a1
     f50:	00b7d533          	srl	a0,a5,a1
     f54:	00d797b3          	sll	a5,a5,a3
     f58:	00f037b3          	snez	a5,a5
     f5c:	00f566b3          	or	a3,a0,a5
     f60:	00e687b3          	add	a5,a3,a4
     f64:	00060413          	mv	s0,a2
     f68:	f65ff06f          	j	0xecc
     f6c:	00140693          	addi	a3,s0,1
     f70:	0fe6f613          	andi	a2,a3,254
     f74:	06061263          	bnez	a2,0xfd8
     f78:	04041463          	bnez	s0,0xfc0
     f7c:	24078e63          	beqz	a5,0x11d8
     f80:	02070263          	beqz	a4,0xfa4
     f84:	00e787b3          	add	a5,a5,a4
     f88:	04000737          	lui	a4,0x4000
     f8c:	00e7f733          	and	a4,a5,a4
     f90:	00070a63          	beqz	a4,0xfa4
     f94:	fc000737          	lui	a4,0xfc000
     f98:	fff70713          	addi	a4,a4,-1 # 0xfffffffffbffffff
     f9c:	00e7f7b3          	and	a5,a5,a4
     fa0:	00100413          	li	s0,1
     fa4:	0077f713          	andi	a4,a5,7
     fa8:	24070063          	beqz	a4,0x11e8
     fac:	00f7f713          	andi	a4,a5,15
     fb0:	00400693          	li	a3,4
     fb4:	22d70a63          	beq	a4,a3,0x11e8
     fb8:	00478793          	addi	a5,a5,4 # 0x4000004
     fbc:	22c0006f          	j	0x11e8
     fc0:	f60780e3          	beqz	a5,0xf20
     fc4:	ec0702e3          	beqz	a4,0xe88
     fc8:	00000493          	li	s1,0
     fcc:	020007b7          	lui	a5,0x2000
     fd0:	0ff00413          	li	s0,255
     fd4:	2140006f          	j	0x11e8
     fd8:	0ff00613          	li	a2,255
     fdc:	20c68263          	beq	a3,a2,0x11e0
     fe0:	00e787b3          	add	a5,a5,a4
     fe4:	0017d793          	srli	a5,a5,0x1
     fe8:	00068413          	mv	s0,a3
     fec:	fb9ff06f          	j	0xfa4
     ff0:	08d05063          	blez	a3,0x1070
     ff4:	06061263          	bnez	a2,0x1058
     ff8:	fe0708e3          	beqz	a4,0xfe8
     ffc:	fff68613          	addi	a2,a3,-1
    1000:	00061863          	bnez	a2,0x1010
    1004:	40e787b3          	sub	a5,a5,a4
    1008:	00100413          	li	s0,1
    100c:	0340006f          	j	0x1040
    1010:	0ff00593          	li	a1,255
    1014:	e6b68ae3          	beq	a3,a1,0xe88
    1018:	01b00593          	li	a1,27
    101c:	00100693          	li	a3,1
    1020:	00c5ce63          	blt	a1,a2,0x103c
    1024:	02000693          	li	a3,32
    1028:	40c686b3          	sub	a3,a3,a2
    102c:	00c755b3          	srl	a1,a4,a2
    1030:	00d71733          	sll	a4,a4,a3
    1034:	00e03733          	snez	a4,a4
    1038:	00e5e6b3          	or	a3,a1,a4
    103c:	40d787b3          	sub	a5,a5,a3
    1040:	04000937          	lui	s2,0x4000
    1044:	0127f733          	and	a4,a5,s2
    1048:	f4070ee3          	beqz	a4,0xfa4
    104c:	fff90913          	addi	s2,s2,-1 # 0x3ffffff
    1050:	0127f933          	and	s2,a5,s2
    1054:	1180006f          	j	0x116c
    1058:	0ff00613          	li	a2,255
    105c:	f4c404e3          	beq	s0,a2,0xfa4
    1060:	04000637          	lui	a2,0x4000
    1064:	00c76733          	or	a4,a4,a2
    1068:	00068613          	mv	a2,a3
    106c:	fadff06f          	j	0x1018
    1070:	08068063          	beqz	a3,0x10f0
    1074:	408606b3          	sub	a3,a2,s0
    1078:	02041863          	bnez	s0,0x10a8
    107c:	1e078063          	beqz	a5,0x125c
    1080:	fff68513          	addi	a0,a3,-1
    1084:	00051863          	bnez	a0,0x1094
    1088:	40f707b3          	sub	a5,a4,a5
    108c:	00058493          	mv	s1,a1
    1090:	f79ff06f          	j	0x1008
    1094:	0ff00813          	li	a6,255
    1098:	03069263          	bne	a3,a6,0x10bc
    109c:	00070793          	mv	a5,a4
    10a0:	0ff00413          	li	s0,255
    10a4:	06c0006f          	j	0x1110
    10a8:	0ff00513          	li	a0,255
    10ac:	fea608e3          	beq	a2,a0,0x109c
    10b0:	04000537          	lui	a0,0x4000
    10b4:	00a7e7b3          	or	a5,a5,a0
    10b8:	00068513          	mv	a0,a3
    10bc:	01b00813          	li	a6,27
    10c0:	00100693          	li	a3,1
    10c4:	00a84e63          	blt	a6,a0,0x10e0
    10c8:	02000693          	li	a3,32
    10cc:	40a686b3          	sub	a3,a3,a0
    10d0:	00a7d833          	srl	a6,a5,a0
    10d4:	00d797b3          	sll	a5,a5,a3
    10d8:	00f037b3          	snez	a5,a5
    10dc:	00f866b3          	or	a3,a6,a5
    10e0:	40d707b3          	sub	a5,a4,a3
    10e4:	00060413          	mv	s0,a2
    10e8:	00058493          	mv	s1,a1
    10ec:	f55ff06f          	j	0x1040
    10f0:	00140693          	addi	a3,s0,1
    10f4:	0fe6f693          	andi	a3,a3,254
    10f8:	04069e63          	bnez	a3,0x1154
    10fc:	04041263          	bnez	s0,0x1140
    1100:	00079c63          	bnez	a5,0x1118
    1104:	00000493          	li	s1,0
    1108:	0e070063          	beqz	a4,0x11e8
    110c:	00070793          	mv	a5,a4
    1110:	00058493          	mv	s1,a1
    1114:	e91ff06f          	j	0xfa4
    1118:	e80706e3          	beqz	a4,0xfa4
    111c:	40e786b3          	sub	a3,a5,a4
    1120:	04000637          	lui	a2,0x4000
    1124:	00c6f633          	and	a2,a3,a2
    1128:	40f707b3          	sub	a5,a4,a5
    112c:	fe0612e3          	bnez	a2,0x1110
    1130:	00000793          	li	a5,0
    1134:	08068063          	beqz	a3,0x11b4
    1138:	00068793          	mv	a5,a3
    113c:	e69ff06f          	j	0xfa4
    1140:	e80792e3          	bnez	a5,0xfc4
    1144:	e80702e3          	beqz	a4,0xfc8
    1148:	00070793          	mv	a5,a4
    114c:	00058493          	mv	s1,a1
    1150:	d39ff06f          	j	0xe88
    1154:	40e78933          	sub	s2,a5,a4
    1158:	040006b7          	lui	a3,0x4000
    115c:	00d976b3          	and	a3,s2,a3
    1160:	04068463          	beqz	a3,0x11a8
    1164:	40f70933          	sub	s2,a4,a5
    1168:	00058493          	mv	s1,a1
    116c:	00090513          	mv	a0,s2
    1170:	4d4000ef          	jal	ra,0x1644
    1174:	ffb50513          	addi	a0,a0,-5 # 0x3fffffb
    1178:	00a91933          	sll	s2,s2,a0
    117c:	04854063          	blt	a0,s0,0x11bc
    1180:	40850533          	sub	a0,a0,s0
    1184:	00150513          	addi	a0,a0,1
    1188:	02000413          	li	s0,32
    118c:	00a957b3          	srl	a5,s2,a0
    1190:	40a40533          	sub	a0,s0,a0
    1194:	00a91933          	sll	s2,s2,a0
    1198:	01203933          	snez	s2,s2
    119c:	0127e7b3          	or	a5,a5,s2
    11a0:	00000413          	li	s0,0
    11a4:	e01ff06f          	j	0xfa4
    11a8:	fc0912e3          	bnez	s2,0x116c
    11ac:	00000793          	li	a5,0
    11b0:	00000413          	li	s0,0
    11b4:	00000493          	li	s1,0
    11b8:	0300006f          	j	0x11e8
    11bc:	fc0007b7          	lui	a5,0xfc000
    11c0:	fff78793          	addi	a5,a5,-1 # 0xfffffffffbffffff
    11c4:	40a40433          	sub	s0,s0,a0
    11c8:	00f977b3          	and	a5,s2,a5
    11cc:	dd9ff06f          	j	0xfa4
    11d0:	00070793          	mv	a5,a4
    11d4:	e15ff06f          	j	0xfe8
    11d8:	00070793          	mv	a5,a4
    11dc:	dc9ff06f          	j	0xfa4
    11e0:	0ff00413          	li	s0,255
    11e4:	00000793          	li	a5,0
    11e8:	04000737          	lui	a4,0x4000
    11ec:	00e7f733          	and	a4,a5,a4
    11f0:	00070e63          	beqz	a4,0x120c
    11f4:	00140413          	addi	s0,s0,1
    11f8:	0ff00713          	li	a4,255
    11fc:	06e40663          	beq	s0,a4,0x1268
    1200:	fc000737          	lui	a4,0xfc000
    1204:	fff70713          	addi	a4,a4,-1 # 0xfffffffffbffffff
    1208:	00e7f7b3          	and	a5,a5,a4
    120c:	0ff00713          	li	a4,255
    1210:	0037d793          	srli	a5,a5,0x3
    1214:	00e41863          	bne	s0,a4,0x1224
    1218:	00078663          	beqz	a5,0x1224
    121c:	004007b7          	lui	a5,0x400
    1220:	00000493          	li	s1,0
    1224:	7f800537          	lui	a0,0x7f800
    1228:	01741413          	slli	s0,s0,0x17
    122c:	00979793          	slli	a5,a5,0x9
    1230:	00a47433          	and	s0,s0,a0
    1234:	0097d793          	srli	a5,a5,0x9
    1238:	00c12083          	lw	ra,12(sp)
    123c:	00f467b3          	or	a5,s0,a5
    1240:	00812403          	lw	s0,8(sp)
    1244:	01f49513          	slli	a0,s1,0x1f
    1248:	00012903          	lw	s2,0(sp)
    124c:	00412483          	lw	s1,4(sp)
    1250:	00a7e533          	or	a0,a5,a0
    1254:	01010113          	addi	sp,sp,16
    1258:	00008067          	ret
    125c:	00070793          	mv	a5,a4
    1260:	00068413          	mv	s0,a3
    1264:	eadff06f          	j	0x1110
    1268:	00000793          	li	a5,0
    126c:	fa1ff06f          	j	0x120c
    1270:	00800637          	lui	a2,0x800
    1274:	01755713          	srli	a4,a0,0x17
    1278:	fff60793          	addi	a5,a2,-1 # 0x7fffff
    127c:	0ff77713          	andi	a4,a4,255
    1280:	07e00593          	li	a1,126
    1284:	00a7f7b3          	and	a5,a5,a0
    1288:	01f55693          	srli	a3,a0,0x1f
    128c:	04e5d663          	bge	a1,a4,0x12d8
    1290:	09d00593          	li	a1,157
    1294:	00e5da63          	bge	a1,a4,0x12a8
    1298:	80000537          	lui	a0,0x80000
    129c:	fff54513          	not	a0,a0
    12a0:	00a68533          	add	a0,a3,a0
    12a4:	00008067          	ret
    12a8:	00c7e533          	or	a0,a5,a2
    12ac:	09500793          	li	a5,149
    12b0:	00e7dc63          	bge	a5,a4,0x12c8
    12b4:	f6a70713          	addi	a4,a4,-150
    12b8:	00e51533          	sll	a0,a0,a4
    12bc:	02068063          	beqz	a3,0x12dc
    12c0:	40a00533          	neg	a0,a0
    12c4:	00008067          	ret
    12c8:	09600793          	li	a5,150
    12cc:	40e78733          	sub	a4,a5,a4
    12d0:	00e55533          	srl	a0,a0,a4
    12d4:	fe9ff06f          	j	0x12bc
    12d8:	00000513          	li	a0,0
    12dc:	00008067          	ret
    12e0:	ff010113          	addi	sp,sp,-16
    12e4:	00112623          	sw	ra,12(sp)
    12e8:	00812423          	sw	s0,8(sp)
    12ec:	00912223          	sw	s1,4(sp)
    12f0:	0e050663          	beqz	a0,0x13dc
    12f4:	41f55793          	srai	a5,a0,0x1f
    12f8:	00a7c433          	xor	s0,a5,a0
    12fc:	40f40433          	sub	s0,s0,a5
    1300:	01f55493          	srli	s1,a0,0x1f
    1304:	00040513          	mv	a0,s0
    1308:	33c000ef          	jal	ra,0x1644
    130c:	09e00793          	li	a5,158
    1310:	00050713          	mv	a4,a0
    1314:	40a78533          	sub	a0,a5,a0
    1318:	09600793          	li	a5,150
    131c:	04a7c063          	blt	a5,a0,0x135c
    1320:	00800793          	li	a5,8
    1324:	00e7d663          	bge	a5,a4,0x1330
    1328:	ff870713          	addi	a4,a4,-8
    132c:	00e41433          	sll	s0,s0,a4
    1330:	00941413          	slli	s0,s0,0x9
    1334:	01751513          	slli	a0,a0,0x17
    1338:	00945413          	srli	s0,s0,0x9
    133c:	00856433          	or	s0,a0,s0
    1340:	01f49513          	slli	a0,s1,0x1f
    1344:	00c12083          	lw	ra,12(sp)
    1348:	00a46533          	or	a0,s0,a0
    134c:	00812403          	lw	s0,8(sp)
    1350:	00412483          	lw	s1,4(sp)
    1354:	01010113          	addi	sp,sp,16
    1358:	00008067          	ret
    135c:	09900793          	li	a5,153
    1360:	02a7d063          	bge	a5,a0,0x1380
    1364:	00500793          	li	a5,5
    1368:	40e787b3          	sub	a5,a5,a4
    136c:	01b70693          	addi	a3,a4,27
    1370:	00f457b3          	srl	a5,s0,a5
    1374:	00d41433          	sll	s0,s0,a3
    1378:	00803433          	snez	s0,s0
    137c:	0087e433          	or	s0,a5,s0
    1380:	00500793          	li	a5,5
    1384:	00e7d663          	bge	a5,a4,0x1390
    1388:	ffb70793          	addi	a5,a4,-5
    138c:	00f41433          	sll	s0,s0,a5
    1390:	fc0006b7          	lui	a3,0xfc000
    1394:	fff68693          	addi	a3,a3,-1 # 0xfffffffffbffffff
    1398:	00747793          	andi	a5,s0,7
    139c:	00d476b3          	and	a3,s0,a3
    13a0:	00078a63          	beqz	a5,0x13b4
    13a4:	00f47413          	andi	s0,s0,15
    13a8:	00400793          	li	a5,4
    13ac:	00f40463          	beq	s0,a5,0x13b4
    13b0:	00468693          	addi	a3,a3,4
    13b4:	040007b7          	lui	a5,0x4000
    13b8:	00f6f7b3          	and	a5,a3,a5
    13bc:	00078c63          	beqz	a5,0x13d4
    13c0:	fc0007b7          	lui	a5,0xfc000
    13c4:	fff78793          	addi	a5,a5,-1 # 0xfffffffffbffffff
    13c8:	00f6f6b3          	and	a3,a3,a5
    13cc:	09f00793          	li	a5,159
    13d0:	40e78533          	sub	a0,a5,a4
    13d4:	0036d413          	srli	s0,a3,0x3
    13d8:	f59ff06f          	j	0x1330
    13dc:	00000493          	li	s1,0
    13e0:	00000413          	li	s0,0
    13e4:	f4dff06f          	j	0x1330
    13e8:	0145d613          	srli	a2,a1,0x14
    13ec:	7ff67613          	andi	a2,a2,2047
    13f0:	00c59693          	slli	a3,a1,0xc
    13f4:	00160713          	addi	a4,a2,1
    13f8:	0096d793          	srli	a5,a3,0x9
    13fc:	7fe77713          	andi	a4,a4,2046
    1400:	01d55693          	srli	a3,a0,0x1d
    1404:	00f6e6b3          	or	a3,a3,a5
    1408:	01f5d593          	srli	a1,a1,0x1f
    140c:	00351793          	slli	a5,a0,0x3
    1410:	0a070663          	beqz	a4,0x14bc
    1414:	c8060713          	addi	a4,a2,-896
    1418:	0fe00813          	li	a6,254
    141c:	0ce84263          	blt	a6,a4,0x14e0
    1420:	08e04063          	bgtz	a4,0x14a0
    1424:	fe900513          	li	a0,-23
    1428:	12a74063          	blt	a4,a0,0x1548
    142c:	00800537          	lui	a0,0x800
    1430:	00a6e6b3          	or	a3,a3,a0
    1434:	01e00513          	li	a0,30
    1438:	40e50533          	sub	a0,a0,a4
    143c:	01f00813          	li	a6,31
    1440:	02a84863          	blt	a6,a0,0x1470
    1444:	c8260613          	addi	a2,a2,-894
    1448:	00a7d533          	srl	a0,a5,a0
    144c:	00c797b3          	sll	a5,a5,a2
    1450:	00f037b3          	snez	a5,a5
    1454:	00c696b3          	sll	a3,a3,a2
    1458:	00d7e7b3          	or	a5,a5,a3
    145c:	00f567b3          	or	a5,a0,a5
    1460:	00000713          	li	a4,0
    1464:	0077f693          	andi	a3,a5,7
    1468:	08068063          	beqz	a3,0x14e8
    146c:	0e40006f          	j	0x1550
    1470:	ffe00813          	li	a6,-2
    1474:	40e80733          	sub	a4,a6,a4
    1478:	02000893          	li	a7,32
    147c:	00e6d733          	srl	a4,a3,a4
    1480:	00000813          	li	a6,0
    1484:	01150663          	beq	a0,a7,0x1490
    1488:	ca260613          	addi	a2,a2,-862
    148c:	00c69833          	sll	a6,a3,a2
    1490:	00f867b3          	or	a5,a6,a5
    1494:	00f037b3          	snez	a5,a5
    1498:	00f767b3          	or	a5,a4,a5
    149c:	fc5ff06f          	j	0x1460
    14a0:	00651513          	slli	a0,a0,0x6
    14a4:	00a03533          	snez	a0,a0
    14a8:	00369693          	slli	a3,a3,0x3
    14ac:	01d7d793          	srli	a5,a5,0x1d
    14b0:	00d566b3          	or	a3,a0,a3
    14b4:	00f6e7b3          	or	a5,a3,a5
    14b8:	fadff06f          	j	0x1464
    14bc:	00f6e7b3          	or	a5,a3,a5
    14c0:	00061663          	bnez	a2,0x14cc
    14c4:	00f037b3          	snez	a5,a5
    14c8:	f99ff06f          	j	0x1460
    14cc:	0ff00713          	li	a4,255
    14d0:	00078c63          	beqz	a5,0x14e8
    14d4:	00369693          	slli	a3,a3,0x3
    14d8:	020007b7          	lui	a5,0x2000
    14dc:	fd9ff06f          	j	0x14b4
    14e0:	00000793          	li	a5,0
    14e4:	0ff00713          	li	a4,255
    14e8:	040006b7          	lui	a3,0x4000
    14ec:	00d7f6b3          	and	a3,a5,a3
    14f0:	00068e63          	beqz	a3,0x150c
    14f4:	00170713          	addi	a4,a4,1
    14f8:	0ff00693          	li	a3,255
    14fc:	06d70463          	beq	a4,a3,0x1564
    1500:	fc0006b7          	lui	a3,0xfc000
    1504:	fff68693          	addi	a3,a3,-1 # 0xfffffffffbffffff
    1508:	00d7f7b3          	and	a5,a5,a3
    150c:	0ff00693          	li	a3,255
    1510:	0037d793          	srli	a5,a5,0x3
    1514:	00d71863          	bne	a4,a3,0x1524
    1518:	00078663          	beqz	a5,0x1524
    151c:	004007b7          	lui	a5,0x400
    1520:	00000593          	li	a1,0
    1524:	7f800537          	lui	a0,0x7f800
    1528:	01771713          	slli	a4,a4,0x17
    152c:	00979793          	slli	a5,a5,0x9
    1530:	00a77733          	and	a4,a4,a0
    1534:	0097d793          	srli	a5,a5,0x9
    1538:	00f767b3          	or	a5,a4,a5
    153c:	01f59513          	slli	a0,a1,0x1f
    1540:	00a7e533          	or	a0,a5,a0
    1544:	00008067          	ret
    1548:	00100793          	li	a5,1
    154c:	00000713          	li	a4,0
    1550:	00f7f693          	andi	a3,a5,15
    1554:	00400613          	li	a2,4
    1558:	f8c688e3          	beq	a3,a2,0x14e8
    155c:	00478793          	addi	a5,a5,4 # 0x400004
    1560:	f89ff06f          	j	0x14e8
    1564:	00000793          	li	a5,0
    1568:	fa5ff06f          	j	0x150c
    156c:	00050613          	mv	a2,a0
    1570:	00000513          	li	a0,0
    1574:	0015f693          	andi	a3,a1,1
    1578:	00068463          	beqz	a3,0x1580
    157c:	00c50533          	add	a0,a0,a2
    1580:	0015d593          	srli	a1,a1,0x1
    1584:	00161613          	slli	a2,a2,0x1
    1588:	fe0596e3          	bnez	a1,0x1574
    158c:	00008067          	ret
    1590:	06054063          	bltz	a0,0x15f0
    1594:	0605c663          	bltz	a1,0x1600
    1598:	00058613          	mv	a2,a1
    159c:	00050593          	mv	a1,a0
    15a0:	fff00513          	li	a0,-1
    15a4:	02060c63          	beqz	a2,0x15dc
    15a8:	00100693          	li	a3,1
    15ac:	00b67a63          	bgeu	a2,a1,0x15c0
    15b0:	00c05863          	blez	a2,0x15c0
    15b4:	00161613          	slli	a2,a2,0x1
    15b8:	00169693          	slli	a3,a3,0x1
    15bc:	feb66ae3          	bltu	a2,a1,0x15b0
    15c0:	00000513          	li	a0,0
    15c4:	00c5e663          	bltu	a1,a2,0x15d0
    15c8:	40c585b3          	sub	a1,a1,a2
    15cc:	00d56533          	or	a0,a0,a3
    15d0:	0016d693          	srli	a3,a3,0x1
    15d4:	00165613          	srli	a2,a2,0x1
    15d8:	fe0696e3          	bnez	a3,0x15c4
    15dc:	00008067          	ret
    15e0:	00008293          	mv	t0,ra
    15e4:	fb5ff0ef          	jal	ra,0x1598
    15e8:	00058513          	mv	a0,a1
    15ec:	00028067          	jr	t0
    15f0:	40a00533          	neg	a0,a0
    15f4:	00b04863          	bgtz	a1,0x1604
    15f8:	40b005b3          	neg	a1,a1
    15fc:	f9dff06f          	j	0x1598
    1600:	40b005b3          	neg	a1,a1
    1604:	00008293          	mv	t0,ra
    1608:	f91ff0ef          	jal	ra,0x1598
    160c:	40a00533          	neg	a0,a0
    1610:	00028067          	jr	t0
    1614:	00008293          	mv	t0,ra
    1618:	0005ca63          	bltz	a1,0x162c
    161c:	00054c63          	bltz	a0,0x1634
    1620:	f79ff0ef          	jal	ra,0x1598
    1624:	00058513          	mv	a0,a1
    1628:	00028067          	jr	t0
    162c:	40b005b3          	neg	a1,a1
    1630:	fe0558e3          	bgez	a0,0x1620
    1634:	40a00533          	neg	a0,a0
    1638:	f61ff0ef          	jal	ra,0x1598
    163c:	40b00533          	neg	a0,a1
    1640:	00028067          	jr	t0
    1644:	000107b7          	lui	a5,0x10
    1648:	02f57a63          	bgeu	a0,a5,0x167c
    164c:	0ff00793          	li	a5,255
    1650:	00a7b7b3          	sltu	a5,a5,a0
    1654:	00379793          	slli	a5,a5,0x3
    1658:	00001737          	lui	a4,0x1
    165c:	02000693          	li	a3,32
    1660:	40f686b3          	sub	a3,a3,a5
    1664:	00f55533          	srl	a0,a0,a5
    1668:	79870793          	addi	a5,a4,1944 # 0x1798
    166c:	00a78533          	add	a0,a5,a0
    1670:	00054503          	lbu	a0,0(a0) # 0x7f800000
    1674:	40a68533          	sub	a0,a3,a0
    1678:	00008067          	ret
    167c:	01000737          	lui	a4,0x1000
    1680:	01000793          	li	a5,16
    1684:	fce56ae3          	bltu	a0,a4,0x1658
    1688:	01800793          	li	a5,24
    168c:	fcdff06f          	j	0x1658
    1690:	000027b7          	lui	a5,0x2
    1694:	b247a503          	lw	a0,-1244(a5) # 0x1b24
    1698:	fe010113          	addi	sp,sp,-32
    169c:	00c10613          	addi	a2,sp,12
    16a0:	00810593          	addi	a1,sp,8
    16a4:	00112e23          	sw	ra,28(sp)
    16a8:	eb9fe0ef          	jal	ra,0x560
    16ac:	00c12603          	lw	a2,12(sp)
    16b0:	00812583          	lw	a1,8(sp)
    16b4:	00002537          	lui	a0,0x2
    16b8:	89850513          	addi	a0,a0,-1896 # 0x1898
    16bc:	a7cff0ef          	jal	ra,0x938
    16c0:	01c12083          	lw	ra,28(sp)
    16c4:	00000513          	li	a0,0
    16c8:	02010113          	addi	sp,sp,32
    16cc:	00008067          	ret
    16d0:	fffc                	sd	a5,248(a5)
    16d2:	0000                	unimp
    16d4:	0020                	addi	s0,sp,8
    16d6:	0000                	unimp
    16d8:	0814                	addi	a3,sp,16
    16da:	0000                	unimp
    16dc:	07cc                	addi	a1,sp,964
    16de:	0000                	unimp
    16e0:	07cc                	addi	a1,sp,964
    16e2:	0000                	unimp
    16e4:	07cc                	addi	a1,sp,964
    16e6:	0000                	unimp
    16e8:	07cc                	addi	a1,sp,964
    16ea:	0000                	unimp
    16ec:	07cc                	addi	a1,sp,964
    16ee:	0000                	unimp
    16f0:	07cc                	addi	a1,sp,964
    16f2:	0000                	unimp
    16f4:	07cc                	addi	a1,sp,964
    16f6:	0000                	unimp
    16f8:	07cc                	addi	a1,sp,964
    16fa:	0000                	unimp
    16fc:	07cc                	addi	a1,sp,964
    16fe:	0000                	unimp
    1700:	07cc                	addi	a1,sp,964
    1702:	0000                	unimp
    1704:	08bc                	addi	a5,sp,88
    1706:	0000                	unimp
    1708:	07d4                	addi	a3,sp,964
    170a:	0000                	unimp
    170c:	07cc                	addi	a1,sp,964
    170e:	0000                	unimp
    1710:	0854                	addi	a3,sp,20
    1712:	0000                	unimp
    1714:	07cc                	addi	a1,sp,964
    1716:	0000                	unimp
    1718:	07cc                	addi	a1,sp,964
    171a:	0000                	unimp
    171c:	07cc                	addi	a1,sp,964
    171e:	0000                	unimp
    1720:	07cc                	addi	a1,sp,964
    1722:	0000                	unimp
    1724:	07cc                	addi	a1,sp,964
    1726:	0000                	unimp
    1728:	07cc                	addi	a1,sp,964
    172a:	0000                	unimp
    172c:	07cc                	addi	a1,sp,964
    172e:	0000                	unimp
    1730:	07cc                	addi	a1,sp,964
    1732:	0000                	unimp
    1734:	07cc                	addi	a1,sp,964
    1736:	0000                	unimp
    1738:	07cc                	addi	a1,sp,964
    173a:	0000                	unimp
    173c:	07cc                	addi	a1,sp,964
    173e:	0000                	unimp
    1740:	07cc                	addi	a1,sp,964
    1742:	0000                	unimp
    1744:	0874                	addi	a3,sp,28
    1746:	0000                	unimp
    1748:	07cc                	addi	a1,sp,964
    174a:	0000                	unimp
    174c:	07d4                	addi	a3,sp,964
    174e:	0000                	unimp
    1750:	07cc                	addi	a1,sp,964
    1752:	0000                	unimp
    1754:	07cc                	addi	a1,sp,964
    1756:	0000                	unimp
    1758:	0814                	addi	a3,sp,16
    175a:	0000                	unimp
    175c:	0d28                	addi	a0,sp,664
    175e:	0000                	unimp
    1760:	0d28                	addi	a0,sp,664
    1762:	0000                	unimp
    1764:	0d4c                	addi	a1,sp,660
    1766:	0000                	unimp
    1768:	0d20                	addi	s0,sp,664
    176a:	0000                	unimp
    176c:	0d20                	addi	s0,sp,664
    176e:	0000                	unimp
    1770:	0db4                	addi	a3,sp,728
    1772:	0000                	unimp
    1774:	0d4c                	addi	a1,sp,660
    1776:	0000                	unimp
    1778:	0d20                	addi	s0,sp,664
    177a:	0000                	unimp
    177c:	0db4                	addi	a3,sp,728
    177e:	0000                	unimp
    1780:	0d20                	addi	s0,sp,664
    1782:	0000                	unimp
    1784:	0d4c                	addi	a1,sp,660
    1786:	0000                	unimp
    1788:	0d1c                	addi	a5,sp,656
    178a:	0000                	unimp
    178c:	0d1c                	addi	a5,sp,656
    178e:	0000                	unimp
    1790:	0d1c                	addi	a5,sp,656
    1792:	0000                	unimp
    1794:	0db4                	addi	a3,sp,728
    1796:	0000                	unimp
    1798:	0100                	addi	s0,sp,128
    179a:	0202                	c.slli64	tp
    179c:	03030303          	lb	t1,48(t1)
    17a0:	0404                	addi	s1,sp,512
    17a2:	0404                	addi	s1,sp,512
    17a4:	0404                	addi	s1,sp,512
    17a6:	0404                	addi	s1,sp,512
    17a8:	0505                	addi	a0,a0,1
    17aa:	0505                	addi	a0,a0,1
    17ac:	0505                	addi	a0,a0,1
    17ae:	0505                	addi	a0,a0,1
    17b0:	0505                	addi	a0,a0,1
    17b2:	0505                	addi	a0,a0,1
    17b4:	0505                	addi	a0,a0,1
    17b6:	0505                	addi	a0,a0,1
    17b8:	0606                	slli	a2,a2,0x1
    17ba:	0606                	slli	a2,a2,0x1
    17bc:	0606                	slli	a2,a2,0x1
    17be:	0606                	slli	a2,a2,0x1
    17c0:	0606                	slli	a2,a2,0x1
    17c2:	0606                	slli	a2,a2,0x1
    17c4:	0606                	slli	a2,a2,0x1
    17c6:	0606                	slli	a2,a2,0x1
    17c8:	0606                	slli	a2,a2,0x1
    17ca:	0606                	slli	a2,a2,0x1
    17cc:	0606                	slli	a2,a2,0x1
    17ce:	0606                	slli	a2,a2,0x1
    17d0:	0606                	slli	a2,a2,0x1
    17d2:	0606                	slli	a2,a2,0x1
    17d4:	0606                	slli	a2,a2,0x1
    17d6:	0606                	slli	a2,a2,0x1
    17d8:	07070707          	0x7070707
    17dc:	07070707          	0x7070707
    17e0:	07070707          	0x7070707
    17e4:	07070707          	0x7070707
    17e8:	07070707          	0x7070707
    17ec:	07070707          	0x7070707
    17f0:	07070707          	0x7070707
    17f4:	07070707          	0x7070707
    17f8:	07070707          	0x7070707
    17fc:	07070707          	0x7070707
    1800:	07070707          	0x7070707
    1804:	07070707          	0x7070707
    1808:	07070707          	0x7070707
    180c:	07070707          	0x7070707
    1810:	07070707          	0x7070707
    1814:	07070707          	0x7070707
    1818:	0808                	addi	a0,sp,16
    181a:	0808                	addi	a0,sp,16
    181c:	0808                	addi	a0,sp,16
    181e:	0808                	addi	a0,sp,16
    1820:	0808                	addi	a0,sp,16
    1822:	0808                	addi	a0,sp,16
    1824:	0808                	addi	a0,sp,16
    1826:	0808                	addi	a0,sp,16
    1828:	0808                	addi	a0,sp,16
    182a:	0808                	addi	a0,sp,16
    182c:	0808                	addi	a0,sp,16
    182e:	0808                	addi	a0,sp,16
    1830:	0808                	addi	a0,sp,16
    1832:	0808                	addi	a0,sp,16
    1834:	0808                	addi	a0,sp,16
    1836:	0808                	addi	a0,sp,16
    1838:	0808                	addi	a0,sp,16
    183a:	0808                	addi	a0,sp,16
    183c:	0808                	addi	a0,sp,16
    183e:	0808                	addi	a0,sp,16
    1840:	0808                	addi	a0,sp,16
    1842:	0808                	addi	a0,sp,16
    1844:	0808                	addi	a0,sp,16
    1846:	0808                	addi	a0,sp,16
    1848:	0808                	addi	a0,sp,16
    184a:	0808                	addi	a0,sp,16
    184c:	0808                	addi	a0,sp,16
    184e:	0808                	addi	a0,sp,16
    1850:	0808                	addi	a0,sp,16
    1852:	0808                	addi	a0,sp,16
    1854:	0808                	addi	a0,sp,16
    1856:	0808                	addi	a0,sp,16
    1858:	0808                	addi	a0,sp,16
    185a:	0808                	addi	a0,sp,16
    185c:	0808                	addi	a0,sp,16
    185e:	0808                	addi	a0,sp,16
    1860:	0808                	addi	a0,sp,16
    1862:	0808                	addi	a0,sp,16
    1864:	0808                	addi	a0,sp,16
    1866:	0808                	addi	a0,sp,16
    1868:	0808                	addi	a0,sp,16
    186a:	0808                	addi	a0,sp,16
    186c:	0808                	addi	a0,sp,16
    186e:	0808                	addi	a0,sp,16
    1870:	0808                	addi	a0,sp,16
    1872:	0808                	addi	a0,sp,16
    1874:	0808                	addi	a0,sp,16
    1876:	0808                	addi	a0,sp,16
    1878:	0808                	addi	a0,sp,16
    187a:	0808                	addi	a0,sp,16
    187c:	0808                	addi	a0,sp,16
    187e:	0808                	addi	a0,sp,16
    1880:	0808                	addi	a0,sp,16
    1882:	0808                	addi	a0,sp,16
    1884:	0808                	addi	a0,sp,16
    1886:	0808                	addi	a0,sp,16
    1888:	0808                	addi	a0,sp,16
    188a:	0808                	addi	a0,sp,16
    188c:	0808                	addi	a0,sp,16
    188e:	0808                	addi	a0,sp,16
    1890:	0808                	addi	a0,sp,16
    1892:	0808                	addi	a0,sp,16
    1894:	0808                	addi	a0,sp,16
    1896:	0808                	addi	a0,sp,16
    1898:	7270                	ld	a2,224(a2)
    189a:	6375646f          	jal	s0,0x586d0
    189e:	2074                	fld	fa3,192(s0)
    18a0:	7820666f          	jal	a2,0x8022
    18a4:	6120                	ld	s0,64(a0)
    18a6:	646e                	ld	s0,216(sp)
    18a8:	7920                	ld	s0,112(a0)
    18aa:	6920                	ld	s0,80(a0)
    18ac:	64252073          	csrs	0x642,a0
    18b0:	252e                	fld	fa0,200(sp)
    18b2:	0a64                	addi	s1,sp,284
	...
    1b20:	bc20                	fsd	fs0,120(s0)
    1b22:	4cbe                	lw	s9,204(sp)
    1b24:	1f8c                	addi	a1,sp,1008
    1b26:	c45c                	sw	a5,12(s0)
