
exe:     file format elf32-littleriscv


Disassembly of section .text:

00000000 <entry>:
   0:	00010117          	auipc	sp,0x10
   4:	ffc10113          	addi	sp,sp,-4 # fffc <__sp>
   8:	018000ef          	jal	ra,20 <textinit>

0000000c <end>:
   c:	00130313          	addi	t1,t1,1
  10:	000103b7          	lui	t2,0x10
  14:	00c38393          	addi	t2,t2,12 # 1000c <__console_addr+0x8>
  18:	0063a023          	sw	t1,0(t2)

0000001c <loop>:
  1c:	0000006f          	j	1c <loop>

00000020 <textinit>:
  20:	ff010113          	addi	sp,sp,-16
  24:	00112623          	sw	ra,12(sp)
  28:	00812423          	sw	s0,8(sp)
  2c:	01010413          	addi	s0,sp,16
  30:	764000ef          	jal	ra,794 <main>
  34:	00000013          	nop
  38:	00c12083          	lw	ra,12(sp)
  3c:	00812403          	lw	s0,8(sp)
  40:	01010113          	addi	sp,sp,16
  44:	00008067          	ret

00000048 <_Z10write_charc>:
  48:	fd010113          	addi	sp,sp,-48
  4c:	02812623          	sw	s0,44(sp)
  50:	03010413          	addi	s0,sp,48
  54:	00050793          	mv	a5,a0
  58:	fcf40fa3          	sb	a5,-33(s0)
  5c:	000107b7          	lui	a5,0x10
  60:	00478793          	addi	a5,a5,4 # 10004 <__console_addr>
  64:	fef42623          	sw	a5,-20(s0)
  68:	fdf44703          	lbu	a4,-33(s0)
  6c:	fec42783          	lw	a5,-20(s0)
  70:	00e7a023          	sw	a4,0(a5)
  74:	fec42783          	lw	a5,-20(s0)
  78:	0007a703          	lw	a4,0(a5)
  7c:	fdf44783          	lbu	a5,-33(s0)
  80:	40f707b3          	sub	a5,a4,a5
  84:	0017b793          	seqz	a5,a5
  88:	0ff7f793          	andi	a5,a5,255
  8c:	00078663          	beqz	a5,98 <_Z10write_charc+0x50>
  90:	00100793          	li	a5,1
  94:	0080006f          	j	9c <_Z10write_charc+0x54>
  98:	00000793          	li	a5,0
  9c:	00078513          	mv	a0,a5
  a0:	02c12403          	lw	s0,44(sp)
  a4:	03010113          	addi	sp,sp,48
  a8:	00008067          	ret

000000ac <_Z12write_stringPc>:
  ac:	fd010113          	addi	sp,sp,-48
  b0:	02112623          	sw	ra,44(sp)
  b4:	02812423          	sw	s0,40(sp)
  b8:	03010413          	addi	s0,sp,48
  bc:	fca42e23          	sw	a0,-36(s0)
  c0:	fe042623          	sw	zero,-20(s0)
  c4:	00100793          	li	a5,1
  c8:	fef42423          	sw	a5,-24(s0)
  cc:	fec42783          	lw	a5,-20(s0)
  d0:	fdc42703          	lw	a4,-36(s0)
  d4:	00f707b3          	add	a5,a4,a5
  d8:	0007c783          	lbu	a5,0(a5)
  dc:	02078e63          	beqz	a5,118 <_Z12write_stringPc+0x6c>
  e0:	fec42783          	lw	a5,-20(s0)
  e4:	fdc42703          	lw	a4,-36(s0)
  e8:	00f707b3          	add	a5,a4,a5
  ec:	0007c783          	lbu	a5,0(a5)
  f0:	00078513          	mv	a0,a5
  f4:	f55ff0ef          	jal	ra,48 <_Z10write_charc>
  f8:	00050713          	mv	a4,a0
  fc:	fe842783          	lw	a5,-24(s0)
 100:	00f777b3          	and	a5,a4,a5
 104:	fef42423          	sw	a5,-24(s0)
 108:	fec42783          	lw	a5,-20(s0)
 10c:	00178793          	addi	a5,a5,1
 110:	fef42623          	sw	a5,-20(s0)
 114:	fb9ff06f          	j	cc <_Z12write_stringPc+0x20>
 118:	00000513          	li	a0,0
 11c:	f2dff0ef          	jal	ra,48 <_Z10write_charc>
 120:	00050713          	mv	a4,a0
 124:	fe842783          	lw	a5,-24(s0)
 128:	00f777b3          	and	a5,a4,a5
 12c:	fef42423          	sw	a5,-24(s0)
 130:	fe842783          	lw	a5,-24(s0)
 134:	00078513          	mv	a0,a5
 138:	02c12083          	lw	ra,44(sp)
 13c:	02812403          	lw	s0,40(sp)
 140:	03010113          	addi	sp,sp,48
 144:	00008067          	ret

00000148 <_Z5_putciPVi>:
 148:	fe010113          	addi	sp,sp,-32
 14c:	00812e23          	sw	s0,28(sp)
 150:	02010413          	addi	s0,sp,32
 154:	fea42623          	sw	a0,-20(s0)
 158:	feb42423          	sw	a1,-24(s0)
 15c:	fe842783          	lw	a5,-24(s0)
 160:	fec42703          	lw	a4,-20(s0)
 164:	00e7a023          	sw	a4,0(a5)
 168:	00100793          	li	a5,1
 16c:	00078513          	mv	a0,a5
 170:	01c12403          	lw	s0,28(sp)
 174:	02010113          	addi	sp,sp,32
 178:	00008067          	ret

0000017c <_Z5_putsPcjPVi>:
 17c:	fd010113          	addi	sp,sp,-48
 180:	02812623          	sw	s0,44(sp)
 184:	03010413          	addi	s0,sp,48
 188:	fca42e23          	sw	a0,-36(s0)
 18c:	fcb42c23          	sw	a1,-40(s0)
 190:	fcc42a23          	sw	a2,-44(s0)
 194:	fe042623          	sw	zero,-20(s0)
 198:	fec42703          	lw	a4,-20(s0)
 19c:	fd842783          	lw	a5,-40(s0)
 1a0:	02f77863          	bgeu	a4,a5,1d0 <_Z5_putsPcjPVi+0x54>
 1a4:	fdc42703          	lw	a4,-36(s0)
 1a8:	fec42783          	lw	a5,-20(s0)
 1ac:	00f707b3          	add	a5,a4,a5
 1b0:	0007c783          	lbu	a5,0(a5)
 1b4:	00078713          	mv	a4,a5
 1b8:	fd442783          	lw	a5,-44(s0)
 1bc:	00e7a023          	sw	a4,0(a5)
 1c0:	fec42783          	lw	a5,-20(s0)
 1c4:	00178793          	addi	a5,a5,1
 1c8:	fef42623          	sw	a5,-20(s0)
 1cc:	fcdff06f          	j	198 <_Z5_putsPcjPVi+0x1c>
 1d0:	fd442783          	lw	a5,-44(s0)
 1d4:	0007a023          	sw	zero,0(a5)
 1d8:	00100793          	li	a5,1
 1dc:	00078513          	mv	a0,a5
 1e0:	02c12403          	lw	s0,44(sp)
 1e4:	03010113          	addi	sp,sp,48
 1e8:	00008067          	ret

000001ec <_Z7_strlenPKc>:
 1ec:	fd010113          	addi	sp,sp,-48
 1f0:	02812623          	sw	s0,44(sp)
 1f4:	03010413          	addi	s0,sp,48
 1f8:	fca42e23          	sw	a0,-36(s0)
 1fc:	fe042623          	sw	zero,-20(s0)
 200:	fdc42703          	lw	a4,-36(s0)
 204:	fec42783          	lw	a5,-20(s0)
 208:	00f707b3          	add	a5,a4,a5
 20c:	0007c783          	lbu	a5,0(a5)
 210:	00078a63          	beqz	a5,224 <_Z7_strlenPKc+0x38>
 214:	fec42783          	lw	a5,-20(s0)
 218:	00178793          	addi	a5,a5,1
 21c:	fef42623          	sw	a5,-20(s0)
 220:	fe1ff06f          	j	200 <_Z7_strlenPKc+0x14>
 224:	fec42783          	lw	a5,-20(s0)
 228:	00078513          	mv	a0,a5
 22c:	02c12403          	lw	s0,44(sp)
 230:	03010113          	addi	sp,sp,48
 234:	00008067          	ret

00000238 <_Z4itoaijjjPcj>:
 238:	fb010113          	addi	sp,sp,-80
 23c:	04112623          	sw	ra,76(sp)
 240:	04812423          	sw	s0,72(sp)
 244:	05010413          	addi	s0,sp,80
 248:	fca42623          	sw	a0,-52(s0)
 24c:	fcb42423          	sw	a1,-56(s0)
 250:	fcc42223          	sw	a2,-60(s0)
 254:	fcd42023          	sw	a3,-64(s0)
 258:	fae42e23          	sw	a4,-68(s0)
 25c:	faf42c23          	sw	a5,-72(s0)
 260:	fbc42783          	lw	a5,-68(s0)
 264:	fcf42c23          	sw	a5,-40(s0)
 268:	fe042623          	sw	zero,-20(s0)
 26c:	fc842703          	lw	a4,-56(s0)
 270:	01000793          	li	a5,16
 274:	00e7f663          	bgeu	a5,a4,280 <_Z4itoaijjjPcj+0x48>
 278:	00000793          	li	a5,0
 27c:	1bc0006f          	j	438 <_Z4itoaijjjPcj+0x200>
 280:	fcc42783          	lw	a5,-52(s0)
 284:	0207d063          	bgez	a5,2a4 <_Z4itoaijjjPcj+0x6c>
 288:	fc042783          	lw	a5,-64(s0)
 28c:	00079c63          	bnez	a5,2a4 <_Z4itoaijjjPcj+0x6c>
 290:	00100793          	li	a5,1
 294:	fef42623          	sw	a5,-20(s0)
 298:	fcc42783          	lw	a5,-52(s0)
 29c:	40f007b3          	neg	a5,a5
 2a0:	fcf42623          	sw	a5,-52(s0)
 2a4:	fcc42783          	lw	a5,-52(s0)
 2a8:	fc842583          	lw	a1,-56(s0)
 2ac:	00078513          	mv	a0,a5
 2b0:	618000ef          	jal	ra,8c8 <__umodsi3>
 2b4:	00050793          	mv	a5,a0
 2b8:	fef42223          	sw	a5,-28(s0)
 2bc:	fe442703          	lw	a4,-28(s0)
 2c0:	00900793          	li	a5,9
 2c4:	00e7cc63          	blt	a5,a4,2dc <_Z4itoaijjjPcj+0xa4>
 2c8:	fe442783          	lw	a5,-28(s0)
 2cc:	0ff7f793          	andi	a5,a5,255
 2d0:	03078793          	addi	a5,a5,48
 2d4:	0ff7f713          	andi	a4,a5,255
 2d8:	0300006f          	j	308 <_Z4itoaijjjPcj+0xd0>
 2dc:	fc442783          	lw	a5,-60(s0)
 2e0:	00078663          	beqz	a5,2ec <_Z4itoaijjjPcj+0xb4>
 2e4:	04100793          	li	a5,65
 2e8:	0080006f          	j	2f0 <_Z4itoaijjjPcj+0xb8>
 2ec:	06100793          	li	a5,97
 2f0:	fe442703          	lw	a4,-28(s0)
 2f4:	0ff77713          	andi	a4,a4,255
 2f8:	00e787b3          	add	a5,a5,a4
 2fc:	0ff7f793          	andi	a5,a5,255
 300:	ff678793          	addi	a5,a5,-10
 304:	0ff7f713          	andi	a4,a5,255
 308:	fd842783          	lw	a5,-40(s0)
 30c:	00178693          	addi	a3,a5,1
 310:	fcd42c23          	sw	a3,-40(s0)
 314:	00e78023          	sb	a4,0(a5)
 318:	fcc42783          	lw	a5,-52(s0)
 31c:	fc842583          	lw	a1,-56(s0)
 320:	00078513          	mv	a0,a5
 324:	55c000ef          	jal	ra,880 <__udivsi3>
 328:	00050793          	mv	a5,a0
 32c:	fcf42623          	sw	a5,-52(s0)
 330:	fcc42783          	lw	a5,-52(s0)
 334:	00f05463          	blez	a5,33c <_Z4itoaijjjPcj+0x104>
 338:	f6dff06f          	j	2a4 <_Z4itoaijjjPcj+0x6c>
 33c:	fd842703          	lw	a4,-40(s0)
 340:	fbc42783          	lw	a5,-68(s0)
 344:	40f707b3          	sub	a5,a4,a5
 348:	fef42423          	sw	a5,-24(s0)
 34c:	fe842703          	lw	a4,-24(s0)
 350:	fb842783          	lw	a5,-72(s0)
 354:	02f77463          	bgeu	a4,a5,37c <_Z4itoaijjjPcj+0x144>
 358:	fd842783          	lw	a5,-40(s0)
 35c:	00178713          	addi	a4,a5,1
 360:	fce42c23          	sw	a4,-40(s0)
 364:	03000713          	li	a4,48
 368:	00e78023          	sb	a4,0(a5)
 36c:	fe842783          	lw	a5,-24(s0)
 370:	00178793          	addi	a5,a5,1
 374:	fef42423          	sw	a5,-24(s0)
 378:	fd5ff06f          	j	34c <_Z4itoaijjjPcj+0x114>
 37c:	fec42783          	lw	a5,-20(s0)
 380:	00078c63          	beqz	a5,398 <_Z4itoaijjjPcj+0x160>
 384:	fd842783          	lw	a5,-40(s0)
 388:	00178713          	addi	a4,a5,1
 38c:	fce42c23          	sw	a4,-40(s0)
 390:	02d00713          	li	a4,45
 394:	00e78023          	sb	a4,0(a5)
 398:	fd842783          	lw	a5,-40(s0)
 39c:	00078023          	sb	zero,0(a5)
 3a0:	fd842703          	lw	a4,-40(s0)
 3a4:	fbc42783          	lw	a5,-68(s0)
 3a8:	40f707b3          	sub	a5,a4,a5
 3ac:	fef42023          	sw	a5,-32(s0)
 3b0:	fe042423          	sw	zero,-24(s0)
 3b4:	fe042783          	lw	a5,-32(s0)
 3b8:	0017d793          	srli	a5,a5,0x1
 3bc:	fe842703          	lw	a4,-24(s0)
 3c0:	06f77a63          	bgeu	a4,a5,434 <_Z4itoaijjjPcj+0x1fc>
 3c4:	fbc42703          	lw	a4,-68(s0)
 3c8:	fe842783          	lw	a5,-24(s0)
 3cc:	00f707b3          	add	a5,a4,a5
 3d0:	0007c783          	lbu	a5,0(a5)
 3d4:	fcf40fa3          	sb	a5,-33(s0)
 3d8:	fe042703          	lw	a4,-32(s0)
 3dc:	fe842783          	lw	a5,-24(s0)
 3e0:	40f707b3          	sub	a5,a4,a5
 3e4:	fff78793          	addi	a5,a5,-1
 3e8:	fbc42703          	lw	a4,-68(s0)
 3ec:	00f70733          	add	a4,a4,a5
 3f0:	fbc42683          	lw	a3,-68(s0)
 3f4:	fe842783          	lw	a5,-24(s0)
 3f8:	00f687b3          	add	a5,a3,a5
 3fc:	00074703          	lbu	a4,0(a4)
 400:	00e78023          	sb	a4,0(a5)
 404:	fe042703          	lw	a4,-32(s0)
 408:	fe842783          	lw	a5,-24(s0)
 40c:	40f707b3          	sub	a5,a4,a5
 410:	fff78793          	addi	a5,a5,-1
 414:	fbc42703          	lw	a4,-68(s0)
 418:	00f707b3          	add	a5,a4,a5
 41c:	fdf44703          	lbu	a4,-33(s0)
 420:	00e78023          	sb	a4,0(a5)
 424:	fe842783          	lw	a5,-24(s0)
 428:	00178793          	addi	a5,a5,1
 42c:	fef42423          	sw	a5,-24(s0)
 430:	f85ff06f          	j	3b4 <_Z4itoaijjjPcj+0x17c>
 434:	fe042783          	lw	a5,-32(s0)
 438:	00078513          	mv	a0,a5
 43c:	04c12083          	lw	ra,76(sp)
 440:	04812403          	lw	s0,72(sp)
 444:	05010113          	addi	sp,sp,80
 448:	00008067          	ret

0000044c <_Z11printf_implPViPKcPv>:
 44c:	fb010113          	addi	sp,sp,-80
 450:	04112623          	sw	ra,76(sp)
 454:	04812423          	sw	s0,72(sp)
 458:	05010413          	addi	s0,sp,80
 45c:	faa42e23          	sw	a0,-68(s0)
 460:	fab42c23          	sw	a1,-72(s0)
 464:	fac42a23          	sw	a2,-76(s0)
 468:	fb842783          	lw	a5,-72(s0)
 46c:	00178713          	addi	a4,a5,1
 470:	fae42c23          	sw	a4,-72(s0)
 474:	0007c783          	lbu	a5,0(a5)
 478:	fef407a3          	sb	a5,-17(s0)
 47c:	fef44783          	lbu	a5,-17(s0)
 480:	00f037b3          	snez	a5,a5
 484:	0ff7f793          	andi	a5,a5,255
 488:	20078263          	beqz	a5,68c <_Z11printf_implPViPKcPv+0x240>
 48c:	fef44703          	lbu	a4,-17(s0)
 490:	02500793          	li	a5,37
 494:	00f70c63          	beq	a4,a5,4ac <_Z11printf_implPViPKcPv+0x60>
 498:	fef44783          	lbu	a5,-17(s0)
 49c:	fbc42583          	lw	a1,-68(s0)
 4a0:	00078513          	mv	a0,a5
 4a4:	ca5ff0ef          	jal	ra,148 <_Z5_putciPVi>
 4a8:	fc1ff06f          	j	468 <_Z11printf_implPViPKcPv+0x1c>
 4ac:	fe040723          	sb	zero,-18(s0)
 4b0:	fb842783          	lw	a5,-72(s0)
 4b4:	00178713          	addi	a4,a5,1
 4b8:	fae42c23          	sw	a4,-72(s0)
 4bc:	0007c783          	lbu	a5,0(a5)
 4c0:	fef407a3          	sb	a5,-17(s0)
 4c4:	fef44703          	lbu	a4,-17(s0)
 4c8:	03000793          	li	a5,48
 4cc:	04f71c63          	bne	a4,a5,524 <_Z11printf_implPViPKcPv+0xd8>
 4d0:	fb842783          	lw	a5,-72(s0)
 4d4:	00178713          	addi	a4,a5,1
 4d8:	fae42c23          	sw	a4,-72(s0)
 4dc:	0007c783          	lbu	a5,0(a5)
 4e0:	fef407a3          	sb	a5,-17(s0)
 4e4:	fef44783          	lbu	a5,-17(s0)
 4e8:	1a078663          	beqz	a5,694 <_Z11printf_implPViPKcPv+0x248>
 4ec:	fef44703          	lbu	a4,-17(s0)
 4f0:	02f00793          	li	a5,47
 4f4:	00e7fe63          	bgeu	a5,a4,510 <_Z11printf_implPViPKcPv+0xc4>
 4f8:	fef44703          	lbu	a4,-17(s0)
 4fc:	03900793          	li	a5,57
 500:	00e7e863          	bltu	a5,a4,510 <_Z11printf_implPViPKcPv+0xc4>
 504:	fef44783          	lbu	a5,-17(s0)
 508:	fd078793          	addi	a5,a5,-48
 50c:	fef40723          	sb	a5,-18(s0)
 510:	fb842783          	lw	a5,-72(s0)
 514:	00178713          	addi	a4,a5,1
 518:	fae42c23          	sw	a4,-72(s0)
 51c:	0007c783          	lbu	a5,0(a5)
 520:	fef407a3          	sb	a5,-17(s0)
 524:	fef44783          	lbu	a5,-17(s0)
 528:	06400713          	li	a4,100
 52c:	04e78063          	beq	a5,a4,56c <_Z11printf_implPViPKcPv+0x120>
 530:	06400713          	li	a4,100
 534:	00f74e63          	blt	a4,a5,550 <_Z11printf_implPViPKcPv+0x104>
 538:	05800713          	li	a4,88
 53c:	08e78463          	beq	a5,a4,5c4 <_Z11printf_implPViPKcPv+0x178>
 540:	06300713          	li	a4,99
 544:	0ce78c63          	beq	a5,a4,61c <_Z11printf_implPViPKcPv+0x1d0>
 548:	14078a63          	beqz	a5,69c <_Z11printf_implPViPKcPv+0x250>
 54c:	1280006f          	j	674 <_Z11printf_implPViPKcPv+0x228>
 550:	07500713          	li	a4,117
 554:	00e78c63          	beq	a5,a4,56c <_Z11printf_implPViPKcPv+0x120>
 558:	07800713          	li	a4,120
 55c:	06e78463          	beq	a5,a4,5c4 <_Z11printf_implPViPKcPv+0x178>
 560:	07300713          	li	a4,115
 564:	0ce78e63          	beq	a5,a4,640 <_Z11printf_implPViPKcPv+0x1f4>
 568:	10c0006f          	j	674 <_Z11printf_implPViPKcPv+0x228>
 56c:	fb442783          	lw	a5,-76(s0)
 570:	00478713          	addi	a4,a5,4
 574:	fae42a23          	sw	a4,-76(s0)
 578:	0007a783          	lw	a5,0(a5)
 57c:	00078513          	mv	a0,a5
 580:	fef44783          	lbu	a5,-17(s0)
 584:	f8b78793          	addi	a5,a5,-117
 588:	0017b793          	seqz	a5,a5
 58c:	0ff7f793          	andi	a5,a5,255
 590:	00078693          	mv	a3,a5
 594:	fee44783          	lbu	a5,-18(s0)
 598:	fcc40713          	addi	a4,s0,-52
 59c:	00000613          	li	a2,0
 5a0:	00a00593          	li	a1,10
 5a4:	c95ff0ef          	jal	ra,238 <_Z4itoaijjjPcj>
 5a8:	fea42423          	sw	a0,-24(s0)
 5ac:	fcc40793          	addi	a5,s0,-52
 5b0:	fbc42603          	lw	a2,-68(s0)
 5b4:	fe842583          	lw	a1,-24(s0)
 5b8:	00078513          	mv	a0,a5
 5bc:	bc1ff0ef          	jal	ra,17c <_Z5_putsPcjPVi>
 5c0:	0c80006f          	j	688 <_Z11printf_implPViPKcPv+0x23c>
 5c4:	fb442783          	lw	a5,-76(s0)
 5c8:	00478713          	addi	a4,a5,4
 5cc:	fae42a23          	sw	a4,-76(s0)
 5d0:	0007a783          	lw	a5,0(a5)
 5d4:	00078513          	mv	a0,a5
 5d8:	fef44783          	lbu	a5,-17(s0)
 5dc:	fa878793          	addi	a5,a5,-88
 5e0:	0017b793          	seqz	a5,a5
 5e4:	0ff7f793          	andi	a5,a5,255
 5e8:	00078613          	mv	a2,a5
 5ec:	fee44783          	lbu	a5,-18(s0)
 5f0:	fcc40713          	addi	a4,s0,-52
 5f4:	00100693          	li	a3,1
 5f8:	01000593          	li	a1,16
 5fc:	c3dff0ef          	jal	ra,238 <_Z4itoaijjjPcj>
 600:	fea42423          	sw	a0,-24(s0)
 604:	fcc40793          	addi	a5,s0,-52
 608:	fbc42603          	lw	a2,-68(s0)
 60c:	fe842583          	lw	a1,-24(s0)
 610:	00078513          	mv	a0,a5
 614:	b69ff0ef          	jal	ra,17c <_Z5_putsPcjPVi>
 618:	0700006f          	j	688 <_Z11printf_implPViPKcPv+0x23c>
 61c:	fb442783          	lw	a5,-76(s0)
 620:	00478713          	addi	a4,a5,4
 624:	fae42a23          	sw	a4,-76(s0)
 628:	0007a783          	lw	a5,0(a5)
 62c:	0ff7f793          	andi	a5,a5,255
 630:	fbc42583          	lw	a1,-68(s0)
 634:	00078513          	mv	a0,a5
 638:	b11ff0ef          	jal	ra,148 <_Z5_putciPVi>
 63c:	04c0006f          	j	688 <_Z11printf_implPViPKcPv+0x23c>
 640:	fb442783          	lw	a5,-76(s0)
 644:	00478713          	addi	a4,a5,4
 648:	fae42a23          	sw	a4,-76(s0)
 64c:	0007a783          	lw	a5,0(a5)
 650:	fef42223          	sw	a5,-28(s0)
 654:	fe442503          	lw	a0,-28(s0)
 658:	b95ff0ef          	jal	ra,1ec <_Z7_strlenPKc>
 65c:	00050793          	mv	a5,a0
 660:	fbc42603          	lw	a2,-68(s0)
 664:	00078593          	mv	a1,a5
 668:	fe442503          	lw	a0,-28(s0)
 66c:	b11ff0ef          	jal	ra,17c <_Z5_putsPcjPVi>
 670:	0180006f          	j	688 <_Z11printf_implPViPKcPv+0x23c>
 674:	fef44783          	lbu	a5,-17(s0)
 678:	fbc42583          	lw	a1,-68(s0)
 67c:	00078513          	mv	a0,a5
 680:	ac9ff0ef          	jal	ra,148 <_Z5_putciPVi>
 684:	00000013          	nop
 688:	de1ff06f          	j	468 <_Z11printf_implPViPKcPv+0x1c>
 68c:	00000013          	nop
 690:	0100006f          	j	6a0 <_Z11printf_implPViPKcPv+0x254>
 694:	00000013          	nop
 698:	0080006f          	j	6a0 <_Z11printf_implPViPKcPv+0x254>
 69c:	00000013          	nop
 6a0:	00000793          	li	a5,0
 6a4:	00078513          	mv	a0,a5
 6a8:	04c12083          	lw	ra,76(sp)
 6ac:	04812403          	lw	s0,72(sp)
 6b0:	05010113          	addi	sp,sp,80
 6b4:	00008067          	ret

000006b8 <_Z11addr_printfPViPKcz>:
 6b8:	fb010113          	addi	sp,sp,-80
 6bc:	02112623          	sw	ra,44(sp)
 6c0:	02812423          	sw	s0,40(sp)
 6c4:	03010413          	addi	s0,sp,48
 6c8:	fca42e23          	sw	a0,-36(s0)
 6cc:	fcb42c23          	sw	a1,-40(s0)
 6d0:	00c42423          	sw	a2,8(s0)
 6d4:	00d42623          	sw	a3,12(s0)
 6d8:	00e42823          	sw	a4,16(s0)
 6dc:	00f42a23          	sw	a5,20(s0)
 6e0:	01042c23          	sw	a6,24(s0)
 6e4:	01142e23          	sw	a7,28(s0)
 6e8:	02040793          	addi	a5,s0,32
 6ec:	fe878793          	addi	a5,a5,-24
 6f0:	fef42423          	sw	a5,-24(s0)
 6f4:	fe842783          	lw	a5,-24(s0)
 6f8:	00078613          	mv	a2,a5
 6fc:	fd842583          	lw	a1,-40(s0)
 700:	fdc42503          	lw	a0,-36(s0)
 704:	d49ff0ef          	jal	ra,44c <_Z11printf_implPViPKcPv>
 708:	fea42623          	sw	a0,-20(s0)
 70c:	fec42783          	lw	a5,-20(s0)
 710:	00078513          	mv	a0,a5
 714:	02c12083          	lw	ra,44(sp)
 718:	02812403          	lw	s0,40(sp)
 71c:	05010113          	addi	sp,sp,80
 720:	00008067          	ret

00000724 <_Z7_printfPKcz>:
 724:	fb010113          	addi	sp,sp,-80
 728:	02112623          	sw	ra,44(sp)
 72c:	02812423          	sw	s0,40(sp)
 730:	03010413          	addi	s0,sp,48
 734:	fca42e23          	sw	a0,-36(s0)
 738:	00b42223          	sw	a1,4(s0)
 73c:	00c42423          	sw	a2,8(s0)
 740:	00d42623          	sw	a3,12(s0)
 744:	00e42823          	sw	a4,16(s0)
 748:	00f42a23          	sw	a5,20(s0)
 74c:	01042c23          	sw	a6,24(s0)
 750:	01142e23          	sw	a7,28(s0)
 754:	02040793          	addi	a5,s0,32
 758:	fe478793          	addi	a5,a5,-28
 75c:	fef42423          	sw	a5,-24(s0)
 760:	fe842783          	lw	a5,-24(s0)
 764:	00078613          	mv	a2,a5
 768:	fdc42583          	lw	a1,-36(s0)
 76c:	000107b7          	lui	a5,0x10
 770:	00478513          	addi	a0,a5,4 # 10004 <__console_addr>
 774:	cd9ff0ef          	jal	ra,44c <_Z11printf_implPViPKcPv>
 778:	fea42623          	sw	a0,-20(s0)
 77c:	fec42783          	lw	a5,-20(s0)
 780:	00078513          	mv	a0,a5
 784:	02c12083          	lw	ra,44(sp)
 788:	02812403          	lw	s0,40(sp)
 78c:	05010113          	addi	sp,sp,80
 790:	00008067          	ret

00000794 <main>:
 794:	fd010113          	addi	sp,sp,-48
 798:	02112623          	sw	ra,44(sp)
 79c:	02812423          	sw	s0,40(sp)
 7a0:	03010413          	addi	s0,sp,48
 7a4:	000017b7          	lui	a5,0x1
 7a8:	3987a783          	lw	a5,920(a5) # 1398 <vector+0x1c>
 7ac:	fef42623          	sw	a5,-20(s0)
 7b0:	000017b7          	lui	a5,0x1
 7b4:	39c7a783          	lw	a5,924(a5) # 139c <vector+0x20>
 7b8:	fef42423          	sw	a5,-24(s0)
 7bc:	fe842583          	lw	a1,-24(s0)
 7c0:	fec42503          	lw	a0,-20(s0)
 7c4:	168000ef          	jal	ra,92c <__mulsf3>
 7c8:	00050793          	mv	a5,a0
 7cc:	fef42223          	sw	a5,-28(s0)
 7d0:	fe442503          	lw	a0,-28(s0)
 7d4:	18d000ef          	jal	ra,1160 <__fixsfsi>
 7d8:	00050793          	mv	a5,a0
 7dc:	fef42023          	sw	a5,-32(s0)
 7e0:	00000793          	li	a5,0
 7e4:	fcf42e23          	sw	a5,-36(s0)
 7e8:	fe042503          	lw	a0,-32(s0)
 7ec:	1e9000ef          	jal	ra,11d4 <__floatsisf>
 7f0:	00050793          	mv	a5,a0
 7f4:	00078593          	mv	a1,a5
 7f8:	fe442503          	lw	a0,-28(s0)
 7fc:	4e0000ef          	jal	ra,cdc <__subsf3>
 800:	00050793          	mv	a5,a0
 804:	fcf42e23          	sw	a5,-36(s0)
 808:	000017b7          	lui	a5,0x1
 80c:	3a07a583          	lw	a1,928(a5) # 13a0 <vector+0x24>
 810:	fdc42503          	lw	a0,-36(s0)
 814:	118000ef          	jal	ra,92c <__mulsf3>
 818:	00050793          	mv	a5,a0
 81c:	00078513          	mv	a0,a5
 820:	141000ef          	jal	ra,1160 <__fixsfsi>
 824:	00050793          	mv	a5,a0
 828:	fcf42c23          	sw	a5,-40(s0)
 82c:	fd842583          	lw	a1,-40(s0)
 830:	000017b7          	lui	a5,0x1
 834:	38478513          	addi	a0,a5,900 # 1384 <vector+0x8>
 838:	eedff0ef          	jal	ra,724 <_Z7_printfPKcz>
 83c:	00000793          	li	a5,0
 840:	00078513          	mv	a0,a5
 844:	02c12083          	lw	ra,44(sp)
 848:	02812403          	lw	s0,40(sp)
 84c:	03010113          	addi	sp,sp,48
 850:	00008067          	ret

00000854 <__mulsi3>:
 854:	00050613          	mv	a2,a0
 858:	00000513          	li	a0,0
 85c:	0015f693          	andi	a3,a1,1
 860:	00068463          	beqz	a3,868 <__mulsi3+0x14>
 864:	00c50533          	add	a0,a0,a2
 868:	0015d593          	srli	a1,a1,0x1
 86c:	00161613          	slli	a2,a2,0x1
 870:	fe0596e3          	bnez	a1,85c <__mulsi3+0x8>
 874:	00008067          	ret

00000878 <__divsi3>:
 878:	06054063          	bltz	a0,8d8 <__umodsi3+0x10>
 87c:	0605c663          	bltz	a1,8e8 <__umodsi3+0x20>

00000880 <__udivsi3>:
 880:	00058613          	mv	a2,a1
 884:	00050593          	mv	a1,a0
 888:	fff00513          	li	a0,-1
 88c:	02060c63          	beqz	a2,8c4 <__udivsi3+0x44>
 890:	00100693          	li	a3,1
 894:	00b67a63          	bgeu	a2,a1,8a8 <__udivsi3+0x28>
 898:	00c05863          	blez	a2,8a8 <__udivsi3+0x28>
 89c:	00161613          	slli	a2,a2,0x1
 8a0:	00169693          	slli	a3,a3,0x1
 8a4:	feb66ae3          	bltu	a2,a1,898 <__udivsi3+0x18>
 8a8:	00000513          	li	a0,0
 8ac:	00c5e663          	bltu	a1,a2,8b8 <__udivsi3+0x38>
 8b0:	40c585b3          	sub	a1,a1,a2
 8b4:	00d56533          	or	a0,a0,a3
 8b8:	0016d693          	srli	a3,a3,0x1
 8bc:	00165613          	srli	a2,a2,0x1
 8c0:	fe0696e3          	bnez	a3,8ac <__udivsi3+0x2c>
 8c4:	00008067          	ret

000008c8 <__umodsi3>:
 8c8:	00008293          	mv	t0,ra
 8cc:	fb5ff0ef          	jal	ra,880 <__udivsi3>
 8d0:	00058513          	mv	a0,a1
 8d4:	00028067          	jr	t0
 8d8:	40a00533          	neg	a0,a0
 8dc:	0005d863          	bgez	a1,8ec <__umodsi3+0x24>
 8e0:	40b005b3          	neg	a1,a1
 8e4:	f9dff06f          	j	880 <__udivsi3>
 8e8:	40b005b3          	neg	a1,a1
 8ec:	00008293          	mv	t0,ra
 8f0:	f91ff0ef          	jal	ra,880 <__udivsi3>
 8f4:	40a00533          	neg	a0,a0
 8f8:	00028067          	jr	t0

000008fc <__modsi3>:
 8fc:	00008293          	mv	t0,ra
 900:	0005ca63          	bltz	a1,914 <__modsi3+0x18>
 904:	00054c63          	bltz	a0,91c <__modsi3+0x20>
 908:	f79ff0ef          	jal	ra,880 <__udivsi3>
 90c:	00058513          	mv	a0,a1
 910:	00028067          	jr	t0
 914:	40b005b3          	neg	a1,a1
 918:	fe0558e3          	bgez	a0,908 <__modsi3+0xc>
 91c:	40a00533          	neg	a0,a0
 920:	f61ff0ef          	jal	ra,880 <__udivsi3>
 924:	40b00533          	neg	a0,a1
 928:	00028067          	jr	t0

Disassembly of section .text.__mulsf3:

0000092c <__mulsf3>:
 92c:	fd010113          	addi	sp,sp,-48
 930:	02812423          	sw	s0,40(sp)
 934:	01755413          	srli	s0,a0,0x17
 938:	01412c23          	sw	s4,24(sp)
 93c:	01512a23          	sw	s5,20(sp)
 940:	00951a13          	slli	s4,a0,0x9
 944:	02112623          	sw	ra,44(sp)
 948:	02912223          	sw	s1,36(sp)
 94c:	03212023          	sw	s2,32(sp)
 950:	01312e23          	sw	s3,28(sp)
 954:	01612823          	sw	s6,16(sp)
 958:	0ff47413          	andi	s0,s0,255
 95c:	009a5a13          	srli	s4,s4,0x9
 960:	01f55a93          	srli	s5,a0,0x1f
 964:	12040063          	beqz	s0,a84 <__mulsf3+0x158>
 968:	0ff00793          	li	a5,255
 96c:	14f40863          	beq	s0,a5,abc <__mulsf3+0x190>
 970:	003a1793          	slli	a5,s4,0x3
 974:	04000737          	lui	a4,0x4000
 978:	00e7ea33          	or	s4,a5,a4
 97c:	f8140413          	addi	s0,s0,-127
 980:	00000493          	li	s1,0
 984:	00000b13          	li	s6,0
 988:	0175d713          	srli	a4,a1,0x17
 98c:	00959913          	slli	s2,a1,0x9
 990:	0ff77713          	andi	a4,a4,255
 994:	00995913          	srli	s2,s2,0x9
 998:	01f5d993          	srli	s3,a1,0x1f
 99c:	10070863          	beqz	a4,aac <__mulsf3+0x180>
 9a0:	0ff00793          	li	a5,255
 9a4:	04f70663          	beq	a4,a5,9f0 <__mulsf3+0xc4>
 9a8:	00391913          	slli	s2,s2,0x3
 9ac:	f8170713          	addi	a4,a4,-127 # 3ffff81 <__console_addr+0x3feff7d>
 9b0:	040007b7          	lui	a5,0x4000
 9b4:	00f96933          	or	s2,s2,a5
 9b8:	00e40433          	add	s0,s0,a4
 9bc:	00000613          	li	a2,0
 9c0:	013ac833          	xor	a6,s5,s3
 9c4:	00f00793          	li	a5,15
 9c8:	00080693          	mv	a3,a6
 9cc:	00140893          	addi	a7,s0,1
 9d0:	1897e263          	bltu	a5,s1,b54 <__mulsf3+0x228>
 9d4:	00001717          	auipc	a4,0x1
 9d8:	9d070713          	addi	a4,a4,-1584 # 13a4 <vector+0x28>
 9dc:	00249493          	slli	s1,s1,0x2
 9e0:	00e484b3          	add	s1,s1,a4
 9e4:	0004a783          	lw	a5,0(s1)
 9e8:	00e787b3          	add	a5,a5,a4
 9ec:	00078067          	jr	a5 # 4000000 <__console_addr+0x3fefffc>
 9f0:	0ff40413          	addi	s0,s0,255
 9f4:	12091c63          	bnez	s2,b2c <__mulsf3+0x200>
 9f8:	0024e493          	ori	s1,s1,2
 9fc:	00200613          	li	a2,2
 a00:	fc1ff06f          	j	9c0 <__mulsf3+0x94>
 a04:	00000813          	li	a6,0
 a08:	0ff00713          	li	a4,255
 a0c:	004007b7          	lui	a5,0x400
 a10:	02c12083          	lw	ra,44(sp)
 a14:	02812403          	lw	s0,40(sp)
 a18:	00979793          	slli	a5,a5,0x9
 a1c:	01771713          	slli	a4,a4,0x17
 a20:	0097d793          	srli	a5,a5,0x9
 a24:	01f81513          	slli	a0,a6,0x1f
 a28:	00e7e7b3          	or	a5,a5,a4
 a2c:	02412483          	lw	s1,36(sp)
 a30:	02012903          	lw	s2,32(sp)
 a34:	01c12983          	lw	s3,28(sp)
 a38:	01812a03          	lw	s4,24(sp)
 a3c:	01412a83          	lw	s5,20(sp)
 a40:	01012b03          	lw	s6,16(sp)
 a44:	00a7e533          	or	a0,a5,a0
 a48:	03010113          	addi	sp,sp,48
 a4c:	00008067          	ret
 a50:	00098693          	mv	a3,s3
 a54:	00090a13          	mv	s4,s2
 a58:	00060b13          	mv	s6,a2
 a5c:	00200793          	li	a5,2
 a60:	0efb0263          	beq	s6,a5,b44 <__mulsf3+0x218>
 a64:	00300793          	li	a5,3
 a68:	f8fb0ee3          	beq	s6,a5,a04 <__mulsf3+0xd8>
 a6c:	00100793          	li	a5,1
 a70:	00068813          	mv	a6,a3
 a74:	24fb1a63          	bne	s6,a5,cc8 <__mulsf3+0x39c>
 a78:	00000713          	li	a4,0
 a7c:	00000793          	li	a5,0
 a80:	f91ff06f          	j	a10 <__mulsf3+0xe4>
 a84:	060a1e63          	bnez	s4,b00 <__mulsf3+0x1d4>
 a88:	0175d713          	srli	a4,a1,0x17
 a8c:	00959913          	slli	s2,a1,0x9
 a90:	0ff77713          	andi	a4,a4,255
 a94:	00400493          	li	s1,4
 a98:	00000413          	li	s0,0
 a9c:	00100b13          	li	s6,1
 aa0:	00995913          	srli	s2,s2,0x9
 aa4:	01f5d993          	srli	s3,a1,0x1f
 aa8:	ee071ce3          	bnez	a4,9a0 <__mulsf3+0x74>
 aac:	02091263          	bnez	s2,ad0 <__mulsf3+0x1a4>
 ab0:	0014e493          	ori	s1,s1,1
 ab4:	00100613          	li	a2,1
 ab8:	f09ff06f          	j	9c0 <__mulsf3+0x94>
 abc:	020a1a63          	bnez	s4,af0 <__mulsf3+0x1c4>
 ac0:	00800493          	li	s1,8
 ac4:	0ff00413          	li	s0,255
 ac8:	00200b13          	li	s6,2
 acc:	ebdff06f          	j	988 <__mulsf3+0x5c>
 ad0:	00090513          	mv	a0,s2
 ad4:	015000ef          	jal	ra,12e8 <__clzsi2>
 ad8:	ffb50793          	addi	a5,a0,-5
 adc:	40a40433          	sub	s0,s0,a0
 ae0:	00f91933          	sll	s2,s2,a5
 ae4:	f8a40413          	addi	s0,s0,-118
 ae8:	00000613          	li	a2,0
 aec:	ed5ff06f          	j	9c0 <__mulsf3+0x94>
 af0:	00c00493          	li	s1,12
 af4:	0ff00413          	li	s0,255
 af8:	00300b13          	li	s6,3
 afc:	e8dff06f          	j	988 <__mulsf3+0x5c>
 b00:	000a0513          	mv	a0,s4
 b04:	00b12623          	sw	a1,12(sp)
 b08:	7e0000ef          	jal	ra,12e8 <__clzsi2>
 b0c:	ffb50793          	addi	a5,a0,-5
 b10:	f8a00413          	li	s0,-118
 b14:	00fa1a33          	sll	s4,s4,a5
 b18:	40a40433          	sub	s0,s0,a0
 b1c:	00000493          	li	s1,0
 b20:	00000b13          	li	s6,0
 b24:	00c12583          	lw	a1,12(sp)
 b28:	e61ff06f          	j	988 <__mulsf3+0x5c>
 b2c:	0034e493          	ori	s1,s1,3
 b30:	00300613          	li	a2,3
 b34:	e8dff06f          	j	9c0 <__mulsf3+0x94>
 b38:	00200793          	li	a5,2
 b3c:	000a8693          	mv	a3,s5
 b40:	f2fb12e3          	bne	s6,a5,a64 <__mulsf3+0x138>
 b44:	00068813          	mv	a6,a3
 b48:	0ff00713          	li	a4,255
 b4c:	00000793          	li	a5,0
 b50:	ec1ff06f          	j	a10 <__mulsf3+0xe4>
 b54:	00010f37          	lui	t5,0x10
 b58:	ffff0313          	addi	t1,t5,-1 # ffff <__sp+0x3>
 b5c:	006a7733          	and	a4,s4,t1
 b60:	00697333          	and	t1,s2,t1
 b64:	010a5a13          	srli	s4,s4,0x10
 b68:	01095913          	srli	s2,s2,0x10
 b6c:	00070513          	mv	a0,a4
 b70:	00030593          	mv	a1,t1
 b74:	ce1ff0ef          	jal	ra,854 <__mulsi3>
 b78:	00050e13          	mv	t3,a0
 b7c:	00090593          	mv	a1,s2
 b80:	00070513          	mv	a0,a4
 b84:	cd1ff0ef          	jal	ra,854 <__mulsi3>
 b88:	00050e93          	mv	t4,a0
 b8c:	00030593          	mv	a1,t1
 b90:	000a0513          	mv	a0,s4
 b94:	cc1ff0ef          	jal	ra,854 <__mulsi3>
 b98:	00050313          	mv	t1,a0
 b9c:	00090593          	mv	a1,s2
 ba0:	000a0513          	mv	a0,s4
 ba4:	cb1ff0ef          	jal	ra,854 <__mulsi3>
 ba8:	010e5713          	srli	a4,t3,0x10
 bac:	006e8eb3          	add	t4,t4,t1
 bb0:	01d70733          	add	a4,a4,t4
 bb4:	00677463          	bgeu	a4,t1,bbc <__mulsf3+0x290>
 bb8:	01e50533          	add	a0,a0,t5
 bbc:	00010637          	lui	a2,0x10
 bc0:	fff60613          	addi	a2,a2,-1 # ffff <__sp+0x3>
 bc4:	00c776b3          	and	a3,a4,a2
 bc8:	01069693          	slli	a3,a3,0x10
 bcc:	00ce7e33          	and	t3,t3,a2
 bd0:	01c686b3          	add	a3,a3,t3
 bd4:	00669a13          	slli	s4,a3,0x6
 bd8:	01075713          	srli	a4,a4,0x10
 bdc:	01403a33          	snez	s4,s4
 be0:	01a6d693          	srli	a3,a3,0x1a
 be4:	00a70733          	add	a4,a4,a0
 be8:	00671793          	slli	a5,a4,0x6
 bec:	00da66b3          	or	a3,s4,a3
 bf0:	00d7ea33          	or	s4,a5,a3
 bf4:	004a1793          	slli	a5,s4,0x4
 bf8:	0007da63          	bgez	a5,c0c <__mulsf3+0x2e0>
 bfc:	001a5713          	srli	a4,s4,0x1
 c00:	001a7793          	andi	a5,s4,1
 c04:	00f76a33          	or	s4,a4,a5
 c08:	00088413          	mv	s0,a7
 c0c:	07f40713          	addi	a4,s0,127
 c10:	04e05663          	blez	a4,c5c <__mulsf3+0x330>
 c14:	007a7793          	andi	a5,s4,7
 c18:	00078a63          	beqz	a5,c2c <__mulsf3+0x300>
 c1c:	00fa7793          	andi	a5,s4,15
 c20:	00400693          	li	a3,4
 c24:	00d78463          	beq	a5,a3,c2c <__mulsf3+0x300>
 c28:	004a0a13          	addi	s4,s4,4
 c2c:	004a1793          	slli	a5,s4,0x4
 c30:	0007da63          	bgez	a5,c44 <__mulsf3+0x318>
 c34:	f80007b7          	lui	a5,0xf8000
 c38:	fff78793          	addi	a5,a5,-1 # f7ffffff <__console_addr+0xf7fefffb>
 c3c:	00fa7a33          	and	s4,s4,a5
 c40:	08040713          	addi	a4,s0,128
 c44:	0fe00793          	li	a5,254
 c48:	06e7ca63          	blt	a5,a4,cbc <__mulsf3+0x390>
 c4c:	006a1793          	slli	a5,s4,0x6
 c50:	0097d793          	srli	a5,a5,0x9
 c54:	0ff77713          	andi	a4,a4,255
 c58:	db9ff06f          	j	a10 <__mulsf3+0xe4>
 c5c:	00100793          	li	a5,1
 c60:	40e786b3          	sub	a3,a5,a4
 c64:	00070a63          	beqz	a4,c78 <__mulsf3+0x34c>
 c68:	01b00613          	li	a2,27
 c6c:	00000713          	li	a4,0
 c70:	00000793          	li	a5,0
 c74:	d8d64ee3          	blt	a2,a3,a10 <__mulsf3+0xe4>
 c78:	09e40713          	addi	a4,s0,158
 c7c:	00ea1733          	sll	a4,s4,a4
 c80:	00e03733          	snez	a4,a4
 c84:	00da57b3          	srl	a5,s4,a3
 c88:	00e7e7b3          	or	a5,a5,a4
 c8c:	0077f713          	andi	a4,a5,7
 c90:	00070a63          	beqz	a4,ca4 <__mulsf3+0x378>
 c94:	00f7f713          	andi	a4,a5,15
 c98:	00400693          	li	a3,4
 c9c:	00d70463          	beq	a4,a3,ca4 <__mulsf3+0x378>
 ca0:	00478793          	addi	a5,a5,4
 ca4:	00579713          	slli	a4,a5,0x5
 ca8:	02074463          	bltz	a4,cd0 <__mulsf3+0x3a4>
 cac:	00679793          	slli	a5,a5,0x6
 cb0:	0097d793          	srli	a5,a5,0x9
 cb4:	00000713          	li	a4,0
 cb8:	d59ff06f          	j	a10 <__mulsf3+0xe4>
 cbc:	0ff00713          	li	a4,255
 cc0:	00000793          	li	a5,0
 cc4:	d4dff06f          	j	a10 <__mulsf3+0xe4>
 cc8:	00088413          	mv	s0,a7
 ccc:	f41ff06f          	j	c0c <__mulsf3+0x2e0>
 cd0:	00100713          	li	a4,1
 cd4:	00000793          	li	a5,0
 cd8:	d39ff06f          	j	a10 <__mulsf3+0xe4>

Disassembly of section .text.__subsf3:

00000cdc <__subsf3>:
     cdc:	00800737          	lui	a4,0x800
     ce0:	ff010113          	addi	sp,sp,-16
     ce4:	fff70713          	addi	a4,a4,-1 # 7fffff <__console_addr+0x7efffb>
     ce8:	01755693          	srli	a3,a0,0x17
     cec:	0175d813          	srli	a6,a1,0x17
     cf0:	00a777b3          	and	a5,a4,a0
     cf4:	0ff6f693          	andi	a3,a3,255
     cf8:	01f55e93          	srli	t4,a0,0x1f
     cfc:	00b77633          	and	a2,a4,a1
     d00:	00912223          	sw	s1,4(sp)
     d04:	01212023          	sw	s2,0(sp)
     d08:	0ff87813          	andi	a6,a6,255
     d0c:	00112623          	sw	ra,12(sp)
     d10:	00812423          	sw	s0,8(sp)
     d14:	0ff00313          	li	t1,255
     d18:	00078e13          	mv	t3,a5
     d1c:	00068913          	mv	s2,a3
     d20:	000e8493          	mv	s1,t4
     d24:	00379f13          	slli	t5,a5,0x3
     d28:	01f5d593          	srli	a1,a1,0x1f
     d2c:	00361513          	slli	a0,a2,0x3
     d30:	410688b3          	sub	a7,a3,a6
     d34:	14680063          	beq	a6,t1,e74 <__subsf3+0x198>
     d38:	0015c593          	xori	a1,a1,1
     d3c:	14be8c63          	beq	t4,a1,e94 <__subsf3+0x1b8>
     d40:	0f105e63          	blez	a7,e3c <__subsf3+0x160>
     d44:	12081e63          	bnez	a6,e80 <__subsf3+0x1a4>
     d48:	24050a63          	beqz	a0,f9c <__subsf3+0x2c0>
     d4c:	fff88893          	addi	a7,a7,-1
     d50:	40af07b3          	sub	a5,t5,a0
     d54:	02088863          	beqz	a7,d84 <__subsf3+0xa8>
     d58:	0ff00793          	li	a5,255
     d5c:	1cf68463          	beq	a3,a5,f24 <__subsf3+0x248>
     d60:	01b00793          	li	a5,27
     d64:	3317c263          	blt	a5,a7,1088 <__subsf3+0x3ac>
     d68:	02000713          	li	a4,32
     d6c:	41170733          	sub	a4,a4,a7
     d70:	00e51733          	sll	a4,a0,a4
     d74:	011557b3          	srl	a5,a0,a7
     d78:	00e03733          	snez	a4,a4
     d7c:	00e7e7b3          	or	a5,a5,a4
     d80:	40ff07b3          	sub	a5,t5,a5
     d84:	00579713          	slli	a4,a5,0x5
     d88:	20075463          	bgez	a4,f90 <__subsf3+0x2b4>
     d8c:	04000437          	lui	s0,0x4000
     d90:	fff40413          	addi	s0,s0,-1 # 3ffffff <__console_addr+0x3fefffb>
     d94:	0087f433          	and	s0,a5,s0
     d98:	00040513          	mv	a0,s0
     d9c:	54c000ef          	jal	ra,12e8 <__clzsi2>
     da0:	ffb50513          	addi	a0,a0,-5
     da4:	00a417b3          	sll	a5,s0,a0
     da8:	23254063          	blt	a0,s2,fc8 <__subsf3+0x2ec>
     dac:	41250533          	sub	a0,a0,s2
     db0:	00150413          	addi	s0,a0,1
     db4:	02000713          	li	a4,32
     db8:	40870733          	sub	a4,a4,s0
     dbc:	00e79733          	sll	a4,a5,a4
     dc0:	00e03733          	snez	a4,a4
     dc4:	0087d7b3          	srl	a5,a5,s0
     dc8:	00e7e7b3          	or	a5,a5,a4
     dcc:	00000913          	li	s2,0
     dd0:	0077f713          	andi	a4,a5,7
     dd4:	00070a63          	beqz	a4,de8 <__subsf3+0x10c>
     dd8:	00f7f713          	andi	a4,a5,15
     ddc:	00400693          	li	a3,4
     de0:	00d70463          	beq	a4,a3,de8 <__subsf3+0x10c>
     de4:	00478793          	addi	a5,a5,4
     de8:	00579713          	slli	a4,a5,0x5
     dec:	1a075663          	bgez	a4,f98 <__subsf3+0x2bc>
     df0:	00190693          	addi	a3,s2,1
     df4:	0ff00713          	li	a4,255
     df8:	0014fe93          	andi	t4,s1,1
     dfc:	1ce68063          	beq	a3,a4,fbc <__subsf3+0x2e0>
     e00:	00679793          	slli	a5,a5,0x6
     e04:	0097d793          	srli	a5,a5,0x9
     e08:	0ff6f693          	andi	a3,a3,255
     e0c:	00979793          	slli	a5,a5,0x9
     e10:	00c12083          	lw	ra,12(sp)
     e14:	00812403          	lw	s0,8(sp)
     e18:	0097d513          	srli	a0,a5,0x9
     e1c:	01769693          	slli	a3,a3,0x17
     e20:	01fe9793          	slli	a5,t4,0x1f
     e24:	00d56533          	or	a0,a0,a3
     e28:	00412483          	lw	s1,4(sp)
     e2c:	00012903          	lw	s2,0(sp)
     e30:	00f56533          	or	a0,a0,a5
     e34:	01010113          	addi	sp,sp,16
     e38:	00008067          	ret
     e3c:	0c089263          	bnez	a7,f00 <__subsf3+0x224>
     e40:	00168713          	addi	a4,a3,1
     e44:	0fe77713          	andi	a4,a4,254
     e48:	18071e63          	bnez	a4,fe4 <__subsf3+0x308>
     e4c:	2a069a63          	bnez	a3,1100 <__subsf3+0x424>
     e50:	280f0063          	beqz	t5,10d0 <__subsf3+0x3f4>
     e54:	fa050ce3          	beqz	a0,e0c <__subsf3+0x130>
     e58:	40af07b3          	sub	a5,t5,a0
     e5c:	00579713          	slli	a4,a5,0x5
     e60:	2c075063          	bgez	a4,1120 <__subsf3+0x444>
     e64:	41e507b3          	sub	a5,a0,t5
     e68:	00000913          	li	s2,0
     e6c:	00058493          	mv	s1,a1
     e70:	f61ff06f          	j	dd0 <__subsf3+0xf4>
     e74:	ec0502e3          	beqz	a0,d38 <__subsf3+0x5c>
     e78:	0cbe8e63          	beq	t4,a1,f54 <__subsf3+0x278>
     e7c:	fd1050e3          	blez	a7,e3c <__subsf3+0x160>
     e80:	0ff00793          	li	a5,255
     e84:	0af68063          	beq	a3,a5,f24 <__subsf3+0x248>
     e88:	040007b7          	lui	a5,0x4000
     e8c:	00f56533          	or	a0,a0,a5
     e90:	ed1ff06f          	j	d60 <__subsf3+0x84>
     e94:	0d105063          	blez	a7,f54 <__subsf3+0x278>
     e98:	0a080063          	beqz	a6,f38 <__subsf3+0x25c>
     e9c:	0ff00793          	li	a5,255
     ea0:	08f68263          	beq	a3,a5,f24 <__subsf3+0x248>
     ea4:	040007b7          	lui	a5,0x4000
     ea8:	00f56533          	or	a0,a0,a5
     eac:	01b00793          	li	a5,27
     eb0:	2717c063          	blt	a5,a7,1110 <__subsf3+0x434>
     eb4:	02000713          	li	a4,32
     eb8:	41170733          	sub	a4,a4,a7
     ebc:	00e51733          	sll	a4,a0,a4
     ec0:	011557b3          	srl	a5,a0,a7
     ec4:	00e03733          	snez	a4,a4
     ec8:	00e7e7b3          	or	a5,a5,a4
     ecc:	01e787b3          	add	a5,a5,t5
     ed0:	00579713          	slli	a4,a5,0x5
     ed4:	0a075e63          	bgez	a4,f90 <__subsf3+0x2b4>
     ed8:	00190913          	addi	s2,s2,1
     edc:	0ff00713          	li	a4,255
     ee0:	0ce90e63          	beq	s2,a4,fbc <__subsf3+0x2e0>
     ee4:	7e0006b7          	lui	a3,0x7e000
     ee8:	0017d713          	srli	a4,a5,0x1
     eec:	fff68693          	addi	a3,a3,-1 # 7dffffff <__console_addr+0x7dfefffb>
     ef0:	0017f793          	andi	a5,a5,1
     ef4:	00d77733          	and	a4,a4,a3
     ef8:	00f767b3          	or	a5,a4,a5
     efc:	ed5ff06f          	j	dd0 <__subsf3+0xf4>
     f00:	40d80733          	sub	a4,a6,a3
     f04:	14069263          	bnez	a3,1048 <__subsf3+0x36c>
     f08:	1a0f0663          	beqz	t5,10b4 <__subsf3+0x3d8>
     f0c:	fff70713          	addi	a4,a4,-1
     f10:	22070263          	beqz	a4,1134 <__subsf3+0x458>
     f14:	0ff00793          	li	a5,255
     f18:	14f81063          	bne	a6,a5,1058 <__subsf3+0x37c>
     f1c:	00058493          	mv	s1,a1
     f20:	00060e13          	mv	t3,a2
     f24:	080e0a63          	beqz	t3,fb8 <__subsf3+0x2dc>
     f28:	00000e93          	li	t4,0
     f2c:	0ff00693          	li	a3,255
     f30:	004007b7          	lui	a5,0x400
     f34:	ed9ff06f          	j	e0c <__subsf3+0x130>
     f38:	06050263          	beqz	a0,f9c <__subsf3+0x2c0>
     f3c:	fff88893          	addi	a7,a7,-1
     f40:	00af07b3          	add	a5,t5,a0
     f44:	f80886e3          	beqz	a7,ed0 <__subsf3+0x1f4>
     f48:	0ff00793          	li	a5,255
     f4c:	f6f690e3          	bne	a3,a5,eac <__subsf3+0x1d0>
     f50:	fd5ff06f          	j	f24 <__subsf3+0x248>
     f54:	0a089863          	bnez	a7,1004 <__subsf3+0x328>
     f58:	00168913          	addi	s2,a3,1
     f5c:	0fe97713          	andi	a4,s2,254
     f60:	18071063          	bnez	a4,10e0 <__subsf3+0x404>
     f64:	16069063          	bnez	a3,10c4 <__subsf3+0x3e8>
     f68:	1c0f0e63          	beqz	t5,1144 <__subsf3+0x468>
     f6c:	ea0500e3          	beqz	a0,e0c <__subsf3+0x130>
     f70:	00af07b3          	add	a5,t5,a0
     f74:	00579713          	slli	a4,a5,0x5
     f78:	00000913          	li	s2,0
     f7c:	00075a63          	bgez	a4,f90 <__subsf3+0x2b4>
     f80:	fc000737          	lui	a4,0xfc000
     f84:	fff70713          	addi	a4,a4,-1 # fbffffff <__console_addr+0xfbfefffb>
     f88:	00e7f7b3          	and	a5,a5,a4
     f8c:	00100913          	li	s2,1
     f90:	0077f713          	andi	a4,a5,7
     f94:	e40712e3          	bnez	a4,dd8 <__subsf3+0xfc>
     f98:	0037de13          	srli	t3,a5,0x3
     f9c:	0ff00793          	li	a5,255
     fa0:	f8f902e3          	beq	s2,a5,f24 <__subsf3+0x248>
     fa4:	009e1793          	slli	a5,t3,0x9
     fa8:	0097d793          	srli	a5,a5,0x9
     fac:	0ff97693          	andi	a3,s2,255
     fb0:	0014fe93          	andi	t4,s1,1
     fb4:	e59ff06f          	j	e0c <__subsf3+0x130>
     fb8:	0014fe93          	andi	t4,s1,1
     fbc:	0ff00693          	li	a3,255
     fc0:	00000793          	li	a5,0
     fc4:	e49ff06f          	j	e0c <__subsf3+0x130>
     fc8:	fc000737          	lui	a4,0xfc000
     fcc:	fff70713          	addi	a4,a4,-1 # fbffffff <__console_addr+0xfbfefffb>
     fd0:	00e7f7b3          	and	a5,a5,a4
     fd4:	0077f713          	andi	a4,a5,7
     fd8:	40a90933          	sub	s2,s2,a0
     fdc:	de071ee3          	bnez	a4,dd8 <__subsf3+0xfc>
     fe0:	fb9ff06f          	j	f98 <__subsf3+0x2bc>
     fe4:	40af0433          	sub	s0,t5,a0
     fe8:	00541793          	slli	a5,s0,0x5
     fec:	1007c463          	bltz	a5,10f4 <__subsf3+0x418>
     ff0:	da0414e3          	bnez	s0,d98 <__subsf3+0xbc>
     ff4:	00000e93          	li	t4,0
     ff8:	00000693          	li	a3,0
     ffc:	00000793          	li	a5,0
    1000:	e0dff06f          	j	e0c <__subsf3+0x130>
    1004:	40d80733          	sub	a4,a6,a3
    1008:	08068463          	beqz	a3,1090 <__subsf3+0x3b4>
    100c:	0ff00793          	li	a5,255
    1010:	f0f808e3          	beq	a6,a5,f20 <__subsf3+0x244>
    1014:	040007b7          	lui	a5,0x4000
    1018:	00ff6f33          	or	t5,t5,a5
    101c:	01b00793          	li	a5,27
    1020:	12e7cc63          	blt	a5,a4,1158 <__subsf3+0x47c>
    1024:	02000793          	li	a5,32
    1028:	40e787b3          	sub	a5,a5,a4
    102c:	00ff17b3          	sll	a5,t5,a5
    1030:	00ef5733          	srl	a4,t5,a4
    1034:	00f037b3          	snez	a5,a5
    1038:	00f76733          	or	a4,a4,a5
    103c:	00a707b3          	add	a5,a4,a0
    1040:	00080913          	mv	s2,a6
    1044:	e8dff06f          	j	ed0 <__subsf3+0x1f4>
    1048:	0ff00793          	li	a5,255
    104c:	ecf808e3          	beq	a6,a5,f1c <__subsf3+0x240>
    1050:	040007b7          	lui	a5,0x4000
    1054:	00ff6f33          	or	t5,t5,a5
    1058:	01b00793          	li	a5,27
    105c:	0ae7ce63          	blt	a5,a4,1118 <__subsf3+0x43c>
    1060:	02000793          	li	a5,32
    1064:	40e787b3          	sub	a5,a5,a4
    1068:	00ff17b3          	sll	a5,t5,a5
    106c:	00ef5733          	srl	a4,t5,a4
    1070:	00f037b3          	snez	a5,a5
    1074:	00f767b3          	or	a5,a4,a5
    1078:	40f507b3          	sub	a5,a0,a5
    107c:	00080913          	mv	s2,a6
    1080:	00058493          	mv	s1,a1
    1084:	d01ff06f          	j	d84 <__subsf3+0xa8>
    1088:	00100793          	li	a5,1
    108c:	cf5ff06f          	j	d80 <__subsf3+0xa4>
    1090:	0a0f0e63          	beqz	t5,114c <__subsf3+0x470>
    1094:	fff70713          	addi	a4,a4,-1
    1098:	00af07b3          	add	a5,t5,a0
    109c:	00080913          	mv	s2,a6
    10a0:	e20708e3          	beqz	a4,ed0 <__subsf3+0x1f4>
    10a4:	0ff00793          	li	a5,255
    10a8:	f6f81ae3          	bne	a6,a5,101c <__subsf3+0x340>
    10ac:	00060e13          	mv	t3,a2
    10b0:	e75ff06f          	j	f24 <__subsf3+0x248>
    10b4:	00060e13          	mv	t3,a2
    10b8:	00080913          	mv	s2,a6
    10bc:	00058493          	mv	s1,a1
    10c0:	eddff06f          	j	f9c <__subsf3+0x2c0>
    10c4:	e40f0ee3          	beqz	t5,f20 <__subsf3+0x244>
    10c8:	e4050ee3          	beqz	a0,f24 <__subsf3+0x248>
    10cc:	e5dff06f          	j	f28 <__subsf3+0x24c>
    10d0:	04050c63          	beqz	a0,1128 <__subsf3+0x44c>
    10d4:	00058e93          	mv	t4,a1
    10d8:	00060793          	mv	a5,a2
    10dc:	d31ff06f          	j	e0c <__subsf3+0x130>
    10e0:	0ff00793          	li	a5,255
    10e4:	ecf90ce3          	beq	s2,a5,fbc <__subsf3+0x2e0>
    10e8:	00af07b3          	add	a5,t5,a0
    10ec:	0017d793          	srli	a5,a5,0x1
    10f0:	ea1ff06f          	j	f90 <__subsf3+0x2b4>
    10f4:	41e50433          	sub	s0,a0,t5
    10f8:	00058493          	mv	s1,a1
    10fc:	c9dff06f          	j	d98 <__subsf3+0xbc>
    1100:	fc0f14e3          	bnez	t5,10c8 <__subsf3+0x3ec>
    1104:	e20502e3          	beqz	a0,f28 <__subsf3+0x24c>
    1108:	00058493          	mv	s1,a1
    110c:	e15ff06f          	j	f20 <__subsf3+0x244>
    1110:	00100793          	li	a5,1
    1114:	db9ff06f          	j	ecc <__subsf3+0x1f0>
    1118:	00100793          	li	a5,1
    111c:	f5dff06f          	j	1078 <__subsf3+0x39c>
    1120:	00000913          	li	s2,0
    1124:	e60796e3          	bnez	a5,f90 <__subsf3+0x2b4>
    1128:	00000e93          	li	t4,0
    112c:	00000793          	li	a5,0
    1130:	cddff06f          	j	e0c <__subsf3+0x130>
    1134:	41e507b3          	sub	a5,a0,t5
    1138:	00080913          	mv	s2,a6
    113c:	00058493          	mv	s1,a1
    1140:	c45ff06f          	j	d84 <__subsf3+0xa8>
    1144:	00060793          	mv	a5,a2
    1148:	cc5ff06f          	j	e0c <__subsf3+0x130>
    114c:	00060e13          	mv	t3,a2
    1150:	00080913          	mv	s2,a6
    1154:	e49ff06f          	j	f9c <__subsf3+0x2c0>
    1158:	00100713          	li	a4,1
    115c:	ee1ff06f          	j	103c <__subsf3+0x360>

Disassembly of section .text.__fixsfsi:

00001160 <__fixsfsi>:
    1160:	00800637          	lui	a2,0x800
    1164:	01755713          	srli	a4,a0,0x17
    1168:	fff60793          	addi	a5,a2,-1 # 7fffff <__console_addr+0x7efffb>
    116c:	0ff77713          	andi	a4,a4,255
    1170:	07e00593          	li	a1,126
    1174:	00a7f6b3          	and	a3,a5,a0
    1178:	01f55793          	srli	a5,a0,0x1f
    117c:	00e5fe63          	bgeu	a1,a4,1198 <__fixsfsi+0x38>
    1180:	09d00593          	li	a1,157
    1184:	00e5fe63          	bgeu	a1,a4,11a0 <__fixsfsi+0x40>
    1188:	80000537          	lui	a0,0x80000
    118c:	fff54513          	not	a0,a0
    1190:	00a78533          	add	a0,a5,a0
    1194:	00008067          	ret
    1198:	00000513          	li	a0,0
    119c:	00008067          	ret
    11a0:	09500593          	li	a1,149
    11a4:	00c6e6b3          	or	a3,a3,a2
    11a8:	02e5c063          	blt	a1,a4,11c8 <__fixsfsi+0x68>
    11ac:	09600613          	li	a2,150
    11b0:	40e60733          	sub	a4,a2,a4
    11b4:	00e6d733          	srl	a4,a3,a4
    11b8:	40e00533          	neg	a0,a4
    11bc:	fe0790e3          	bnez	a5,119c <__fixsfsi+0x3c>
    11c0:	00070513          	mv	a0,a4
    11c4:	00008067          	ret
    11c8:	f6a70713          	addi	a4,a4,-150
    11cc:	00e69733          	sll	a4,a3,a4
    11d0:	fe9ff06f          	j	11b8 <__fixsfsi+0x58>

Disassembly of section .text.__floatsisf:

000011d4 <__floatsisf>:
    11d4:	ff010113          	addi	sp,sp,-16
    11d8:	00112623          	sw	ra,12(sp)
    11dc:	00812423          	sw	s0,8(sp)
    11e0:	00912223          	sw	s1,4(sp)
    11e4:	04050863          	beqz	a0,1234 <__floatsisf+0x60>
    11e8:	41f55793          	srai	a5,a0,0x1f
    11ec:	00a7c433          	xor	s0,a5,a0
    11f0:	40f40433          	sub	s0,s0,a5
    11f4:	00050493          	mv	s1,a0
    11f8:	00040513          	mv	a0,s0
    11fc:	0ec000ef          	jal	ra,12e8 <__clzsi2>
    1200:	09e00793          	li	a5,158
    1204:	40a78733          	sub	a4,a5,a0
    1208:	09600793          	li	a5,150
    120c:	01f4d493          	srli	s1,s1,0x1f
    1210:	04e7ce63          	blt	a5,a4,126c <__floatsisf+0x98>
    1214:	00800693          	li	a3,8
    1218:	0ff77793          	andi	a5,a4,255
    121c:	00a6d663          	bge	a3,a0,1228 <__floatsisf+0x54>
    1220:	ff850513          	addi	a0,a0,-8 # 7ffffff8 <__console_addr+0x7ffefff4>
    1224:	00a41433          	sll	s0,s0,a0
    1228:	00941413          	slli	s0,s0,0x9
    122c:	00945413          	srli	s0,s0,0x9
    1230:	0100006f          	j	1240 <__floatsisf+0x6c>
    1234:	00000493          	li	s1,0
    1238:	00000793          	li	a5,0
    123c:	00000413          	li	s0,0
    1240:	00941413          	slli	s0,s0,0x9
    1244:	00945513          	srli	a0,s0,0x9
    1248:	00c12083          	lw	ra,12(sp)
    124c:	00812403          	lw	s0,8(sp)
    1250:	01779793          	slli	a5,a5,0x17
    1254:	01f49493          	slli	s1,s1,0x1f
    1258:	00f56533          	or	a0,a0,a5
    125c:	00956533          	or	a0,a0,s1
    1260:	00412483          	lw	s1,4(sp)
    1264:	01010113          	addi	sp,sp,16
    1268:	00008067          	ret
    126c:	09900793          	li	a5,153
    1270:	02e7d063          	bge	a5,a4,1290 <__floatsisf+0xbc>
    1274:	01b50793          	addi	a5,a0,27
    1278:	00500693          	li	a3,5
    127c:	00f417b3          	sll	a5,s0,a5
    1280:	40a686b3          	sub	a3,a3,a0
    1284:	00d45433          	srl	s0,s0,a3
    1288:	00f037b3          	snez	a5,a5
    128c:	00f46433          	or	s0,s0,a5
    1290:	00500793          	li	a5,5
    1294:	00a7d663          	bge	a5,a0,12a0 <__floatsisf+0xcc>
    1298:	ffb50793          	addi	a5,a0,-5
    129c:	00f41433          	sll	s0,s0,a5
    12a0:	fc0006b7          	lui	a3,0xfc000
    12a4:	fff68693          	addi	a3,a3,-1 # fbffffff <__console_addr+0xfbfefffb>
    12a8:	00747793          	andi	a5,s0,7
    12ac:	00d47633          	and	a2,s0,a3
    12b0:	02078463          	beqz	a5,12d8 <__floatsisf+0x104>
    12b4:	00f47793          	andi	a5,s0,15
    12b8:	00400593          	li	a1,4
    12bc:	00b78e63          	beq	a5,a1,12d8 <__floatsisf+0x104>
    12c0:	00460613          	addi	a2,a2,4
    12c4:	00561793          	slli	a5,a2,0x5
    12c8:	0007d863          	bgez	a5,12d8 <__floatsisf+0x104>
    12cc:	09f00793          	li	a5,159
    12d0:	00d67633          	and	a2,a2,a3
    12d4:	40a78733          	sub	a4,a5,a0
    12d8:	00661413          	slli	s0,a2,0x6
    12dc:	00945413          	srli	s0,s0,0x9
    12e0:	0ff77793          	andi	a5,a4,255
    12e4:	f5dff06f          	j	1240 <__floatsisf+0x6c>

Disassembly of section .text.__clzsi2:

000012e8 <__clzsi2>:
    12e8:	000107b7          	lui	a5,0x10
    12ec:	04f57463          	bgeu	a0,a5,1334 <__clzsi2+0x4c>
    12f0:	0ff00793          	li	a5,255
    12f4:	02000713          	li	a4,32
    12f8:	00a7ee63          	bltu	a5,a0,1314 <__clzsi2+0x2c>
    12fc:	00000797          	auipc	a5,0x0
    1300:	0e878793          	addi	a5,a5,232 # 13e4 <__clz_tab>
    1304:	00a787b3          	add	a5,a5,a0
    1308:	0007c503          	lbu	a0,0(a5)
    130c:	40a70533          	sub	a0,a4,a0
    1310:	00008067          	ret
    1314:	00855513          	srli	a0,a0,0x8
    1318:	00000797          	auipc	a5,0x0
    131c:	0cc78793          	addi	a5,a5,204 # 13e4 <__clz_tab>
    1320:	00a787b3          	add	a5,a5,a0
    1324:	0007c503          	lbu	a0,0(a5)
    1328:	01800713          	li	a4,24
    132c:	40a70533          	sub	a0,a4,a0
    1330:	00008067          	ret
    1334:	010007b7          	lui	a5,0x1000
    1338:	02f56263          	bltu	a0,a5,135c <__clzsi2+0x74>
    133c:	01855513          	srli	a0,a0,0x18
    1340:	00000797          	auipc	a5,0x0
    1344:	0a478793          	addi	a5,a5,164 # 13e4 <__clz_tab>
    1348:	00a787b3          	add	a5,a5,a0
    134c:	0007c503          	lbu	a0,0(a5)
    1350:	00800713          	li	a4,8
    1354:	40a70533          	sub	a0,a4,a0
    1358:	00008067          	ret
    135c:	01055513          	srli	a0,a0,0x10
    1360:	00000797          	auipc	a5,0x0
    1364:	08478793          	addi	a5,a5,132 # 13e4 <__clz_tab>
    1368:	00a787b3          	add	a5,a5,a0
    136c:	0007c503          	lbu	a0,0(a5)
    1370:	01000713          	li	a4,16
    1374:	40a70533          	sub	a0,a4,a0
    1378:	00008067          	ret

Disassembly of section .vector:

0000137c <vector>:
    137c:	fffc                	fsw	fa5,124(a5)
    137e:	0000                	unimp
    1380:	0020                	addi	s0,sp,8
	...

Disassembly of section .rodata:

00001384 <__clz_tab-0x60>:
    1384:	7266                	flw	ft4,120(sp)
    1386:	6361                	lui	t1,0x18
    1388:	6974                	flw	fa3,84(a0)
    138a:	70206e6f          	jal	t3,7a8c <__clz_tab+0x66a8>
    138e:	7261                	lui	tp,0xffff8
    1390:	2074                	fld	fa3,192(s0)
    1392:	203a                	fld	ft0,392(sp)
    1394:	6425                	lui	s0,0x9
    1396:	0000                	unimp
    1398:	421aaf4f          	fnmadd.d	ft10,fs5,ft1,fs0,rdn
    139c:	264c                	fld	fa1,136(a2)
    139e:	41b6                	lw	gp,76(sp)
    13a0:	4000                	lw	s0,0(s0)
    13a2:	461c                	lw	a5,8(a2)
    13a4:	f7b0                	fsw	fa2,104(a5)
    13a6:	ffff                	0xffff
    13a8:	f6b0                	fsw	fa2,104(a3)
    13aa:	ffff                	0xffff
    13ac:	f6b0                	fsw	fa2,104(a3)
    13ae:	ffff                	0xffff
    13b0:	f6ac                	fsw	fa1,104(a3)
    13b2:	ffff                	0xffff
    13b4:	f6b8                	fsw	fa4,104(a3)
    13b6:	ffff                	0xffff
    13b8:	f6b8                	fsw	fa4,104(a3)
    13ba:	ffff                	0xffff
    13bc:	f660                	fsw	fs0,108(a2)
    13be:	ffff                	0xffff
    13c0:	f6ac                	fsw	fa1,104(a3)
    13c2:	ffff                	0xffff
    13c4:	f6b8                	fsw	fa4,104(a3)
    13c6:	ffff                	0xffff
    13c8:	f660                	fsw	fs0,108(a2)
    13ca:	ffff                	0xffff
    13cc:	f6b8                	fsw	fa4,104(a3)
    13ce:	ffff                	0xffff
    13d0:	f6ac                	fsw	fa1,104(a3)
    13d2:	ffff                	0xffff
    13d4:	f794                	fsw	fa3,40(a5)
    13d6:	ffff                	0xffff
    13d8:	f794                	fsw	fa3,40(a5)
    13da:	ffff                	0xffff
    13dc:	f794                	fsw	fa3,40(a5)
    13de:	ffff                	0xffff
    13e0:	f660                	fsw	fs0,108(a2)
    13e2:	ffff                	0xffff

000013e4 <__clz_tab>:
    13e4:	0100                	addi	s0,sp,128
    13e6:	0202                	c.slli64	tp
    13e8:	03030303          	lb	t1,48(t1) # 18030 <__console_addr+0x802c>
    13ec:	0404                	addi	s1,sp,512
    13ee:	0404                	addi	s1,sp,512
    13f0:	0404                	addi	s1,sp,512
    13f2:	0404                	addi	s1,sp,512
    13f4:	0505                	addi	a0,a0,1
    13f6:	0505                	addi	a0,a0,1
    13f8:	0505                	addi	a0,a0,1
    13fa:	0505                	addi	a0,a0,1
    13fc:	0505                	addi	a0,a0,1
    13fe:	0505                	addi	a0,a0,1
    1400:	0505                	addi	a0,a0,1
    1402:	0505                	addi	a0,a0,1
    1404:	0606                	slli	a2,a2,0x1
    1406:	0606                	slli	a2,a2,0x1
    1408:	0606                	slli	a2,a2,0x1
    140a:	0606                	slli	a2,a2,0x1
    140c:	0606                	slli	a2,a2,0x1
    140e:	0606                	slli	a2,a2,0x1
    1410:	0606                	slli	a2,a2,0x1
    1412:	0606                	slli	a2,a2,0x1
    1414:	0606                	slli	a2,a2,0x1
    1416:	0606                	slli	a2,a2,0x1
    1418:	0606                	slli	a2,a2,0x1
    141a:	0606                	slli	a2,a2,0x1
    141c:	0606                	slli	a2,a2,0x1
    141e:	0606                	slli	a2,a2,0x1
    1420:	0606                	slli	a2,a2,0x1
    1422:	0606                	slli	a2,a2,0x1
    1424:	07070707          	0x7070707
    1428:	07070707          	0x7070707
    142c:	07070707          	0x7070707
    1430:	07070707          	0x7070707
    1434:	07070707          	0x7070707
    1438:	07070707          	0x7070707
    143c:	07070707          	0x7070707
    1440:	07070707          	0x7070707
    1444:	07070707          	0x7070707
    1448:	07070707          	0x7070707
    144c:	07070707          	0x7070707
    1450:	07070707          	0x7070707
    1454:	07070707          	0x7070707
    1458:	07070707          	0x7070707
    145c:	07070707          	0x7070707
    1460:	07070707          	0x7070707
    1464:	0808                	addi	a0,sp,16
    1466:	0808                	addi	a0,sp,16
    1468:	0808                	addi	a0,sp,16
    146a:	0808                	addi	a0,sp,16
    146c:	0808                	addi	a0,sp,16
    146e:	0808                	addi	a0,sp,16
    1470:	0808                	addi	a0,sp,16
    1472:	0808                	addi	a0,sp,16
    1474:	0808                	addi	a0,sp,16
    1476:	0808                	addi	a0,sp,16
    1478:	0808                	addi	a0,sp,16
    147a:	0808                	addi	a0,sp,16
    147c:	0808                	addi	a0,sp,16
    147e:	0808                	addi	a0,sp,16
    1480:	0808                	addi	a0,sp,16
    1482:	0808                	addi	a0,sp,16
    1484:	0808                	addi	a0,sp,16
    1486:	0808                	addi	a0,sp,16
    1488:	0808                	addi	a0,sp,16
    148a:	0808                	addi	a0,sp,16
    148c:	0808                	addi	a0,sp,16
    148e:	0808                	addi	a0,sp,16
    1490:	0808                	addi	a0,sp,16
    1492:	0808                	addi	a0,sp,16
    1494:	0808                	addi	a0,sp,16
    1496:	0808                	addi	a0,sp,16
    1498:	0808                	addi	a0,sp,16
    149a:	0808                	addi	a0,sp,16
    149c:	0808                	addi	a0,sp,16
    149e:	0808                	addi	a0,sp,16
    14a0:	0808                	addi	a0,sp,16
    14a2:	0808                	addi	a0,sp,16
    14a4:	0808                	addi	a0,sp,16
    14a6:	0808                	addi	a0,sp,16
    14a8:	0808                	addi	a0,sp,16
    14aa:	0808                	addi	a0,sp,16
    14ac:	0808                	addi	a0,sp,16
    14ae:	0808                	addi	a0,sp,16
    14b0:	0808                	addi	a0,sp,16
    14b2:	0808                	addi	a0,sp,16
    14b4:	0808                	addi	a0,sp,16
    14b6:	0808                	addi	a0,sp,16
    14b8:	0808                	addi	a0,sp,16
    14ba:	0808                	addi	a0,sp,16
    14bc:	0808                	addi	a0,sp,16
    14be:	0808                	addi	a0,sp,16
    14c0:	0808                	addi	a0,sp,16
    14c2:	0808                	addi	a0,sp,16
    14c4:	0808                	addi	a0,sp,16
    14c6:	0808                	addi	a0,sp,16
    14c8:	0808                	addi	a0,sp,16
    14ca:	0808                	addi	a0,sp,16
    14cc:	0808                	addi	a0,sp,16
    14ce:	0808                	addi	a0,sp,16
    14d0:	0808                	addi	a0,sp,16
    14d2:	0808                	addi	a0,sp,16
    14d4:	0808                	addi	a0,sp,16
    14d6:	0808                	addi	a0,sp,16
    14d8:	0808                	addi	a0,sp,16
    14da:	0808                	addi	a0,sp,16
    14dc:	0808                	addi	a0,sp,16
    14de:	0808                	addi	a0,sp,16
    14e0:	0808                	addi	a0,sp,16
    14e2:	0808                	addi	a0,sp,16

Disassembly of section .eh_frame:

000014e4 <.eh_frame>:
    14e4:	0010                	0x10
    14e6:	0000                	unimp
    14e8:	0000                	unimp
    14ea:	0000                	unimp
    14ec:	7a01                	lui	s4,0xfffe0
    14ee:	0052                	c.slli	zero,0x14
    14f0:	7c01                	lui	s8,0xfffe0
    14f2:	0101                	addi	sp,sp,0
    14f4:	00020d1b          	0x20d1b
    14f8:	0024                	addi	s1,sp,8
    14fa:	0000                	unimp
    14fc:	0018                	0x18
    14fe:	0000                	unimp
    1500:	eb20                	fsw	fs0,80(a4)
    1502:	ffff                	0xffff
    1504:	0028                	addi	a0,sp,8
    1506:	0000                	unimp
    1508:	4400                	lw	s0,8(s0)
    150a:	100e                	c.slli	zero,0x23
    150c:	8148                	0x8148
    150e:	8801                	andi	s0,s0,0
    1510:	4402                	lw	s0,0(sp)
    1512:	080c                	addi	a1,sp,16
    1514:	4c00                	lw	s0,24(s0)
    1516:	44c1                	li	s1,16
    1518:	0cc8                	addi	a0,sp,596
    151a:	1002                	c.slli	zero,0x20
    151c:	0e44                	addi	s1,sp,788
    151e:	0000                	unimp
    1520:	0020                	addi	s0,sp,8
    1522:	0000                	unimp
    1524:	0040                	addi	s0,sp,4
    1526:	0000                	unimp
    1528:	eb20                	fsw	fs0,80(a4)
    152a:	ffff                	0xffff
    152c:	0064                	addi	s1,sp,12
    152e:	0000                	unimp
    1530:	4400                	lw	s0,8(s0)
    1532:	300e                	fld	ft0,224(sp)
    1534:	8844                	0x8844
    1536:	4401                	li	s0,0
    1538:	080c                	addi	a1,sp,16
    153a:	0200                	addi	s0,sp,256
    153c:	c850                	sw	a2,20(s0)
    153e:	020c                	addi	a1,sp,256
    1540:	4430                	lw	a2,72(s0)
    1542:	000e                	c.slli	zero,0x3
    1544:	0024                	addi	s1,sp,8
    1546:	0000                	unimp
    1548:	0064                	addi	s1,sp,12
    154a:	0000                	unimp
    154c:	eb60                	fsw	fs0,84(a4)
    154e:	ffff                	0xffff
    1550:	009c                	addi	a5,sp,64
    1552:	0000                	unimp
    1554:	4400                	lw	s0,8(s0)
    1556:	300e                	fld	ft0,224(sp)
    1558:	8148                	0x8148
    155a:	8801                	andi	s0,s0,0
    155c:	4402                	lw	s0,0(sp)
    155e:	080c                	addi	a1,sp,16
    1560:	0200                	addi	s0,sp,256
    1562:	c180                	sw	s0,0(a1)
    1564:	c844                	sw	s1,20(s0)
    1566:	020c                	addi	a1,sp,256
    1568:	4430                	lw	a2,72(s0)
    156a:	000e                	c.slli	zero,0x3
    156c:	0020                	addi	s0,sp,8
    156e:	0000                	unimp
    1570:	008c                	addi	a1,sp,64
    1572:	0000                	unimp
    1574:	ebd4                	fsw	fa3,20(a5)
    1576:	ffff                	0xffff
    1578:	0034                	addi	a3,sp,8
    157a:	0000                	unimp
    157c:	4400                	lw	s0,8(s0)
    157e:	200e                	fld	ft0,192(sp)
    1580:	8844                	0x8844
    1582:	4401                	li	s0,0
    1584:	080c                	addi	a1,sp,16
    1586:	6000                	flw	fs0,0(s0)
    1588:	0cc8                	addi	a0,sp,596
    158a:	2002                	fld	ft0,0(sp)
    158c:	0e44                	addi	s1,sp,788
    158e:	0000                	unimp
    1590:	0020                	addi	s0,sp,8
    1592:	0000                	unimp
    1594:	00b0                	addi	a2,sp,72
    1596:	0000                	unimp
    1598:	ebe4                	fsw	fs1,84(a5)
    159a:	ffff                	0xffff
    159c:	0070                	addi	a2,sp,12
    159e:	0000                	unimp
    15a0:	4400                	lw	s0,8(s0)
    15a2:	300e                	fld	ft0,224(sp)
    15a4:	8844                	0x8844
    15a6:	4401                	li	s0,0
    15a8:	080c                	addi	a1,sp,16
    15aa:	0200                	addi	s0,sp,256
    15ac:	c85c                	sw	a5,20(s0)
    15ae:	020c                	addi	a1,sp,256
    15b0:	4430                	lw	a2,72(s0)
    15b2:	000e                	c.slli	zero,0x3
    15b4:	0020                	addi	s0,sp,8
    15b6:	0000                	unimp
    15b8:	00d4                	addi	a3,sp,68
    15ba:	0000                	unimp
    15bc:	ec30                	fsw	fa2,88(s0)
    15be:	ffff                	0xffff
    15c0:	004c                	addi	a1,sp,4
    15c2:	0000                	unimp
    15c4:	4400                	lw	s0,8(s0)
    15c6:	300e                	fld	ft0,224(sp)
    15c8:	8844                	0x8844
    15ca:	4401                	li	s0,0
    15cc:	080c                	addi	a1,sp,16
    15ce:	7800                	flw	fs0,48(s0)
    15d0:	0cc8                	addi	a0,sp,596
    15d2:	3002                	fld	ft0,32(sp)
    15d4:	0e44                	addi	s1,sp,788
    15d6:	0000                	unimp
    15d8:	0028                	addi	a0,sp,8
    15da:	0000                	unimp
    15dc:	00f8                	addi	a4,sp,76
    15de:	0000                	unimp
    15e0:	ec58                	fsw	fa4,28(s0)
    15e2:	ffff                	0xffff
    15e4:	0214                	addi	a3,sp,256
    15e6:	0000                	unimp
    15e8:	4400                	lw	s0,8(s0)
    15ea:	500e                	0x500e
    15ec:	8148                	0x8148
    15ee:	8801                	andi	s0,s0,0
    15f0:	4402                	lw	s0,0(sp)
    15f2:	080c                	addi	a1,sp,16
    15f4:	0300                	addi	s0,sp,384
    15f6:	01f8                	addi	a4,sp,204
    15f8:	44c1                	li	s1,16
    15fa:	0cc8                	addi	a0,sp,596
    15fc:	5002                	0x5002
    15fe:	0e44                	addi	s1,sp,788
    1600:	0000                	unimp
    1602:	0000                	unimp
    1604:	0028                	addi	a0,sp,8
    1606:	0000                	unimp
    1608:	0124                	addi	s1,sp,136
    160a:	0000                	unimp
    160c:	ee40                	fsw	fs0,28(a2)
    160e:	ffff                	0xffff
    1610:	026c                	addi	a1,sp,268
    1612:	0000                	unimp
    1614:	4400                	lw	s0,8(s0)
    1616:	500e                	0x500e
    1618:	8148                	0x8148
    161a:	8801                	andi	s0,s0,0
    161c:	4402                	lw	s0,0(sp)
    161e:	080c                	addi	a1,sp,16
    1620:	0300                	addi	s0,sp,384
    1622:	0250                	addi	a2,sp,260
    1624:	44c1                	li	s1,16
    1626:	0cc8                	addi	a0,sp,596
    1628:	5002                	0x5002
    162a:	0e44                	addi	s1,sp,788
    162c:	0000                	unimp
    162e:	0000                	unimp
    1630:	0024                	addi	s1,sp,8
    1632:	0000                	unimp
    1634:	0150                	addi	a2,sp,132
    1636:	0000                	unimp
    1638:	f080                	fsw	fs0,32(s1)
    163a:	ffff                	0xffff
    163c:	006c                	addi	a1,sp,12
    163e:	0000                	unimp
    1640:	4400                	lw	s0,8(s0)
    1642:	500e                	0x500e
    1644:	8148                	0x8148
    1646:	8809                	andi	s0,s0,2
    1648:	440a                	lw	s0,128(sp)
    164a:	080c                	addi	a1,sp,16
    164c:	0220                	addi	s0,sp,264
    164e:	c150                	sw	a2,4(a0)
    1650:	c844                	sw	s1,20(s0)
    1652:	020c                	addi	a1,sp,256
    1654:	4450                	lw	a2,12(s0)
    1656:	000e                	c.slli	zero,0x3
    1658:	0024                	addi	s1,sp,8
    165a:	0000                	unimp
    165c:	0178                	addi	a4,sp,140
    165e:	0000                	unimp
    1660:	f0c4                	fsw	fs1,36(s1)
    1662:	ffff                	0xffff
    1664:	0070                	addi	a2,sp,12
    1666:	0000                	unimp
    1668:	4400                	lw	s0,8(s0)
    166a:	500e                	0x500e
    166c:	8148                	0x8148
    166e:	8809                	andi	s0,s0,2
    1670:	440a                	lw	s0,128(sp)
    1672:	080c                	addi	a1,sp,16
    1674:	0220                	addi	s0,sp,264
    1676:	c154                	sw	a3,4(a0)
    1678:	c844                	sw	s1,20(s0)
    167a:	020c                	addi	a1,sp,256
    167c:	4450                	lw	a2,12(s0)
    167e:	000e                	c.slli	zero,0x3
    1680:	0024                	addi	s1,sp,8
    1682:	0000                	unimp
    1684:	01a0                	addi	s0,sp,200
    1686:	0000                	unimp
    1688:	f10c                	fsw	fa1,32(a0)
    168a:	ffff                	0xffff
    168c:	00c0                	addi	s0,sp,68
    168e:	0000                	unimp
    1690:	4400                	lw	s0,8(s0)
    1692:	300e                	fld	ft0,224(sp)
    1694:	8148                	0x8148
    1696:	8801                	andi	s0,s0,0
    1698:	4402                	lw	s0,0(sp)
    169a:	080c                	addi	a1,sp,16
    169c:	0200                	addi	s0,sp,256
    169e:	c1a4                	sw	s1,64(a1)
    16a0:	c844                	sw	s1,20(s0)
    16a2:	020c                	addi	a1,sp,256
    16a4:	4430                	lw	a2,72(s0)
    16a6:	000e                	c.slli	zero,0x3

Disassembly of section .comment:

00000000 <.comment>:
   0:	3a434347          	fmsub.d	ft6,ft6,ft4,ft7,rmm
   4:	2820                	fld	fs0,80(s0)
   6:	5078                	lw	a4,100(s0)
   8:	6361                	lui	t1,0x18
   a:	4e47206b          	0x4e47206b
   e:	2055                	jal	b2 <_Z12write_stringPc+0x6>
  10:	4952                	lw	s2,20(sp)
  12:	562d4353          	0x562d4353
  16:	4520                	lw	s0,72(a0)
  18:	626d                	lui	tp,0x1b
  1a:	6465                	lui	s0,0x19
  1c:	6564                	flw	fs1,76(a0)
  1e:	2064                	fld	fs1,192(s0)
  20:	2c434347          	0x2c434347
  24:	3620                	fld	fs0,104(a2)
  26:	2d34                	fld	fa3,88(a0)
  28:	6962                	flw	fs2,24(sp)
  2a:	2974                	fld	fa3,208(a0)
  2c:	3820                	fld	fs0,112(s0)
  2e:	332e                	fld	ft6,232(sp)
  30:	302e                	fld	ft0,232(sp)
	...

Disassembly of section .debug_frame:

00000000 <.debug_frame>:
   0:	000c                	0xc
   2:	0000                	unimp
   4:	ffff                	0xffff
   6:	ffff                	0xffff
   8:	0001                	nop
   a:	7c01                	lui	s8,0xfffe0
   c:	0d01                	addi	s10,s10,0
   e:	0002                	c.slli64	zero
  10:	003c                	addi	a5,sp,8
  12:	0000                	unimp
  14:	0000                	unimp
  16:	0000                	unimp
  18:	092c                	addi	a1,sp,152
  1a:	0000                	unimp
  1c:	03b0                	addi	a2,sp,456
  1e:	0000                	unimp
  20:	0e44                	addi	s1,sp,788
  22:	4430                	lw	a2,72(s0)
  24:	0288                	addi	a0,sp,320
  26:	944c                	0x944c
  28:	9506                	add	a0,a0,ra
  2a:	01815807          	0x1815807
  2e:	0389                	addi	t2,t2,2
  30:	0492                	slli	s1,s1,0x4
  32:	08960593          	addi	a1,a2,137
  36:	bc02                	fsd	ft0,56(sp)
  38:	c10a                	sw	sp,128(sp)
  3a:	c844                	sw	s1,20(s0)
  3c:	c958                	sw	a4,20(a0)
  3e:	d244                	sw	s1,36(a2)
  40:	d344                	sw	s1,36(a4)
  42:	d444                	sw	s1,44(s0)
  44:	d544                	sw	s1,44(a0)
  46:	d644                	sw	s1,44(a2)
  48:	0e48                	addi	a0,sp,788
  4a:	4400                	lw	s0,8(s0)
  4c:	0000000b          	0xb
  50:	000c                	0xc
  52:	0000                	unimp
  54:	ffff                	0xffff
  56:	ffff                	0xffff
  58:	0001                	nop
  5a:	7c01                	lui	s8,0xfffe0
  5c:	0d01                	addi	s10,s10,0
  5e:	0002                	c.slli64	zero
  60:	0028                	addi	a0,sp,8
  62:	0000                	unimp
  64:	0050                	addi	a2,sp,4
  66:	0000                	unimp
  68:	0cdc                	addi	a5,sp,596
  6a:	0000                	unimp
  6c:	0484                	addi	s1,sp,576
  6e:	0000                	unimp
  70:	0e48                	addi	a0,sp,788
  72:	7010                	flw	fa2,32(s0)
  74:	0389                	addi	t2,t2,2
  76:	0492                	slli	s1,s1,0x4
  78:	0181                	addi	gp,gp,0
  7a:	0288                	addi	a0,sp,320
  7c:	0a010003          	lb	zero,160(sp)
  80:	44c1                	li	s1,16
  82:	54c8                	lw	a0,44(s1)
  84:	44c9                	li	s1,18
  86:	48d2                	lw	a7,20(sp)
  88:	000e                	c.slli	zero,0x3
  8a:	0b44                	addi	s1,sp,404
  8c:	000c                	0xc
  8e:	0000                	unimp
  90:	ffff                	0xffff
  92:	ffff                	0xffff
  94:	0001                	nop
  96:	7c01                	lui	s8,0xfffe0
  98:	0d01                	addi	s10,s10,0
  9a:	0002                	c.slli64	zero
  9c:	000c                	0xc
  9e:	0000                	unimp
  a0:	008c                	addi	a1,sp,64
  a2:	0000                	unimp
  a4:	1160                	addi	s0,sp,172
  a6:	0000                	unimp
  a8:	0074                	addi	a3,sp,12
  aa:	0000                	unimp
  ac:	000c                	0xc
  ae:	0000                	unimp
  b0:	ffff                	0xffff
  b2:	ffff                	0xffff
  b4:	0001                	nop
  b6:	7c01                	lui	s8,0xfffe0
  b8:	0d01                	addi	s10,s10,0
  ba:	0002                	c.slli64	zero
  bc:	0024                	addi	s1,sp,8
  be:	0000                	unimp
  c0:	00ac                	addi	a1,sp,72
  c2:	0000                	unimp
  c4:	11d4                	addi	a3,sp,228
  c6:	0000                	unimp
  c8:	0114                	addi	a3,sp,128
  ca:	0000                	unimp
  cc:	0e44                	addi	s1,sp,788
  ce:	4c10                	lw	a2,24(s0)
  d0:	0181                	addi	gp,gp,0
  d2:	0288                	addi	a0,sp,320
  d4:	0389                	addi	t2,t2,2
  d6:	6802                	flw	fa6,0(sp)
  d8:	c10a                	sw	sp,128(sp)
  da:	c844                	sw	s1,20(s0)
  dc:	c954                	sw	a3,20(a0)
  de:	0e44                	addi	s1,sp,788
  e0:	4400                	lw	s0,8(s0)
  e2:	000c000b          	0xc000b
  e6:	0000                	unimp
  e8:	ffff                	0xffff
  ea:	ffff                	0xffff
  ec:	0001                	nop
  ee:	7c01                	lui	s8,0xfffe0
  f0:	0d01                	addi	s10,s10,0
  f2:	0002                	c.slli64	zero
  f4:	000c                	0xc
  f6:	0000                	unimp
  f8:	00e4                	addi	s1,sp,76
  fa:	0000                	unimp
  fc:	12e8                	addi	a0,sp,364
  fe:	0000                	unimp
 100:	0094                	addi	a3,sp,64
	...
