
exe:     file format elf32-littleriscv


Disassembly of section .text.init:

00000000 <entry>:
   0:	00010117          	auipc	sp,0x10
   4:	fd010113          	addi	sp,sp,-48 # ffd0 <main+0xffa8>
   8:	020000ef          	jal	ra,28 <main>

0000000c <end>:
   c:	0000006f          	j	c <end>

Disassembly of section .text:

00000010 <_Z10write_chari>:
  10:	000107b7          	lui	a5,0x10
  14:	fea7ae23          	sw	a0,-4(a5) # fffc <__sp+0xc>
  18:	ffc7a783          	lw	a5,-4(a5)
  1c:	40a78533          	sub	a0,a5,a0
  20:	00153513          	seqz	a0,a0
  24:	00008067          	ret

Disassembly of section .text.startup:

00000028 <main>:
  28:	0b400793          	li	a5,180
  2c:	0187a683          	lw	a3,24(a5)
  30:	01c7a703          	lw	a4,28(a5)
  34:	0007a303          	lw	t1,0(a5)
  38:	0047a883          	lw	a7,4(a5)
  3c:	0087a803          	lw	a6,8(a5)
  40:	00c7a503          	lw	a0,12(a5)
  44:	0107a583          	lw	a1,16(a5)
  48:	0147a603          	lw	a2,20(a5)
  4c:	0207d783          	lhu	a5,32(a5)
  50:	fd010113          	addi	sp,sp,-48
  54:	02d12223          	sw	a3,36(sp)
  58:	02e12423          	sw	a4,40(sp)
  5c:	02f11623          	sh	a5,44(sp)
  60:	00612623          	sw	t1,12(sp)
  64:	01112823          	sw	a7,16(sp)
  68:	01012a23          	sw	a6,20(sp)
  6c:	00a12c23          	sw	a0,24(sp)
  70:	00b12e23          	sw	a1,28(sp)
  74:	02c12023          	sw	a2,32(sp)
  78:	00d10693          	addi	a3,sp,13
  7c:	05400713          	li	a4,84
  80:	000107b7          	lui	a5,0x10
  84:	fee7ae23          	sw	a4,-4(a5) # fffc <__sp+0xc>
  88:	0006c703          	lbu	a4,0(a3)
  8c:	ffc7a603          	lw	a2,-4(a5)
  90:	00168693          	addi	a3,a3,1
  94:	ffc78613          	addi	a2,a5,-4
  98:	fe0716e3          	bnez	a4,84 <main+0x5c>
  9c:	000107b7          	lui	a5,0x10
  a0:	ff078793          	addi	a5,a5,-16 # fff0 <__sp>
  a4:	00f62023          	sw	a5,0(a2)
  a8:	00000513          	li	a0,0
  ac:	03010113          	addi	sp,sp,48
  b0:	00008067          	ret
